# SymbolsHelper-Confirmed: 1.22.1 amd64 riscv64
libqbscore.so.1.22 libqbscore1.22 #MINVER#
* Build-Depends-Package: qbs-dev
 (optional=templinst)_Z10qDeleteAllI5QListIPN3qbs8Internal4NodeEEEvRKT_@Base 1.22.0
 (optional=templinst)_Z17qRegisterMetaTypeIN3qbs13ProcessResultEEiPKcPT_N9QtPrivate21MetaTypeDefinedHelperIS4_Xaasr12QMetaTypeId2IS4_E7DefinedntsrS9_9IsBuiltInEE11DefinedTypeE@Base 1.22.0
 (optional=templinst)_Z17qRegisterMetaTypeIN3qbs9ErrorInfoEEiPKcPT_N9QtPrivate21MetaTypeDefinedHelperIS4_Xaasr12QMetaTypeId2IS4_E7DefinedntsrS9_9IsBuiltInEE11DefinedTypeE@Base 1.22.0
 _Z24initializeJsExtensionXml12QScriptValue@Base 1.22.0
 (optional=templinst)_Z24qScriptValueFromSequenceI11QStringListE12QScriptValueP13QScriptEngineRKT_@Base 1.22.0
 _Z25initializeJsExtensionFile12QScriptValue@Base 1.22.0
 _Z25initializeJsExtensionHost12QScriptValue@Base 1.22.0
 _Z28initializeJsExtensionProcess12QScriptValue@Base 1.22.0
 _Z29initializeJsExtensionFileInfo12QScriptValue@Base 1.22.0
 _Z29initializeJsExtensionTextFile12QScriptValue@Base 1.22.0
 _Z30initializeJsExtensionPkgConfig12QScriptValue@Base 1.22.0
 _Z30initializeJsExtensionUtilities12QScriptValue@Base 1.22.0
 _Z31initializeJsExtensionBinaryFile12QScriptValue@Base 1.22.0
 _Z32initializeJsExtensionEnvironment12QScriptValue@Base 1.22.0
 _Z33initializeJsExtensionPropertyList12QScriptValue@Base 1.22.0
 _Z33initializeJsExtensionTemporaryDir12QScriptValue@Base 1.22.0
 _Z5qHashRK11QStringList@Base 1.22.0
 _Z5qHashRK19QProcessEnvironment@Base 1.22.0
 _ZGVZN3qbs8Internal15StringConstants10falseValueEvE3var@Base 1.22.0
 _ZGVZN3qbs8Internal15StringConstants10mips64ArchEvE3var@Base 1.22.0
 _ZGVZN3qbs8Internal15StringConstants10outputsVarEvE3var@Base 1.22.0
 _ZGVZN3qbs8Internal15StringConstants10pathEnvVarEvE3var@Base 1.22.0
 _ZGVZN3qbs8Internal15StringConstants10tildeSlashEvE3var@Base 1.22.0
 _ZGVZN3qbs8Internal15StringConstants10x86_64ArchEvE3var@Base 1.22.0
 _ZGVZN3qbs8Internal15StringConstants11aarch64ArchEvE3var@Base 1.22.0
 _ZGVZN3qbs8Internal15StringConstants11commandTypeEvE3var@Base 1.22.0
 _ZGVZN3qbs8Internal15StringConstants11filePathKeyEvE3var@Base 1.22.0
 _ZGVZN3qbs8Internal15StringConstants11locationKeyEvE3var@Base 1.22.0
 _ZGVZN3qbs8Internal15StringConstants11originalVarEvE3var@Base 1.22.0
 _ZGVZN3qbs8Internal15StringConstants11powerPcArchEvE3var@Base 1.22.0
 _ZGVZN3qbs8Internal15StringConstants11productsKeyEvE3var@Base 1.22.0
 _ZGVZN3qbs8Internal15StringConstants11slashDotDotEvE3var@Base 1.22.0
 _ZGVZN3qbs8Internal15StringConstants12isEnabledKeyEvE3var@Base 1.22.0
 _ZGVZN3qbs8Internal15StringConstants12namePropertyEvE3var@Base 1.22.0
 _ZGVZN3qbs8Internal15StringConstants12scanPropertyEvE3var@Base 1.22.0
 _ZGVZN3qbs8Internal15StringConstants13filesPropertyEvE3var@Base 1.22.0
 _ZGVZN3qbs8Internal15StringConstants13foundPropertyEvE3var@Base 1.22.0
 _ZGVZN3qbs8Internal15StringConstants14lengthPropertyEvE3var@Base 1.22.0
 _ZGVZN3qbs8Internal15StringConstants14prefixPropertyEvE3var@Base 1.22.0
 _ZGVZN3qbs8Internal15StringConstants14undefinedValueEvE3var@Base 1.22.0
 _ZGVZN3qbs8Internal15StringConstants15emptyArrayValueEvE3var@Base 1.22.0
 _ZGVZN3qbs8Internal15StringConstants15jobPoolPropertyEvE3var@Base 1.22.0
 _ZGVZN3qbs8Internal15StringConstants15jsFileWildcardsEvE3var@Base 1.22.0
 _ZGVZN3qbs8Internal15StringConstants15moduleProvidersEvE3var@Base 1.22.0
 _ZGVZN3qbs8Internal15StringConstants15preparePropertyEvE3var@Base 1.22.0
 _ZGVZN3qbs8Internal15StringConstants15presentPropertyEvE3var@Base 1.22.0
 _ZGVZN3qbs8Internal15StringConstants15profilePropertyEvE3var@Base 1.22.0
 _ZGVZN3qbs8Internal15StringConstants15versionPropertyEvE3var@Base 1.22.0
 _ZGVZN3qbs8Internal15StringConstants16baseNamePropertyEvE3var@Base 1.22.0
 _ZGVZN3qbs8Internal15StringConstants16fileTagsPropertyEvE3var@Base 1.22.0
 _ZGVZN3qbs8Internal15StringConstants16jobCountPropertyEvE3var@Base 1.22.0
 _ZGVZN3qbs8Internal15StringConstants16patternsPropertyEvE3var@Base 1.22.0
 _ZGVZN3qbs8Internal15StringConstants16priorityPropertyEvE3var@Base 1.22.0
 _ZGVZN3qbs8Internal15StringConstants16qbsFileWildcardsEvE3var@Base 1.22.0
 _ZGVZN3qbs8Internal15StringConstants16requiredPropertyEvE3var@Base 1.22.0
 _ZGVZN3qbs8Internal15StringConstants16validatePropertyEvE3var@Base 1.22.0
 _ZGVZN3qbs8Internal15StringConstants17aggregatePropertyEvE3var@Base 1.22.0
 _ZGVZN3qbs8Internal15StringConstants17alwaysRunPropertyEvE3var@Base 1.22.0
 _ZGVZN3qbs8Internal15StringConstants17artifactsPropertyEvE3var@Base 1.22.0
 _ZGVZN3qbs8Internal15StringConstants17buildDirectoryKeyEvE3var@Base 1.22.0
 _ZGVZN3qbs8Internal15StringConstants17classNamePropertyEvE3var@Base 1.22.0
 _ZGVZN3qbs8Internal15StringConstants17conditionPropertyEvE3var@Base 1.22.0
 _ZGVZN3qbs8Internal15StringConstants17configurePropertyEvE3var@Base 1.22.0
 _ZGVZN3qbs8Internal15StringConstants17multiplexPropertyEvE3var@Base 1.22.0
 _ZGVZN3qbs8Internal15StringConstants17recursivePropertyEvE3var@Base 1.22.0
 _ZGVZN3qbs8Internal15StringConstants18fullDisplayNameKeyEvE3var@Base 1.22.0
 _ZGVZN3qbs8Internal15StringConstants18installDirPropertyEvE3var@Base 1.22.0
 _ZGVZN3qbs8Internal15StringConstants18moduleNamePropertyEvE3var@Base 1.22.0
 _ZGVZN3qbs8Internal15StringConstants18parametersPropertyEvE3var@Base 1.22.0
 _ZGVZN3qbs8Internal15StringConstants18qbsModuleProvidersEvE3var@Base 1.22.0
 _ZGVZN3qbs8Internal15StringConstants18referencesPropertyEvE3var@Base 1.22.0
 _ZGVZN3qbs8Internal15StringConstants18sourceCodePropertyEvE3var@Base 1.22.0
 _ZGVZN3qbs8Internal15StringConstants18submodulesPropertyEvE3var@Base 1.22.0
 _ZGVZN3qbs8Internal15StringConstants18targetNamePropertyEvE3var@Base 1.22.0
 _ZGVZN3qbs8Internal15StringConstants19baseProfilePropertyEvE3var@Base 1.22.0
 _ZGVZN3qbs8Internal15StringConstants19descriptionPropertyEvE3var@Base 1.22.0
 _ZGVZN3qbs8Internal15StringConstants19explicitlyDependsOnEvE3var@Base 1.22.0
 _ZGVZN3qbs8Internal15StringConstants19installRootPropertyEvE3var@Base 1.22.0
 _ZGVZN3qbs8Internal15StringConstants19modulePropertiesKeyEvE3var@Base 1.22.0
 _ZGVZN3qbs8Internal15StringConstants19multiplexedPropertyEvE3var@Base 1.22.0
 _ZGVZN3qbs8Internal15StringConstants19searchPathsPropertyEvE3var@Base 1.22.0
 _ZGVZN3qbs8Internal15StringConstants19shadowProductPrefixEvE3var@Base 1.22.0
 _ZGVZN3qbs8Internal15StringConstants20dependenciesPropertyEvE3var@Base 1.22.0
 _ZGVZN3qbs8Internal15StringConstants20excludeFilesPropertyEvE3var@Base 1.22.0
 _ZGVZN3qbs8Internal15StringConstants20overrideTagsPropertyEvE3var@Base 1.22.0
 _ZGVZN3qbs8Internal15StringConstants20productTypesPropertyEvE3var@Base 1.22.0
 _ZGVZN3qbs8Internal15StringConstants20versionBelowPropertyEvE3var@Base 1.22.0
 _ZGVZN3qbs8Internal15StringConstants21allowedValuesPropertyEvE3var@Base 1.22.0
 _ZGVZN3qbs8Internal15StringConstants21alwaysUpdatedPropertyEvE3var@Base 1.22.0
 _ZGVZN3qbs8Internal15StringConstants21installPrefixPropertyEvE3var@Base 1.22.0
 _ZGVZN3qbs8Internal15StringConstants21javaScriptCommandTypeEvE3var@Base 1.22.0
 _ZGVZN3qbs8Internal15StringConstants21prefixMappingPropertyEvE3var@Base 1.22.0
 _ZGVZN3qbs8Internal15StringConstants22buildDirectoryPropertyEvE3var@Base 1.22.0
 _ZGVZN3qbs8Internal15StringConstants22builtByDefaultPropertyEvE3var@Base 1.22.0
 _ZGVZN3qbs8Internal15StringConstants22destinationDirPropertyEvE3var@Base 1.22.0
 _ZGVZN3qbs8Internal15StringConstants22enableFallbackPropertyEvE3var@Base 1.22.0
 _ZGVZN3qbs8Internal15StringConstants22excludedInputsPropertyEvE3var@Base 1.22.0
 _ZGVZN3qbs8Internal15StringConstants22fileTagsFilterPropertyEvE3var@Base 1.22.0
 _ZGVZN3qbs8Internal15StringConstants22modulePropertyInternalEvE3var@Base 1.22.0
 _ZGVZN3qbs8Internal15StringConstants22outputFileTagsPropertyEvE3var@Base 1.22.0
 _ZGVZN3qbs8Internal15StringConstants22productsOverridePrefixEvE3var@Base 1.22.0
 _ZGVZN3qbs8Internal15StringConstants22profilesSettingsPrefixEvE3var@Base 1.22.0
 _ZGVZN3qbs8Internal15StringConstants22projectsOverridePrefixEvE3var@Base 1.22.0
 _ZGVZN3qbs8Internal15StringConstants22qbsSearchPathsPropertyEvE3var@Base 1.22.0
 _ZGVZN3qbs8Internal15StringConstants22removalVersionPropertyEvE3var@Base 1.22.0
 _ZGVZN3qbs8Internal15StringConstants22requiresInputsPropertyEvE3var@Base 1.22.0
 _ZGVZN3qbs8Internal15StringConstants22versionAtLeastPropertyEvE3var@Base 1.22.0
 _ZGVZN3qbs8Internal15StringConstants23auxiliaryInputsPropertyEvE3var@Base 1.22.0
 _ZGVZN3qbs8Internal15StringConstants23filesAreTargetsPropertyEvE3var@Base 1.22.0
 _ZGVZN3qbs8Internal15StringConstants23multiplexedTypePropertyEvE3var@Base 1.22.0
 _ZGVZN3qbs8Internal15StringConstants23outputArtifactsPropertyEvE3var@Base 1.22.0
 _ZGVZN3qbs8Internal15StringConstants23sourceDirectoryPropertyEvE3var@Base 1.22.0
 _ZGVZN3qbs8Internal15StringConstants24completeBaseNamePropertyEvE3var@Base 1.22.0
 _ZGVZN3qbs8Internal15StringConstants25configurationNamePropertyEvE3var@Base 1.22.0
 _ZGVZN3qbs8Internal15StringConstants25inheritPropertiesPropertyEvE3var@Base 1.22.0
 _ZGVZN3qbs8Internal15StringConstants25installSourceBasePropertyEvE3var@Base 1.22.0
 _ZGVZN3qbs8Internal15StringConstants25limitToSubProjectPropertyEvE3var@Base 1.22.0
 _ZGVZN3qbs8Internal15StringConstants25minimumQbsVersionPropertyEvE3var@Base 1.22.0
 _ZGVZN3qbs8Internal15StringConstants26consoleApplicationPropertyEvE3var@Base 1.22.0
 _ZGVZN3qbs8Internal15StringConstants27setupRunEnvironmentPropertyEvE3var@Base 1.22.0
 _ZGVZN3qbs8Internal15StringConstants28qbsSourceDirPropertyInternalEvE3var@Base 1.22.0
 _ZGVZN3qbs8Internal15StringConstants29setupBuildEnvironmentPropertyEvE3var@Base 1.22.0
 _ZGVZN3qbs8Internal15StringConstants30additionalProductTypesPropertyEvE3var@Base 1.22.0
 _ZGVZN3qbs8Internal15StringConstants30inputsFromDependenciesPropertyEvE3var@Base 1.22.0
 _ZGVZN3qbs8Internal15StringConstants30overrideListPropertiesPropertyEvE3var@Base 1.22.0
 _ZGVZN3qbs8Internal15StringConstants31excludedAuxiliaryInputsPropertyEvE3var@Base 1.22.0
 _ZGVZN3qbs8Internal15StringConstants31importScopeNamePropertyInternalEvE3var@Base 1.22.0
 _ZGVZN3qbs8Internal15StringConstants32multiplexByQbsPropertiesPropertyEvE3var@Base 1.22.0
 _ZGVZN3qbs8Internal15StringConstants32multiplexConfigurationIdPropertyEvE3var@Base 1.22.0
 _ZGVZN3qbs8Internal15StringConstants33multiplexConfigurationIdsPropertyEvE3var@Base 1.22.0
 _ZGVZN3qbs8Internal15StringConstants35explicitlyDependsOnFromDependenciesEvE3var@Base 1.22.0
 _ZGVZN3qbs8Internal15StringConstants3cppEvE3var@Base 1.22.0
 _ZGVZN3qbs8Internal15StringConstants3dotEvE3var@Base 1.22.0
 _ZGVZN3qbs8Internal15StringConstants3qbsEvE3var@Base 1.22.0
 _ZGVZN3qbs8Internal15StringConstants4pathEvE3var@Base 1.22.0
 _ZGVZN3qbs8Internal15StringConstants4starEvE3var@Base 1.22.0
 _ZGVZN3qbs8Internal15StringConstants4typeEvE3var@Base 1.22.0
 _ZGVZN3qbs8Internal15StringConstants5xcodeEvE3var@Base 1.22.0
 _ZGVZN3qbs8Internal15StringConstants6dotDotEvE3var@Base 1.22.0
 _ZGVZN3qbs8Internal15StringConstants6inputsEvE3var@Base 1.22.0
 _ZGVZN3qbs8Internal15StringConstants7armArchEvE3var@Base 1.22.0
 _ZGVZN3qbs8Internal15StringConstants7baseVarEvE3var@Base 1.22.0
 _ZGVZN3qbs8Internal15StringConstants7importsEvE3var@Base 1.22.0
 _ZGVZN3qbs8Internal15StringConstants7installEvE3var@Base 1.22.0
 _ZGVZN3qbs8Internal15StringConstants7ppcArchEvE3var@Base 1.22.0
 _ZGVZN3qbs8Internal15StringConstants7productEvE3var@Base 1.22.0
 _ZGVZN3qbs8Internal15StringConstants7projectEvE3var@Base 1.22.0
 _ZGVZN3qbs8Internal15StringConstants7x86ArchEvE3var@Base 1.22.0
 _ZGVZN3qbs8Internal15StringConstants8fileNameEvE3var@Base 1.22.0
 _ZGVZN3qbs8Internal15StringConstants8filePathEvE3var@Base 1.22.0
 _ZGVZN3qbs8Internal15StringConstants8i386ArchEvE3var@Base 1.22.0
 _ZGVZN3qbs8Internal15StringConstants8i586ArchEvE3var@Base 1.22.0
 _ZGVZN3qbs8Internal15StringConstants8inputVarEvE3var@Base 1.22.0
 _ZGVZN3qbs8Internal15StringConstants8mipsArchEvE3var@Base 1.22.0
 _ZGVZN3qbs8Internal15StringConstants8outerVarEvE3var@Base 1.22.0
 _ZGVZN3qbs8Internal15StringConstants8profilesEvE3var@Base 1.22.0
 _ZGVZN3qbs8Internal15StringConstants9amd64ArchEvE3var@Base 1.22.0
 _ZGVZN3qbs8Internal15StringConstants9arm64ArchEvE3var@Base 1.22.0
 _ZGVZN3qbs8Internal15StringConstants9armv7ArchEvE3var@Base 1.22.0
 _ZGVZN3qbs8Internal15StringConstants9outputVarEvE3var@Base 1.22.0
 _ZGVZN3qbs8Internal15StringConstants9ppc64ArchEvE3var@Base 1.22.0
 _ZGVZN3qbs8Internal15StringConstants9trueValueEvE3var@Base 1.22.0
 _ZGVZN3qbs8Internal25ArtifactBindingsExtractor21extractPropertyValuesERK12QScriptValueRK7QStringE25artifactItemPropertyNames@Base 1.22.0
 _ZGVZN9QtPrivate15ConnectionTypesINS_4ListIJRK7QStringiPN3qbs8Internal11InternalJobEEEELb1EE5typesEvE1t@Base 1.22.0
 _ZGVZN9QtPrivate15ConnectionTypesINS_4ListIJRKN3qbs9ErrorInfoEEEELb1EE5typesEvE1t@Base 1.22.0
 _ZGVZN9QtPrivate15ConnectionTypesINS_4ListIJiPN3qbs8Internal11InternalJobEEEELb1EE5typesEvE1t@Base 1.22.0
 _ZGVZNK3qbs8Internal20EvaluatorScriptClass11QueryResult6isNullEvE8pristine@Base 1.22.0
 _ZGVZNKSt8__detail11_AnyMatcherINSt7__cxx1112regex_traitsIcEELb0ELb0ELb0EEclEcE5__nul@Base 1.10.0
 _ZGVZNKSt8__detail11_AnyMatcherINSt7__cxx1112regex_traitsIcEELb0ELb0ELb1EEclEcE5__nul@Base 1.10.0
 _ZGVZNKSt8__detail11_AnyMatcherINSt7__cxx1112regex_traitsIcEELb0ELb1ELb0EEclEcE5__nul@Base 1.10.0
 _ZGVZNKSt8__detail11_AnyMatcherINSt7__cxx1112regex_traitsIcEELb0ELb1ELb1EEclEcE5__nul@Base 1.10.0
 _ZN10QByteArrayD1Ev@Base 1.22.0
 _ZN10QByteArrayD2Ev@Base 1.22.0
 (optional=templinst)_ZN11QMetaTypeIdIN3qbs9ErrorInfoEE14qt_metatype_idEv@Base 1.22.0
 _ZN11QStringListD1Ev@Base 1.22.0
 _ZN11QStringListD2Ev@Base 1.22.0
 (optional=templinst)_ZN12QWeakPointerI7QObjectED1Ev@Base 1.22.0
 (optional=templinst)_ZN12QWeakPointerI7QObjectED2Ev@Base 1.22.0
 (optional=templinst)_ZN14QThreadStorageI5QHashI7QString4QMapIS1_8QVariantEEE10deleteDataEPv@Base 1.22.0
 (optional=templinst)_ZN15QVarLengthArrayIcLi32EE7reallocEii@Base 1.22.0
 (optional=templinst)_ZN17QtMetaTypePrivate19IteratorOwnerCommonIN4QMapI7QString8QVariantE14const_iteratorEE5equalEPKPvS9_@Base 1.22.0
 (optional=templinst)_ZN17QtMetaTypePrivate19IteratorOwnerCommonIN4QMapI7QString8QVariantE14const_iteratorEE6assignEPPvPKS7_@Base 1.22.0
 (optional=templinst)_ZN17QtMetaTypePrivate19IteratorOwnerCommonIN4QMapI7QString8QVariantE14const_iteratorEE7destroyEPPv@Base 1.22.0
 (optional=templinst)_ZN17QtMetaTypePrivate19IteratorOwnerCommonIN5QHashI7QString8QVariantE14const_iteratorEE5equalEPKPvS9_@Base 1.22.0
 (optional=templinst)_ZN17QtMetaTypePrivate19IteratorOwnerCommonIN5QHashI7QString8QVariantE14const_iteratorEE6assignEPPvPKS7_@Base 1.22.0
 (optional=templinst)_ZN17QtMetaTypePrivate19IteratorOwnerCommonIN5QHashI7QString8QVariantE14const_iteratorEE7destroyEPPv@Base 1.22.0
 (optional=templinst)_ZN17QtMetaTypePrivate23QMetaTypeFunctionHelperIN3qbs13ProcessResultELb1EE8DestructEPv@Base 1.22.0
 (optional=templinst)_ZN17QtMetaTypePrivate23QMetaTypeFunctionHelperIN3qbs13ProcessResultELb1EE9ConstructEPvPKv@Base 1.22.0
 (optional=templinst)_ZN17QtMetaTypePrivate23QMetaTypeFunctionHelperIN3qbs8Internal18LauncherPacketTypeELb1EE8DestructEPv@Base 1.22.0
 (optional=templinst)_ZN17QtMetaTypePrivate23QMetaTypeFunctionHelperIN3qbs8Internal18LauncherPacketTypeELb1EE9ConstructEPvPKv@Base 1.22.0
 (optional=templinst)_ZN17QtMetaTypePrivate23QMetaTypeFunctionHelperIN3qbs9ErrorInfoELb1EE8DestructEPv@Base 1.22.0
 (optional=templinst)_ZN17QtMetaTypePrivate23QMetaTypeFunctionHelperIN3qbs9ErrorInfoELb1EE9ConstructEPvPKv@Base 1.22.0
 (optional=templinst)_ZN17QtMetaTypePrivate23QMetaTypeFunctionHelperINS_24QAssociativeIterableImplELb1EE8DestructEPv@Base 1.22.0
 (optional=templinst)_ZN17QtMetaTypePrivate23QMetaTypeFunctionHelperINS_24QAssociativeIterableImplELb1EE9ConstructEPvPKv@Base 1.22.0
 (optional=templinst)_ZN17QtMetaTypePrivate23QMetaTypeFunctionHelperIPKN3qbs8Internal17JavaScriptCommandELb1EE8DestructEPv@Base 1.22.0
 (optional=templinst)_ZN17QtMetaTypePrivate23QMetaTypeFunctionHelperIPKN3qbs8Internal17JavaScriptCommandELb1EE9ConstructEPvPKv@Base 1.22.0
 (optional=templinst)_ZN17QtMetaTypePrivate23QMetaTypeFunctionHelperIPN3qbs11AbstractJobELb1EE8DestructEPv@Base 1.22.0
 (optional=templinst)_ZN17QtMetaTypePrivate23QMetaTypeFunctionHelperIPN3qbs11AbstractJobELb1EE9ConstructEPvPKv@Base 1.22.0
 (optional=templinst)_ZN17QtMetaTypePrivate23QMetaTypeFunctionHelperIPN3qbs8Internal11InternalJobELb1EE8DestructEPv@Base 1.22.0
 (optional=templinst)_ZN17QtMetaTypePrivate23QMetaTypeFunctionHelperIPN3qbs8Internal11InternalJobELb1EE9ConstructEPvPKv@Base 1.22.0
 (optional=templinst)_ZN17QtMetaTypePrivate23QMetaTypeFunctionHelperIPN3qbs8Internal11TransformerELb1EE8DestructEPv@Base 1.22.0
 (optional=templinst)_ZN17QtMetaTypePrivate23QMetaTypeFunctionHelperIPN3qbs8Internal11TransformerELb1EE9ConstructEPvPKv@Base 1.22.0
 (optional=templinst|subst)_ZN17QtMetaTypePrivate23QMetaTypeFunctionHelperI{quintptr}Lb1EE8DestructEPv@Base 1.22.0
 (optional=templinst|subst)_ZN17QtMetaTypePrivate23QMetaTypeFunctionHelperI{quintptr}Lb1EE9ConstructEPvPKv@Base 1.22.0
 (optional=templinst)_ZN17QtMetaTypePrivate24QAssociativeIterableImpl10getKeyImplI4QMapI7QString8QVariantEEENS_11VariantDataEPKPvij@Base 1.22.0
 (optional=templinst)_ZN17QtMetaTypePrivate24QAssociativeIterableImpl10getKeyImplI5QHashI7QString8QVariantEEENS_11VariantDataEPKPvij@Base 1.22.0
 (optional=templinst)_ZN17QtMetaTypePrivate24QAssociativeIterableImpl11advanceImplI4QMapI7QString8QVariantEEEvPPvi@Base 1.22.0
 (optional=templinst)_ZN17QtMetaTypePrivate24QAssociativeIterableImpl11advanceImplI5QHashI7QString8QVariantEEEvPPvi@Base 1.22.0
 (optional=templinst)_ZN17QtMetaTypePrivate24QAssociativeIterableImpl12getValueImplI4QMapI7QString8QVariantEEENS_11VariantDataEPKPvij@Base 1.22.0
 (optional=templinst)_ZN17QtMetaTypePrivate24QAssociativeIterableImpl12getValueImplI5QHashI7QString8QVariantEEENS_11VariantDataEPKPvij@Base 1.22.0
 (optional=templinst)_ZN17QtMetaTypePrivate24QAssociativeIterableImpl7endImplI4QMapI7QString8QVariantEEEvPKvPPv@Base 1.22.0
 (optional=templinst)_ZN17QtMetaTypePrivate24QAssociativeIterableImpl7endImplI5QHashI7QString8QVariantEEEvPKvPPv@Base 1.22.0
 (optional=templinst)_ZN17QtMetaTypePrivate24QAssociativeIterableImpl8findImplI4QMapI7QString8QVariantEEEvPKvS7_PPv@Base 1.22.0
 (optional=templinst)_ZN17QtMetaTypePrivate24QAssociativeIterableImpl8findImplI5QHashI7QString8QVariantEEEvPKvS7_PPv@Base 1.22.0
 (optional=templinst)_ZN17QtMetaTypePrivate24QAssociativeIterableImpl8sizeImplI4QMapI7QString8QVariantEEEiPKv@Base 1.22.0
 (optional=templinst)_ZN17QtMetaTypePrivate24QAssociativeIterableImpl8sizeImplI5QHashI7QString8QVariantEEEiPKv@Base 1.22.0
 (optional=templinst)_ZN17QtMetaTypePrivate24QAssociativeIterableImpl9beginImplI4QMapI7QString8QVariantEEEvPKvPPv@Base 1.22.0
 (optional=templinst)_ZN17QtMetaTypePrivate24QAssociativeIterableImpl9beginImplI5QHashI7QString8QVariantEEEvPKvPPv@Base 1.22.0
 (optional=templinst)_ZN18QMetaTypeIdQObjectIPN3qbs11AbstractJobELi8EE14qt_metatype_idEv@Base 1.22.0
 (optional=templinst)_ZN18QMetaTypeIdQObjectIPN3qbs8Internal11InternalJobELi8EE14qt_metatype_idEv@Base 1.22.0
 (optional=templinst)_ZN18QSharedDataPointerIN3qbs8Internal15JobLimitPrivateEE13detach_helperEv@Base 1.22.0
 (optional=templinst)_ZN18QSharedDataPointerIN3qbs8Internal16JobLimitsPrivateEE13detach_helperEv@Base 1.22.0
 (optional=templinst)_ZN18QSharedDataPointerIN3qbs8Internal19BuildOptionsPrivateEE13detach_helperEv@Base 1.22.0
 (optional=templinst)_ZN18QSharedDataPointerIN3qbs8Internal19CleanOptionsPrivateEE13detach_helperEv@Base 1.22.0
 (optional=templinst)_ZN18QSharedDataPointerIN3qbs8Internal21InstallOptionsPrivateEE13detach_helperEv@Base 1.22.0
 (optional=templinst)_ZN18QSharedDataPointerIN3qbs8Internal22GenerateOptionsPrivateEE13detach_helperEv@Base 1.22.0
 (optional=templinst)_ZN18QSharedDataPointerIN3qbs8Internal23PropertyDeclarationDataEE13detach_helperEv@Base 1.22.0
 (optional=templinst)_ZN18QSharedDataPointerIN3qbs8Internal23PropertyDeclarationDataEED1Ev@Base 1.22.0
 (optional=templinst)_ZN18QSharedDataPointerIN3qbs8Internal23PropertyDeclarationDataEED2Ev@Base 1.22.0
 (optional=templinst)_ZN18QSharedDataPointerIN3qbs8Internal29SetupProjectParametersPrivateEE13detach_helperEv@Base 1.22.0
 (optional=templinst)_ZN18QSharedDataPointerIN3qbs9ErrorInfo16ErrorInfoPrivateEE13detach_helperEv@Base 1.22.0
 (optional=templinst)_ZN18QSharedDataPointerIN3qbs9ErrorInfo16ErrorInfoPrivateEED1Ev@Base 1.22.0
 (optional=templinst)_ZN18QSharedDataPointerIN3qbs9ErrorInfo16ErrorInfoPrivateEED2Ev@Base 1.22.0
 _ZN19TemporaryEnvChangerC1ERK19QProcessEnvironment@Base 1.22.0
 _ZN19TemporaryEnvChangerC2ERK19QProcessEnvironment@Base 1.22.0
 _ZN19TemporaryEnvChangerD1Ev@Base 1.22.0
 _ZN19TemporaryEnvChangerD2Ev@Base 1.22.0
 (optional=templinst)_ZN28QExplicitlySharedDataPointerIN3qbs12CodeLocation19CodeLocationPrivateEED1Ev@Base 1.22.0
 (optional=templinst)_ZN28QExplicitlySharedDataPointerIN3qbs12CodeLocation19CodeLocationPrivateEED2Ev@Base 1.22.0
 (optional=templinst)_ZN28QExplicitlySharedDataPointerIN3qbs9ErrorItem16ErrorItemPrivateEED1Ev@Base 1.22.0
 (optional=templinst)_ZN28QExplicitlySharedDataPointerIN3qbs9ErrorItem16ErrorItemPrivateEED2Ev@Base 1.22.0
 _ZN3qbs10InstallJob11qt_metacallEN11QMetaObject4CallEiPPv@Base 1.2.1
 _ZN3qbs10InstallJob11qt_metacastEPKc@Base 1.2.1
 _ZN3qbs10InstallJob16staticMetaObjectE@Base 1.2.1
 _ZN3qbs10InstallJob7installERKSt10shared_ptrINS_8Internal15TopLevelProjectEERK7QVectorIS1_INS2_15ResolvedProductEEERKNS_14InstallOptionsE@Base 1.16.0
 _ZN3qbs10InstallJobC1ERKNS_8Internal6LoggerEP7QObject@Base 1.2.1
 _ZN3qbs10InstallJobC2ERKNS_8Internal6LoggerEP7QObject@Base 1.2.1
 _ZN3qbs10InstallJobD0Ev@Base 1.22.0
 _ZN3qbs10InstallJobD1Ev@Base 1.22.0
 _ZN3qbs10InstallJobD2Ev@Base 1.22.0
 _ZN3qbs11AbstractJob11lockProjectERKSt10shared_ptrINS_8Internal15TopLevelProjectEE@Base 1.10.0
 _ZN3qbs11AbstractJob11qt_metacallEN11QMetaObject4CallEiPPv@Base 1.2.1
 _ZN3qbs11AbstractJob11qt_metacastEPKc@Base 1.2.1
 _ZN3qbs11AbstractJob11taskStartedERK7QStringiPS0_@Base 1.2.1
 _ZN3qbs11AbstractJob12taskProgressEiPS0_@Base 1.2.1
 _ZN3qbs11AbstractJob13unlockProjectEv@Base 1.3.1
 _ZN3qbs11AbstractJob14handleFinishedEv@Base 1.2.1
 _ZN3qbs11AbstractJob16staticMetaObjectE@Base 1.2.1
 _ZN3qbs11AbstractJob17handleTaskStartedERK7QStringi@Base 1.2.1
 _ZN3qbs11AbstractJob18handleTaskProgressEi@Base 1.2.1
 _ZN3qbs11AbstractJob18totalEffortChangedEiPS0_@Base 1.2.1
 _ZN3qbs11AbstractJob24handleTotalEffortChangedEi@Base 1.2.1
 _ZN3qbs11AbstractJob6cancelEv@Base 1.2.1
 _ZN3qbs11AbstractJob6finishEv@Base 1.22.0
 _ZN3qbs11AbstractJob8finishedEbPS0_@Base 1.2.1
 _ZN3qbs11AbstractJobC1EPNS_8Internal11InternalJobEP7QObject@Base 1.2.1
 _ZN3qbs11AbstractJobC2EPNS_8Internal11InternalJobEP7QObject@Base 1.2.1
 _ZN3qbs11AbstractJobD0Ev@Base 1.2.1
 _ZN3qbs11AbstractJobD1Ev@Base 1.2.1
 _ZN3qbs11AbstractJobD2Ev@Base 1.2.1
 _ZN3qbs11InstallDataC1EOS0_@Base 1.14.1
 _ZN3qbs11InstallDataC1ERKS0_@Base 1.7.0
 _ZN3qbs11InstallDataC1Ev@Base 1.7.0
 _ZN3qbs11InstallDataC2EOS0_@Base 1.14.1
 _ZN3qbs11InstallDataC2ERKS0_@Base 1.7.0
 _ZN3qbs11InstallDataC2Ev@Base 1.7.0
 _ZN3qbs11InstallDataD1Ev@Base 1.7.0
 _ZN3qbs11InstallDataD2Ev@Base 1.7.0
 _ZN3qbs11InstallDataaSEOS0_@Base 1.14.1
 _ZN3qbs11InstallDataaSERKS0_@Base 1.7.0
 _ZN3qbs11PcExceptionD0Ev@Base 1.22.0
 _ZN3qbs11PcExceptionD1Ev@Base 1.22.0
 _ZN3qbs11PcExceptionD2Ev@Base 1.22.0
 _ZN3qbs11PreferencesC1EPNS_8SettingsE4QMapI7QString8QVariantE@Base 1.14.1
 _ZN3qbs11PreferencesC1EPNS_8SettingsE7QString@Base 1.14.1
 _ZN3qbs11PreferencesC2EPNS_8SettingsE4QMapI7QString8QVariantE@Base 1.14.1
 _ZN3qbs11PreferencesC2EPNS_8SettingsE7QString@Base 1.14.1
 _ZN3qbs11ProductDataC1EOS0_@Base 1.14.1
 _ZN3qbs11ProductDataC1ERKS0_@Base 1.2.1
 _ZN3qbs11ProductDataC1Ev@Base 1.2.1
 _ZN3qbs11ProductDataC2EOS0_@Base 1.14.1
 _ZN3qbs11ProductDataC2ERKS0_@Base 1.2.1
 _ZN3qbs11ProductDataC2Ev@Base 1.2.1
 _ZN3qbs11ProductDataD1Ev@Base 1.2.1
 _ZN3qbs11ProductDataD2Ev@Base 1.2.1
 _ZN3qbs11ProductDataaSEOS0_@Base 1.14.1
 _ZN3qbs11ProductDataaSERKS0_@Base 1.2.1
 _ZN3qbs11ProjectDataC1EOS0_@Base 1.14.1
 _ZN3qbs11ProjectDataC1ERKS0_@Base 1.2.1
 _ZN3qbs11ProjectDataC1Ev@Base 1.2.1
 _ZN3qbs11ProjectDataC2EOS0_@Base 1.14.1
 _ZN3qbs11ProjectDataC2ERKS0_@Base 1.2.1
 _ZN3qbs11ProjectDataC2Ev@Base 1.2.1
 _ZN3qbs11ProjectDataD1Ev@Base 1.2.1
 _ZN3qbs11ProjectDataD2Ev@Base 1.2.1
 _ZN3qbs11ProjectDataaSEOS0_@Base 1.14.1
 _ZN3qbs11ProjectDataaSERKS0_@Base 1.2.1
 _ZN3qbs11PropertyMapC1EOS0_@Base 1.14.1
 _ZN3qbs11PropertyMapC1ERKS0_@Base 1.2.1
 _ZN3qbs11PropertyMapC1Ev@Base 1.2.1
 _ZN3qbs11PropertyMapC2EOS0_@Base 1.14.1
 _ZN3qbs11PropertyMapC2ERKS0_@Base 1.2.1
 _ZN3qbs11PropertyMapC2Ev@Base 1.2.1
 _ZN3qbs11PropertyMapD1Ev@Base 1.2.1
 _ZN3qbs11PropertyMapD2Ev@Base 1.2.1
 _ZN3qbs11PropertyMapaSEOS0_@Base 1.14.1
 _ZN3qbs11PropertyMapaSERKS0_@Base 1.2.1
 _ZN3qbs11RuleCommandC1ERKS0_@Base 1.3.3
 _ZN3qbs11RuleCommandC1Ev@Base 1.3.3
 _ZN3qbs11RuleCommandC2ERKS0_@Base 1.3.3
 _ZN3qbs11RuleCommandC2Ev@Base 1.3.3
 _ZN3qbs11RuleCommandD1Ev@Base 1.3.3
 _ZN3qbs11RuleCommandD2Ev@Base 1.3.3
 _ZN3qbs11RuleCommandaSERKS0_@Base 1.3.3
 _ZN3qbs11appendErrorERNS_9ErrorInfoERKS0_@Base 1.22.0
 _ZN3qbs11logLevelTagENS_11LoggerLevelE@Base 1.2.1
 _ZN3qbs11toJSLiteralERK11QStringList@Base 1.3.1
 _ZN3qbs11toJSLiteralERK7QString@Base 1.3.1
 _ZN3qbs11toJSLiteralERK8QVariant@Base 1.3.1
 _ZN3qbs11toJSLiteralEb@Base 1.3.1
 _ZN3qbs12ArtifactDataC1EOS0_@Base 1.14.1
 _ZN3qbs12ArtifactDataC1ERKS0_@Base 1.7.0
 _ZN3qbs12ArtifactDataC1Ev@Base 1.7.0
 _ZN3qbs12ArtifactDataC2EOS0_@Base 1.14.1
 _ZN3qbs12ArtifactDataC2ERKS0_@Base 1.7.0
 _ZN3qbs12ArtifactDataC2Ev@Base 1.7.0
 _ZN3qbs12ArtifactDataD1Ev@Base 1.7.0
 _ZN3qbs12ArtifactDataD2Ev@Base 1.7.0
 _ZN3qbs12ArtifactDataaSEOS0_@Base 1.14.1
 _ZN3qbs12ArtifactDataaSERKS0_@Base 1.7.0
 _ZN3qbs12BuildOptions10setInstallEb@Base 1.4.0
 _ZN3qbs12BuildOptions11setEchoModeENS_15CommandEchoModeE@Base 1.4.0
 _ZN3qbs12BuildOptions12setJobLimitsERKNS_9JobLimitsE@Base 1.13.0
 _ZN3qbs12BuildOptions12setKeepGoingEb@Base 1.2.1
 _ZN3qbs12BuildOptions14setMaxJobCountEi@Base 1.2.1
 _ZN3qbs12BuildOptions15setChangedFilesERK11QStringList@Base 1.2.1
 _ZN3qbs12BuildOptions17setActiveFileTagsERK11QStringList@Base 1.2.1
 _ZN3qbs12BuildOptions17setLogElapsedTimeEb@Base 1.2.1
 _ZN3qbs12BuildOptions18defaultMaxJobCountEv@Base 1.2.1
 _ZN3qbs12BuildOptions18setFilesToConsiderERK11QStringList@Base 1.2.1
 _ZN3qbs12BuildOptions19setExecuteRulesOnlyEb@Base 1.5.0
 _ZN3qbs12BuildOptions19setForceOutputCheckEb@Base 1.5.0
 _ZN3qbs12BuildOptions20setSettingsDirectoryERK7QString@Base 1.13.0
 _ZN3qbs12BuildOptions22setForceTimestampCheckEb@Base 1.2.1
 _ZN3qbs12BuildOptions29setRemoveExistingInstallationEb@Base 1.4.0
 _ZN3qbs12BuildOptions33setProjectJobLimitsTakePrecedenceEb@Base 1.13.0
 _ZN3qbs12BuildOptions8fromJsonERK11QJsonObject@Base 1.16.0
 _ZN3qbs12BuildOptions9setDryRunEb@Base 1.2.1
 _ZN3qbs12BuildOptionsC1ERKS0_@Base 1.2.1
 _ZN3qbs12BuildOptionsC1Ev@Base 1.2.1
 _ZN3qbs12BuildOptionsC2ERKS0_@Base 1.2.1
 _ZN3qbs12BuildOptionsC2Ev@Base 1.2.1
 _ZN3qbs12BuildOptionsD1Ev@Base 1.2.1
 _ZN3qbs12BuildOptionsD2Ev@Base 1.2.1
 _ZN3qbs12BuildOptionsaSERKS0_@Base 1.2.1
 _ZN3qbs12CleanOptions12setKeepGoingEb@Base 1.2.1
 _ZN3qbs12CleanOptions17setLogElapsedTimeEb@Base 1.2.1
 _ZN3qbs12CleanOptions8fromJsonERK11QJsonObject@Base 1.16.0
 _ZN3qbs12CleanOptions9setDryRunEb@Base 1.2.1
 _ZN3qbs12CleanOptionsC1EOS0_@Base 1.13.0
 _ZN3qbs12CleanOptionsC1ERKS0_@Base 1.2.1
 _ZN3qbs12CleanOptionsC1Ev@Base 1.2.1
 _ZN3qbs12CleanOptionsC2EOS0_@Base 1.13.0
 _ZN3qbs12CleanOptionsC2ERKS0_@Base 1.2.1
 _ZN3qbs12CleanOptionsC2Ev@Base 1.2.1
 _ZN3qbs12CleanOptionsD1Ev@Base 1.2.1
 _ZN3qbs12CleanOptionsD2Ev@Base 1.2.1
 _ZN3qbs12CleanOptionsaSEOS0_@Base 1.13.0
 _ZN3qbs12CleanOptionsaSERKS0_@Base 1.2.1
 _ZN3qbs12CodeLocation4loadERNS_8Internal14PersistentPoolE@Base 1.4.0
 _ZN3qbs12CodeLocationC1ERK7QStringiib@Base 1.4.1
 _ZN3qbs12CodeLocationC1ERKS0_@Base 1.2.1
 _ZN3qbs12CodeLocationC1Ev@Base 1.2.1
 _ZN3qbs12CodeLocationC2ERK7QStringiib@Base 1.4.1
 _ZN3qbs12CodeLocationC2ERKS0_@Base 1.2.1
 _ZN3qbs12CodeLocationC2Ev@Base 1.2.1
 _ZN3qbs12CodeLocationD1Ev@Base 1.2.1
 _ZN3qbs12CodeLocationD2Ev@Base 1.2.1
 _ZN3qbs12CodeLocationaSERKS0_@Base 1.2.1
 _ZN3qbs12LanguageInfo10qbsVersionEv@Base 1.5.0
 _ZN3qbs12LanguageInfo11qmlTypeInfoB5cxx11Ev@Base 1.11.0
 _ZN3qbs12VersionRange10narrowDownERKS0_@Base 1.22.0
 _ZN3qbs12logLevelNameENS_11LoggerLevelE@Base 1.2.1
 _ZN3qbs13ProcessResultC1ERKS0_@Base 1.2.1
 _ZN3qbs13ProcessResultC1Ev@Base 1.2.1
 _ZN3qbs13ProcessResultC2ERKS0_@Base 1.2.1
 _ZN3qbs13ProcessResultC2Ev@Base 1.2.1
 _ZN3qbs13ProcessResultD1Ev@Base 1.2.1
 _ZN3qbs13ProcessResultD2Ev@Base 1.2.1
 _ZN3qbs13ProcessResultaSERKS0_@Base 1.2.1
 _ZN3qbs13SettingsModel11qt_metacallEN11QMetaObject4CallEiPPv@Base 1.4.0
 _ZN3qbs13SettingsModel11qt_metacastEPKc@Base 1.4.0
 _ZN3qbs13SettingsModel11setEditableEb@Base 1.4.0
 _ZN3qbs13SettingsModel16staticMetaObjectE@Base 1.4.0
 _ZN3qbs13SettingsModel17updateSettingsDirERK7QString@Base 1.5.0
 _ZN3qbs13SettingsModel20SettingsModelPrivate11indexToNodeERK11QModelIndex@Base 1.4.0
 _ZN3qbs13SettingsModel20SettingsModelPrivate12readSettingsEv@Base 1.4.0
 _ZN3qbs13SettingsModel20SettingsModelPrivate19addNodeFromSettingsEPNS_8Internal4NodeERK7QString@Base 1.4.0
 _ZN3qbs13SettingsModel20SettingsModelPrivate6doSaveEPKNS_8Internal4NodeERK7QString@Base 1.4.0
 _ZN3qbs13SettingsModel20SettingsModelPrivate7addNodeEPNS_8Internal4NodeERK7QStringRK11QStringListRK8QVariant@Base 1.4.0
 _ZN3qbs13SettingsModel23setAdditionalPropertiesERK4QMapI7QString8QVariantE@Base 1.4.0
 _ZN3qbs13SettingsModel4saveEv@Base 1.4.0
 _ZN3qbs13SettingsModel6reloadEv@Base 1.4.0
 _ZN3qbs13SettingsModel7setDataERK11QModelIndexRK8QVarianti@Base 1.4.0
 _ZN3qbs13SettingsModel9addNewKeyERK11QModelIndex@Base 1.4.0
 _ZN3qbs13SettingsModel9removeKeyERK11QModelIndex@Base 1.4.0
 _ZN3qbs13SettingsModelC1ERK7QStringNS_8Settings5ScopeEP7QObject@Base 1.12.0
 _ZN3qbs13SettingsModelC2ERK7QStringNS_8Settings5ScopeEP7QObject@Base 1.12.0
 _ZN3qbs13SettingsModelD0Ev@Base 1.4.0
 _ZN3qbs13SettingsModelD1Ev@Base 1.4.0
 _ZN3qbs13SettingsModelD2Ev@Base 1.4.0
 _ZN3qbs14InstallOptions12setKeepGoingEb@Base 1.2.1
 _ZN3qbs14InstallOptions14setInstallRootERK7QString@Base 1.2.1
 _ZN3qbs14InstallOptions17setLogElapsedTimeEb@Base 1.2.1
 _ZN3qbs14InstallOptions18defaultInstallRootEv@Base 1.2.1
 _ZN3qbs14InstallOptions21setInstallIntoSysrootEb@Base 1.2.1
 _ZN3qbs14InstallOptions29setRemoveExistingInstallationEb@Base 1.2.1
 _ZN3qbs14InstallOptions8fromJsonERK11QJsonObject@Base 1.16.0
 _ZN3qbs14InstallOptions9setDryRunEb@Base 1.2.1
 _ZN3qbs14InstallOptionsC1EOS0_@Base 1.13.0
 _ZN3qbs14InstallOptionsC1ERKS0_@Base 1.2.1
 _ZN3qbs14InstallOptionsC1Ev@Base 1.2.1
 _ZN3qbs14InstallOptionsC2EOS0_@Base 1.13.0
 _ZN3qbs14InstallOptionsC2ERKS0_@Base 1.2.1
 _ZN3qbs14InstallOptionsC2Ev@Base 1.2.1
 _ZN3qbs14InstallOptionsD1Ev@Base 1.2.1
 _ZN3qbs14InstallOptionsD2Ev@Base 1.2.1
 _ZN3qbs14InstallOptionsaSEOS0_@Base 1.13.0
 _ZN3qbs14InstallOptionsaSERKS0_@Base 1.2.1
 _ZN3qbs14RunEnvironment10doRunShellEv@Base 1.5.0
 _ZN3qbs14RunEnvironment11doRunTargetERK7QStringRK11QStringListb@Base 1.11.0
 _ZN3qbs14RunEnvironment14printStartInfoERK8QProcessb@Base 1.11.0
 _ZN3qbs14RunEnvironment21RunEnvironmentPrivate12checkProductEv@Base 1.22.0
 _ZN3qbs14RunEnvironment8runShellEPNS_9ErrorInfoE@Base 1.5.0
 _ZN3qbs14RunEnvironment9runTargetERK7QStringRK11QStringListbPNS_9ErrorInfoE@Base 1.11.0
 _ZN3qbs14RunEnvironmentC1ERKSt10shared_ptrINS_8Internal15ResolvedProductEERKS1_IKNS2_15TopLevelProjectEERKNS_14InstallOptionsERK19QProcessEnvironmentRK11QStringListPNS_8SettingsERKNS2_6LoggerE@Base 1.11.0
 _ZN3qbs14RunEnvironmentC2ERKSt10shared_ptrINS_8Internal15ResolvedProductEERKS1_IKNS2_15TopLevelProjectEERKNS_14InstallOptionsERK19QProcessEnvironmentRK11QStringListPNS_8SettingsERKNS2_6LoggerE@Base 1.11.0
 _ZN3qbs14RunEnvironmentD1Ev@Base 1.2.1
 _ZN3qbs14RunEnvironmentD2Ev@Base 1.2.1
 _ZN3qbs14getPcFilePathsERKSt6vectorINSt7__cxx1112basic_stringIcSt11char_traitsIcESaIcEEESaIS6_EE@Base 1.22.0
 _ZN3qbs15GenerateOptions16setGeneratorNameERK7QString@Base 1.4.0
 _ZN3qbs15GenerateOptionsC1ERKS0_@Base 1.4.0
 _ZN3qbs15GenerateOptionsC1Ev@Base 1.4.0
 _ZN3qbs15GenerateOptionsC2ERKS0_@Base 1.4.0
 _ZN3qbs15GenerateOptionsC2Ev@Base 1.4.0
 _ZN3qbs15GenerateOptionsD1Ev@Base 1.4.0
 _ZN3qbs15GenerateOptionsD2Ev@Base 1.4.0
 _ZN3qbs15GenerateOptionsaSERKS0_@Base 1.4.0
 (arch=armel armhf i386 mips64el mipsel powerpc ppc64 ppc64el riscv64)_ZN3qbs15PcBrokenPackageC1EOS0_@Base 1.22.0
 (arch=armel armhf i386 mips64el mipsel powerpc ppc64 ppc64el riscv64)_ZN3qbs15PcBrokenPackageC2EOS0_@Base 1.22.0
 _ZN3qbs15SetupProjectJob11qt_metacallEN11QMetaObject4CallEiPPv@Base 1.2.1
 _ZN3qbs15SetupProjectJob11qt_metacastEPKc@Base 1.2.1
 _ZN3qbs15SetupProjectJob11reportErrorERKNS_9ErrorInfoE@Base 1.2.1
 _ZN3qbs15SetupProjectJob16staticMetaObjectE@Base 1.2.1
 _ZN3qbs15SetupProjectJob6finishEv@Base 1.3.1
 _ZN3qbs15SetupProjectJob7resolveERKNS_7ProjectERKNS_22SetupProjectParametersE@Base 1.3.1
 _ZN3qbs15SetupProjectJobC1ERKNS_8Internal6LoggerEP7QObject@Base 1.2.1
 _ZN3qbs15SetupProjectJobC2ERKNS_8Internal6LoggerEP7QObject@Base 1.2.1
 _ZN3qbs15SetupProjectJobD0Ev@Base 1.22.0
 _ZN3qbs15SetupProjectJobD1Ev@Base 1.22.0
 _ZN3qbs15SetupProjectJobD2Ev@Base 1.22.0
 _ZN3qbs15TransformerDataC1ERKS0_@Base 1.12.0
 _ZN3qbs15TransformerDataC1Ev@Base 1.12.0
 _ZN3qbs15TransformerDataC2ERKS0_@Base 1.12.0
 _ZN3qbs15TransformerDataC2Ev@Base 1.12.0
 _ZN3qbs15TransformerDataD1Ev@Base 1.12.0
 _ZN3qbs15TransformerDataD2Ev@Base 1.12.0
 _ZN3qbs15TransformerDataaSERKS0_@Base 1.12.0
 _ZN3qbs16ProjectGenerator11qt_metacallEN11QMetaObject4CallEiPPv@Base 1.7.0
 _ZN3qbs16ProjectGenerator11qt_metacastEPKc@Base 1.7.0
 _ZN3qbs16ProjectGenerator16staticMetaObjectE@Base 1.7.0
 _ZN3qbs16ProjectGenerator8generateERK5QListINS_7ProjectEERKS1_I4QMapI7QString8QVariantEERKNS_14InstallOptionsERKS7_RKNS_8Internal6LoggerE@Base 1.10.0
 _ZN3qbs16ProjectGeneratorC1Ev@Base 1.7.0
 _ZN3qbs16ProjectGeneratorC2Ev@Base 1.7.0
 _ZN3qbs16ProjectGeneratorD0Ev@Base 1.7.0
 _ZN3qbs16ProjectGeneratorD1Ev@Base 1.7.0
 _ZN3qbs16ProjectGeneratorD2Ev@Base 1.7.0
 _ZN3qbs18GeneratableProjectD1Ev@Base 1.22.0
 _ZN3qbs18GeneratableProjectD2Ev@Base 1.22.0
 _ZN3qbs18canonicalToolchainERK11QStringList@Base 1.6.0
 _ZN3qbs18canonicalToolchainERK7QString@Base 1.6.0
 _ZN3qbs19commandEchoModeNameENS_15CommandEchoModeE@Base 1.4.0
 _ZN3qbs19handlePropertyErrorERKNS_9ErrorInfoERKNS_22SetupProjectParametersERNS_8Internal6LoggerE@Base 1.22.0
 _ZN3qbs20makeBrokenDependencyERKNS_9PcPackageERKNS0_15RequiredVersionE@Base 1.22.0
 _ZN3qbs21canonicalArchitectureERK7QString@Base 1.3.2
 _ZN3qbs21makeMissingDependencyERKNS_9PcPackageERKNS0_15RequiredVersionE@Base 1.22.0
 _ZN3qbs22GeneratableProjectDataD1Ev@Base 1.22.0
 _ZN3qbs22GeneratableProjectDataD2Ev@Base 1.22.0
 _ZN3qbs22SetupProjectParameters12setBuildRootERK7QString@Base 1.2.1
 _ZN3qbs22SetupProjectParameters14setEnvironmentERK19QProcessEnvironment@Base 1.2.1
 _ZN3qbs22SetupProjectParameters14setLibexecPathERK7QString@Base 1.4.1
 _ZN3qbs22SetupProjectParameters14setPluginPathsERK11QStringList@Base 1.2.1
 _ZN3qbs22SetupProjectParameters14setSearchPathsERK11QStringList@Base 1.2.1
 _ZN3qbs22SetupProjectParameters17setLogElapsedTimeEb@Base 1.2.1
 _ZN3qbs22SetupProjectParameters18setProjectFilePathERK7QString@Base 1.2.1
 _ZN3qbs22SetupProjectParameters18setRestoreBehaviorENS0_15RestoreBehaviorE@Base 1.2.1
 _ZN3qbs22SetupProjectParameters18setTopLevelProfileERK7QString@Base 1.3.1
 _ZN3qbs22SetupProjectParameters19setOverriddenValuesERK4QMapI7QString8QVariantE@Base 1.2.1
 _ZN3qbs22SetupProjectParameters19setProductErrorModeENS_17ErrorHandlingModeE@Base 1.5.0
 _ZN3qbs22SetupProjectParameters20setConfigurationNameERK7QString@Base 1.6.0
 _ZN3qbs22SetupProjectParameters20setSettingsDirectoryERK7QString@Base 1.3.1
 _ZN3qbs22SetupProjectParameters21setWaitLockBuildGraphEb@Base 1.6.0
 _ZN3qbs22SetupProjectParameters22setForceProbeExecutionEb@Base 1.6.0
 _ZN3qbs22SetupProjectParameters23setPropertyCheckingModeENS_17ErrorHandlingModeE@Base 1.5.0
 _ZN3qbs22SetupProjectParameters24expandBuildConfigurationEv@Base 1.3.1
 _ZN3qbs22SetupProjectParameters25setOverrideBuildGraphDataEb@Base 1.10.0
 _ZN3qbs22SetupProjectParameters26expandedBuildConfigurationERKNS_7ProfileERK7QStringPNS_9ErrorInfoE@Base 1.10.0
 _ZN3qbs22SetupProjectParameters26setFallbackProviderEnabledEb@Base 1.13.0
 _ZN3qbs22SetupProjectParameters27finalBuildConfigurationTreeERK4QMapI7QString8QVariantES6_@Base 1.10.0
 _ZN3qbs22SetupProjectParameters8fromJsonERK11QJsonObject@Base 1.16.0
 _ZN3qbs22SetupProjectParameters9setDryRunEb@Base 1.2.1
 _ZN3qbs22SetupProjectParametersC1EOS0_@Base 1.14.1
 _ZN3qbs22SetupProjectParametersC1ERKS0_@Base 1.2.1
 _ZN3qbs22SetupProjectParametersC1Ev@Base 1.2.1
 _ZN3qbs22SetupProjectParametersC2EOS0_@Base 1.14.1
 _ZN3qbs22SetupProjectParametersC2ERKS0_@Base 1.2.1
 _ZN3qbs22SetupProjectParametersC2Ev@Base 1.2.1
 _ZN3qbs22SetupProjectParametersD1Ev@Base 1.2.1
 _ZN3qbs22SetupProjectParametersD2Ev@Base 1.2.1
 _ZN3qbs22SetupProjectParametersaSEOS0_@Base 1.14.1
 _ZN3qbs22SetupProjectParametersaSERKS0_@Base 1.2.1
 _ZN3qbs22defaultCommandEchoModeEv@Base 1.4.0
 _ZN3qbs23ProjectGeneratorManager13findGeneratorERK7QString@Base 1.4.0
 _ZN3qbs23ProjectGeneratorManager17registerGeneratorERKSt10shared_ptrINS_16ProjectGeneratorEE@Base 1.10.0
 _ZN3qbs23ProjectGeneratorManager20loadedGeneratorNamesEv@Base 1.4.0
 _ZN3qbs23ProjectGeneratorManager8instanceEv@Base 1.4.0
 _ZN3qbs23ProjectGeneratorManagerC1Ev@Base 1.4.0
 _ZN3qbs23ProjectGeneratorManagerC2Ev@Base 1.4.0
 _ZN3qbs23ProjectGeneratorManagerD1Ev@Base 1.4.0
 _ZN3qbs23ProjectGeneratorManagerD2Ev@Base 1.4.0
 _ZN3qbs23commandEchoModeFromNameERK7QString@Base 1.4.0
 _ZN3qbs25allCommandEchoModeStringsEv@Base 1.4.0
 _ZN3qbs26GeneratableProjectIterator6acceptEPNS_26IGeneratableProjectVisitorE@Base 1.10.0
 _ZN3qbs26GeneratableProjectIterator6acceptERKNS_18GeneratableProjectERKNS_22GeneratableProjectDataES6_PNS_26IGeneratableProjectVisitorE@Base 1.10.0
 _ZN3qbs26GeneratableProjectIteratorC1ENS_18GeneratableProjectE@Base 1.14.1
 _ZN3qbs26GeneratableProjectIteratorC2ENS_18GeneratableProjectE@Base 1.14.1
 _ZN3qbs26IGeneratableProjectVisitor12visitProductERKNS_11ProductDataERK7QString@Base 1.22.0
 _ZN3qbs26IGeneratableProjectVisitor12visitProductERKNS_18GeneratableProjectERKNS_22GeneratableProjectDataERKNS_22GeneratableProductDataE@Base 1.22.0
 _ZN3qbs26IGeneratableProjectVisitor12visitProjectERKNS_18GeneratableProjectE@Base 1.22.0
 _ZN3qbs26IGeneratableProjectVisitor12visitProjectERKNS_7ProjectERK7QString@Base 1.22.0
 _ZN3qbs26IGeneratableProjectVisitor16visitProjectDataERKNS_11ProjectDataERK7QString@Base 1.22.0
 _ZN3qbs26IGeneratableProjectVisitor16visitProjectDataERKNS_11ProjectDataES3_RK7QString@Base 1.22.0
 _ZN3qbs26IGeneratableProjectVisitor16visitProjectDataERKNS_18GeneratableProjectERKNS_22GeneratableProjectDataE@Base 1.22.0
 _ZN3qbs26IGeneratableProjectVisitor16visitProjectDataERKNS_18GeneratableProjectERKNS_22GeneratableProjectDataES6_@Base 1.22.0
 _ZN3qbs27canonicalTargetArchitectureERK7QStringS2_S2_S2_S2_@Base 1.10.0
 _ZN3qbs29makeVersionMismatchDependencyERKNS_9PcPackageES2_RKNS0_15RequiredVersionE@Base 1.22.0
 _ZN3qbs29representationToSettingsValueERK7QString@Base 1.4.0
 _ZN3qbs29settingsValueToRepresentationERK8QVariant@Base 1.4.0
 _ZN3qbs3gen3xml12INodeVisitor15visitProjectEndEPKNS1_7ProjectE@Base 1.22.0
 _ZN3qbs3gen3xml12INodeVisitor17visitProjectStartEPKNS1_7ProjectE@Base 1.22.0
 _ZN3qbs3gen3xml12INodeVisitor17visitWorkspaceEndEPKNS1_9WorkspaceE@Base 1.22.0
 _ZN3qbs3gen3xml12INodeVisitor19visitWorkspaceStartEPKNS1_9WorkspaceE@Base 1.22.0
 _ZN3qbs3gen3xml13ProjectWriter16visitPropertyEndEPKNS1_8PropertyE@Base 1.16.0
 _ZN3qbs3gen3xml13ProjectWriter18visitPropertyStartEPKNS1_8PropertyE@Base 1.16.0
 _ZN3qbs3gen3xml13ProjectWriter21visitPropertyGroupEndEPKNS1_13PropertyGroupE@Base 1.16.0
 _ZN3qbs3gen3xml13ProjectWriter23visitPropertyGroupStartEPKNS1_13PropertyGroupE@Base 1.16.0
 _ZN3qbs3gen3xml13ProjectWriter5writeEPKNS1_7ProjectE@Base 1.16.0
 _ZN3qbs3gen3xml13ProjectWriterC1EPSo@Base 1.16.0
 _ZN3qbs3gen3xml13ProjectWriterC2EPSo@Base 1.16.0
 _ZN3qbs3gen3xml13ProjectWriterD0Ev@Base 1.22.0
 _ZN3qbs3gen3xml13ProjectWriterD1Ev@Base 1.22.0
 _ZN3qbs3gen3xml13ProjectWriterD2Ev@Base 1.22.0
 _ZN3qbs3gen3xml13PropertyGroup14appendPropertyE10QByteArray8QVariant@Base 1.16.0
 _ZN3qbs3gen3xml13PropertyGroup23appendMultiLinePropertyE10QByteArrayRK11QStringList5QChar@Base 1.16.0
 _ZN3qbs3gen3xml13PropertyGroupC1E10QByteArray@Base 1.16.0
 _ZN3qbs3gen3xml13PropertyGroupC2E10QByteArray@Base 1.16.0
 _ZN3qbs3gen3xml13PropertyGroupD0Ev@Base 1.22.0
 _ZN3qbs3gen3xml13PropertyGroupD1Ev@Base 1.22.0
 _ZN3qbs3gen3xml13PropertyGroupD2Ev@Base 1.22.0
 _ZN3qbs3gen3xml15WorkspaceWriter16visitPropertyEndEPKNS1_8PropertyE@Base 1.16.0
 _ZN3qbs3gen3xml15WorkspaceWriter18visitPropertyStartEPKNS1_8PropertyE@Base 1.16.0
 _ZN3qbs3gen3xml15WorkspaceWriter21visitPropertyGroupEndEPKNS1_13PropertyGroupE@Base 1.16.0
 _ZN3qbs3gen3xml15WorkspaceWriter23visitPropertyGroupStartEPKNS1_13PropertyGroupE@Base 1.16.0
 _ZN3qbs3gen3xml15WorkspaceWriter5writeEPKNS1_9WorkspaceE@Base 1.16.0
 _ZN3qbs3gen3xml15WorkspaceWriterC1EPSo@Base 1.16.0
 _ZN3qbs3gen3xml15WorkspaceWriterC2EPSo@Base 1.16.0
 _ZN3qbs3gen3xml15WorkspaceWriterD0Ev@Base 1.22.0
 _ZN3qbs3gen3xml15WorkspaceWriterD1Ev@Base 1.22.0
 _ZN3qbs3gen3xml15WorkspaceWriterD2Ev@Base 1.22.0
 _ZN3qbs3gen3xml7ProjectD0Ev@Base 1.22.0
 _ZN3qbs3gen3xml7ProjectD1Ev@Base 1.22.0
 _ZN3qbs3gen3xml7ProjectD2Ev@Base 1.22.0
 _ZN3qbs3gen3xml8PropertyC1E10QByteArray8QVariant@Base 1.16.0
 _ZN3qbs3gen3xml8PropertyC2E10QByteArray8QVariant@Base 1.16.0
 _ZN3qbs3gen3xml8PropertyD0Ev@Base 1.22.0
 _ZN3qbs3gen3xml8PropertyD1Ev@Base 1.22.0
 _ZN3qbs3gen3xml8PropertyD2Ev@Base 1.22.0
 _ZN3qbs3gen3xml9WorkspaceC1ERK7QString@Base 1.16.0
 _ZN3qbs3gen3xml9WorkspaceC2ERK7QString@Base 1.16.0
 _ZN3qbs3gen5utils12architectureERKNS_7ProjectE@Base 1.16.0
 _ZN3qbs3gen5utils12targetBinaryERKNS_11ProductDataE@Base 1.16.0
 _ZN3qbs3gen5utils13allFlagValuesERK11QStringListRK7QString@Base 1.16.0
 _ZN3qbs3gen5utils13buildRootPathERKNS_7ProjectE@Base 1.16.0
 _ZN3qbs3gen5utils14dependenciesOfERKNS_11ProductDataERKNS_18GeneratableProjectERK7QString@Base 1.16.0
 _ZN3qbs3gen5utils14firstFlagValueERK11QStringListRK7QString@Base 1.16.0
 _ZN3qbs3gen5utils16architectureNameENS1_12ArchitectureE@Base 1.16.0
 _ZN3qbs3gen5utils16debugInformationERKNS_11ProductDataE@Base 1.16.0
 _ZN3qbs3gen5utils16relativeFilePathERK7QStringS4_@Base 1.16.0
 _ZN3qbs3gen5utils16targetBinaryPathERK7QStringRKNS_11ProductDataE@Base 1.16.0
 _ZN3qbs3gen5utils21binaryOutputDirectoryERK7QStringRKNS_11ProductDataE@Base 1.16.0
 _ZN3qbs3gen5utils22buildConfigurationNameERKNS_7ProjectE@Base 1.16.0
 _ZN3qbs3gen5utils22listingOutputDirectoryERK7QStringRKNS_11ProductDataE@Base 1.16.0
 _ZN3qbs3gen5utils22objectsOutputDirectoryERK7QStringRKNS_11ProductDataE@Base 1.16.0
 _ZN3qbs3gen5utils23cppStringModulePropertyERKNS_11PropertyMapERK7QString@Base 1.16.0
 _ZN3qbs3gen5utils24cppBooleanModulePropertyERKNS_11PropertyMapERK7QString@Base 1.16.0
 _ZN3qbs3gen5utils24cppIntegerModulePropertyERKNS_11PropertyMapERK7QString@Base 1.16.0
 _ZN3qbs3gen5utils25cppStringModulePropertiesERKNS_11PropertyMapERK11QStringList@Base 1.16.0
 _ZN3qbs3gen5utils26cppVariantModulePropertiesERKNS_11PropertyMapERK11QStringList@Base 1.16.0
 _ZN3qbs7Profile13removeProfileEv@Base 1.2.1
 _ZN3qbs7Profile14baseProfileKeyEv@Base 1.2.1
 _ZN3qbs7Profile14setBaseProfileERK7QString@Base 1.2.1
 _ZN3qbs7Profile17removeBaseProfileEv@Base 1.2.1
 _ZN3qbs7Profile6removeERK7QString@Base 1.2.1
 _ZN3qbs7Profile8setValueERK7QStringRK8QVariant@Base 1.2.1
 _ZN3qbs7Profile9cleanNameERK7QString@Base 1.2.1
 _ZN3qbs7ProfileC1E7QStringPNS_8SettingsE4QMapIS1_8QVariantE@Base 1.16.0
 _ZN3qbs7ProfileC2E7QStringPNS_8SettingsE4QMapIS1_8QVariantE@Base 1.16.0
 _ZN3qbs7ProfileD1Ev@Base 1.22.0
 _ZN3qbs7ProfileD2Ev@Base 1.22.0
 _ZN3qbs7Project11removeFilesERKNS_11ProductDataERKNS_9GroupDataERK11QStringList@Base 1.3.1
 _ZN3qbs7Project11removeGroupERKNS_11ProductDataERKNS_9GroupDataE@Base 1.3.1
 _ZN3qbs7Project12setupProjectERKNS_22SetupProjectParametersEPNS_8ILogSinkEP7QObject@Base 1.2.1
 _ZN3qbs7Project13dumpNodesTreeER9QIODeviceRK5QListINS_11ProductDataEE@Base 1.4.0
 _ZN3qbs7Project14BuildGraphInfoD1Ev@Base 1.22.0
 _ZN3qbs7Project14BuildGraphInfoD2Ev@Base 1.22.0
 _ZN3qbs7Project16updateTimestampsERK5QListINS_11ProductDataEE@Base 1.2.1
 _ZN3qbs7Project17getBuildGraphInfoERK7QStringRK11QStringList@Base 1.10.0
 _ZN3qbs7Project8addFilesERKNS_11ProductDataERKNS_9GroupDataERK11QStringList@Base 1.3.1
 _ZN3qbs7Project8addGroupERKNS_11ProductDataERK7QString@Base 1.3.1
 _ZN3qbs7ProjectC1ERKS0_@Base 1.2.1
 _ZN3qbs7ProjectC1ERKSt10shared_ptrINS_8Internal15TopLevelProjectEERKNS2_6LoggerE@Base 1.10.0
 _ZN3qbs7ProjectC1Ev@Base 1.2.1
 _ZN3qbs7ProjectC2ERKS0_@Base 1.2.1
 _ZN3qbs7ProjectC2ERKSt10shared_ptrINS_8Internal15TopLevelProjectEERKNS2_6LoggerE@Base 1.10.0
 _ZN3qbs7ProjectC2Ev@Base 1.2.1
 _ZN3qbs7ProjectD1Ev@Base 1.2.1
 _ZN3qbs7ProjectD2Ev@Base 1.2.1
 _ZN3qbs7ProjectaSERKS0_@Base 1.2.1
 _ZN3qbs7Version10fromStringERK7QStringb@Base 1.11.0
 _ZN3qbs8BuildJob11qt_metacallEN11QMetaObject4CallEiPPv@Base 1.2.1
 _ZN3qbs8BuildJob11qt_metacastEPKc@Base 1.2.1
 _ZN3qbs8BuildJob16staticMetaObjectE@Base 1.2.1
 _ZN3qbs8BuildJob19handleLauncherErrorERKNS_9ErrorInfoE@Base 1.8.0
 _ZN3qbs8BuildJob19reportProcessResultERKNS_13ProcessResultE@Base 1.2.1
 _ZN3qbs8BuildJob24reportCommandDescriptionERK7QStringS3_@Base 1.2.1
 _ZN3qbs8BuildJob5buildERKSt10shared_ptrINS_8Internal15TopLevelProjectEERK7QVectorIS1_INS2_15ResolvedProductEEERKNS_12BuildOptionsE@Base 1.16.0
 _ZN3qbs8BuildJob6finishEv@Base 1.8.0
 _ZN3qbs8BuildJobC1ERKNS_8Internal6LoggerEP7QObject@Base 1.2.1
 _ZN3qbs8BuildJobC2ERKNS_8Internal6LoggerEP7QObject@Base 1.2.1
 _ZN3qbs8BuildJobD0Ev@Base 1.22.0
 _ZN3qbs8BuildJobD1Ev@Base 1.22.0
 _ZN3qbs8BuildJobD2Ev@Base 1.22.0
 _ZN3qbs8CleanJob11qt_metacallEN11QMetaObject4CallEiPPv@Base 1.2.1
 _ZN3qbs8CleanJob11qt_metacastEPKc@Base 1.2.1
 _ZN3qbs8CleanJob16staticMetaObjectE@Base 1.2.1
 _ZN3qbs8CleanJob5cleanERKSt10shared_ptrINS_8Internal15TopLevelProjectEERK7QVectorIS1_INS2_15ResolvedProductEEERKNS_12CleanOptionsE@Base 1.16.0
 _ZN3qbs8CleanJobC1ERKNS_8Internal6LoggerEP7QObject@Base 1.2.1
 _ZN3qbs8CleanJobC2ERKNS_8Internal6LoggerEP7QObject@Base 1.2.1
 _ZN3qbs8CleanJobD0Ev@Base 1.22.0
 _ZN3qbs8CleanJobD1Ev@Base 1.22.0
 _ZN3qbs8CleanJobD2Ev@Base 1.22.0
 _ZN3qbs8ILogSink11setLogLevelENS_11LoggerLevelE@Base 1.2.1
 _ZN3qbs8ILogSink12printMessageENS_11LoggerLevelERK7QStringS4_b@Base 1.2.1
 _ZN3qbs8ILogSink12printWarningERKNS_9ErrorInfoE@Base 1.2.1
 _ZN3qbs8ILogSink14doPrintWarningERKNS_9ErrorInfoE@Base 1.2.1
 _ZN3qbs8ILogSinkC1Ev@Base 1.2.1
 _ZN3qbs8ILogSinkC2Ev@Base 1.2.1
 _ZN3qbs8ILogSinkD0Ev@Base 1.2.1
 _ZN3qbs8ILogSinkD1Ev@Base 1.2.1
 _ZN3qbs8ILogSinkD2Ev@Base 1.2.1
 _ZN3qbs8Internal10BinaryFile11qt_metacallEN11QMetaObject4CallEiPPv@Base 1.22.0
 _ZN3qbs8Internal10BinaryFile11qt_metacastEPKc@Base 1.22.0
 _ZN3qbs8Internal10BinaryFile16releaseResourcesEv@Base 1.22.0
 _ZN3qbs8Internal10BinaryFile16staticMetaObjectE@Base 1.22.0
 _ZN3qbs8Internal10BinaryFile4ctorEP14QScriptContextP13QScriptEngine@Base 1.22.0
 _ZN3qbs8Internal10BinaryFile4readEx@Base 1.22.0
 _ZN3qbs8Internal10BinaryFile4seekEx@Base 1.22.0
 _ZN3qbs8Internal10BinaryFile5closeEv@Base 1.22.0
 _ZN3qbs8Internal10BinaryFile5writeERK5QListI8QVariantE@Base 1.22.0
 _ZN3qbs8Internal10BinaryFile6resizeEx@Base 1.22.0
 _ZN3qbs8Internal10BinaryFile8filePathEv@Base 1.22.0
 _ZN3qbs8Internal10BinaryFileC1EP14QScriptContextRK7QStringNS1_8OpenModeE@Base 1.22.0
 _ZN3qbs8Internal10BinaryFileC2EP14QScriptContextRK7QStringNS1_8OpenModeE@Base 1.22.0
 _ZN3qbs8Internal10BinaryFileD0Ev@Base 1.22.0
 _ZN3qbs8Internal10BinaryFileD1Ev@Base 1.22.0
 _ZN3qbs8Internal10BinaryFileD2Ev@Base 1.22.0
 _ZN3qbs8Internal10FileTagger11setPatternsERK11QStringList@Base 1.22.0
 _ZN3qbs8Internal10FileTaggerC1ERK11QStringListNS0_8FileTagsEi@Base 1.22.0
 _ZN3qbs8Internal10FileTaggerC2ERK11QStringListNS0_8FileTagsEi@Base 1.22.0
 _ZN3qbs8Internal10HostOsInfo22canonicalOSIdentifiersERK7QString@Base 1.22.0
 _ZN3qbs8Internal10ItemFinder5visitEPN8QbsQmlJS3AST18UiObjectDefinitionE@Base 1.22.0
 _ZN3qbs8Internal10ItemFinderD0Ev@Base 1.22.0
 _ZN3qbs8Internal10ItemFinderD1Ev@Base 1.22.0
 _ZN3qbs8Internal10ItemFinderD2Ev@Base 1.22.0
 _ZN3qbs8Internal10ItemReader14setSearchPathsERK11QStringList@Base 1.22.0
 _ZN3qbs8Internal10ItemReader15setEnableTimingEb@Base 1.22.0
 _ZN3qbs8Internal10ItemReader19popExtraSearchPathsEv@Base 1.22.0
 _ZN3qbs8Internal10ItemReader20pushExtraSearchPathsERK11QStringList@Base 1.22.0
 _ZN3qbs8Internal10ItemReader24setExtraSearchPathsStackERKSt6vectorI11QStringListSaIS3_EE@Base 1.22.0
 _ZN3qbs8Internal10ItemReader26clearExtraSearchPathsStackEv@Base 1.22.0
 _ZN3qbs8Internal10ItemReader8readFileERK7QString@Base 1.22.0
 _ZN3qbs8Internal10ItemReader8readFileERK7QStringRKNS_12CodeLocationE@Base 1.22.0
 _ZN3qbs8Internal10ItemReaderC1ERNS0_6LoggerE@Base 1.22.0
 _ZN3qbs8Internal10ItemReaderC2ERNS0_6LoggerE@Base 1.22.0
 _ZN3qbs8Internal10ItemReaderD1Ev@Base 1.22.0
 _ZN3qbs8Internal10ItemReaderD2Ev@Base 1.22.0
 _ZN3qbs8Internal10QbsProcess10sendPacketERKNS0_14LauncherPacketE@Base 1.22.0
 _ZN3qbs8Internal10QbsProcess11qt_metacallEN11QMetaObject4CallEiPPv@Base 1.22.0
 _ZN3qbs8Internal10QbsProcess11qt_metacastEPKc@Base 1.22.0
 (subst)_ZN3qbs8Internal10QbsProcess12handlePacketENS0_18LauncherPacketTypeE{quintptr}RK10QByteArray@Base 1.22.0
 _ZN3qbs8Internal10QbsProcess12readAndClearER10QByteArray@Base 1.22.0
 _ZN3qbs8Internal10QbsProcess13errorOccurredEN8QProcess12ProcessErrorE@Base 1.22.0
 _ZN3qbs8Internal10QbsProcess16staticMetaObjectE@Base 1.22.0
 _ZN3qbs8Internal10QbsProcess17handleErrorPacketERK10QByteArray@Base 1.22.0
 _ZN3qbs8Internal10QbsProcess17handleSocketErrorERK7QString@Base 1.22.0
 _ZN3qbs8Internal10QbsProcess17handleSocketReadyEv@Base 1.22.0
 _ZN3qbs8Internal10QbsProcess20handleFinishedPacketERK10QByteArray@Base 1.22.0
 _ZN3qbs8Internal10QbsProcess20readAllStandardErrorEv@Base 1.22.0
 _ZN3qbs8Internal10QbsProcess21readAllStandardOutputEv@Base 1.22.0
 _ZN3qbs8Internal10QbsProcess5startERK7QStringRK11QStringList@Base 1.22.0
 _ZN3qbs8Internal10QbsProcess6cancelEv@Base 1.22.0
 _ZN3qbs8Internal10QbsProcess7doStartEv@Base 1.22.0
 _ZN3qbs8Internal10QbsProcess8finishedEi@Base 1.22.0
 _ZN3qbs8Internal10QbsProcessC1EP7QObject@Base 1.22.0
 _ZN3qbs8Internal10QbsProcessC2EP7QObject@Base 1.22.0
 _ZN3qbs8Internal10QbsProcessD0Ev@Base 1.22.0
 _ZN3qbs8Internal10QbsProcessD1Ev@Base 1.22.0
 _ZN3qbs8Internal10QbsProcessD2Ev@Base 1.22.0
 (optional=templinst|arch=armel armhf i386 mipsel powerpc ppc64 s390x)_ZN3qbs8Internal10TypeFilterINS0_8ArtifactEE14const_iteratorC1ERKNS0_3SetIPNS0_14BuildGraphNodeEEERKN9__gnu_cxx17__normal_iteratorIPKS7_St6vectorIS7_SaIS7_EEEE@Base 1.22.0
 (optional=templinst|arch=armel armhf i386 mipsel powerpc ppc64 s390x)_ZN3qbs8Internal10TypeFilterINS0_8ArtifactEE14const_iteratorC2ERKNS0_3SetIPNS0_14BuildGraphNodeEEERKN9__gnu_cxx17__normal_iteratorIPKS7_St6vectorIS7_SaIS7_EEEE@Base 1.22.0
 (optional=templinst|arch=armel armhf i386 mipsel powerpc ppc64 s390x)_ZN3qbs8Internal10TypeFilterINS0_8RuleNodeEE14const_iteratorC1ERKNS0_3SetIPNS0_14BuildGraphNodeEEERKN9__gnu_cxx17__normal_iteratorIPKS7_St6vectorIS7_SaIS7_EEEE@Base 1.22.0
 (optional=templinst|arch=armel armhf i386 mipsel powerpc ppc64 s390x)_ZN3qbs8Internal10TypeFilterINS0_8RuleNodeEE14const_iteratorC2ERKNS0_3SetIPNS0_14BuildGraphNodeEEERKN9__gnu_cxx17__normal_iteratorIPKS7_St6vectorIS7_SaIS7_EEEE@Base 1.22.0
 _ZN3qbs8Internal10XmlDomNode10firstChildERK7QString@Base 1.22.0
 _ZN3qbs8Internal10XmlDomNode10setTagNameERK7QString@Base 1.22.0
 _ZN3qbs8Internal10XmlDomNode11appendChildERK12QScriptValue@Base 1.22.0
 _ZN3qbs8Internal10XmlDomNode11insertAfterERK12QScriptValueS4_@Base 1.22.0
 _ZN3qbs8Internal10XmlDomNode11qt_metacallEN11QMetaObject4CallEiPPv@Base 1.22.0
 _ZN3qbs8Internal10XmlDomNode11qt_metacastEPKc@Base 1.22.0
 _ZN3qbs8Internal10XmlDomNode11removeChildERK12QScriptValue@Base 1.22.0
 _ZN3qbs8Internal10XmlDomNode12insertBeforeERK12QScriptValueS4_@Base 1.22.0
 _ZN3qbs8Internal10XmlDomNode12replaceChildERK12QScriptValueS4_@Base 1.22.0
 _ZN3qbs8Internal10XmlDomNode12setAttributeERK7QStringS4_@Base 1.22.0
 _ZN3qbs8Internal10XmlDomNode16staticMetaObjectE@Base 1.22.0
 _ZN3qbs8Internal10XmlDomNode4ctorEP14QScriptContextP13QScriptEngine@Base 1.22.0
 _ZN3qbs8Internal10XmlDomNode5clearEv@Base 1.22.0
 _ZN3qbs8Internal10XmlDomNode9attributeERK7QStringS4_@Base 1.22.0
 _ZN3qbs8Internal10XmlDomNodeC1ERK8QDomNode@Base 1.22.0
 _ZN3qbs8Internal10XmlDomNodeC2ERK8QDomNode@Base 1.22.0
 _ZN3qbs8Internal10XmlDomNodeD0Ev@Base 1.22.0
 _ZN3qbs8Internal10XmlDomNodeD1Ev@Base 1.22.0
 _ZN3qbs8Internal10XmlDomNodeD2Ev@Base 1.22.0
 _ZN3qbs8Internal10disconnectEPNS0_14BuildGraphNodeES2_@Base 1.22.0
 _ZN3qbs8Internal10shellQuoteERK11QStringListNS0_10HostOsInfo6HostOsE@Base 1.7.0
 _ZN3qbs8Internal10shellQuoteERK7QStringNS0_10HostOsInfo6HostOsE@Base 1.4.2
 _ZN3qbs8Internal10shellQuoteERK7QStringRK11QStringListNS0_10HostOsInfo6HostOsE@Base 1.4.2
 _ZN3qbs8Internal10shellQuoteERKNSt7__cxx1112basic_stringIcSt11char_traitsIcESaIcEEENS0_10HostOsInfo6HostOsE@Base 1.10.0
 _ZN3qbs8Internal10shellQuoteERKSt6vectorINSt7__cxx1112basic_stringIcSt11char_traitsIcESaIcEEESaIS7_EENS0_10HostOsInfo6HostOsE@Base 1.10.0
 _ZN3qbs8Internal10textViewOfERK7QStringPN8QbsQmlJS3AST4NodeE@Base 1.22.0
 _ZN3qbs8Internal11ClangClInfo18installedCompilersERKSt6vectorI7QStringSaIS3_EERNS0_6LoggerE@Base 1.16.0
 _ZN3qbs8Internal11ClangClInfo20fromCompilerFilePathERK7QStringRNS0_6LoggerE@Base 1.16.0
 _ZN3qbs8Internal11CommandLine10setProgramERK7QStringb@Base 1.7.0
 _ZN3qbs8Internal11CommandLine10setProgramERKNSt7__cxx1112basic_stringIcSt11char_traitsIcESaIcEEEb@Base 1.10.0
 _ZN3qbs8Internal11CommandLine14appendArgumentERK7QString@Base 1.7.0
 _ZN3qbs8Internal11CommandLine14appendArgumentERKNSt7__cxx1112basic_stringIcSt11char_traitsIcESaIcEEE@Base 1.10.0
 _ZN3qbs8Internal11CommandLine14clearArgumentsEv@Base 1.7.0
 _ZN3qbs8Internal11CommandLine15appendArgumentsERK5QListI7QStringE@Base 1.7.0
 _ZN3qbs8Internal11CommandLine17appendRawArgumentERK7QString@Base 1.7.0
 _ZN3qbs8Internal11CommandLine17appendRawArgumentERKNSt7__cxx1112basic_stringIcSt11char_traitsIcESaIcEEE@Base 1.10.0
 _ZN3qbs8Internal11CommandLine18appendPathArgumentERK7QString@Base 1.7.0
 _ZN3qbs8Internal11CommandList4loadERNS0_14PersistentPoolE@Base 1.22.0
 _ZN3qbs8Internal11ExecutorJob11qt_metacallEN11QMetaObject4CallEiPPv@Base 1.22.0
 _ZN3qbs8Internal11ExecutorJob11qt_metacastEPKc@Base 1.22.0
 _ZN3qbs8Internal11ExecutorJob11setEchoModeENS_15CommandEchoModeE@Base 1.22.0
 _ZN3qbs8Internal11ExecutorJob11setFinishedEv@Base 1.22.0
 _ZN3qbs8Internal11ExecutorJob14runNextCommandEv@Base 1.22.0
 _ZN3qbs8Internal11ExecutorJob16staticMetaObjectE@Base 1.22.0
 _ZN3qbs8Internal11ExecutorJob17onCommandFinishedERKNS_9ErrorInfoE@Base 1.22.0
 _ZN3qbs8Internal11ExecutorJob19reportProcessResultERKNS_13ProcessResultE@Base 1.22.0
 _ZN3qbs8Internal11ExecutorJob24reportCommandDescriptionERK7QStringS4_@Base 1.22.0
 _ZN3qbs8Internal11ExecutorJob25setMainThreadScriptEngineEPNS0_12ScriptEngineE@Base 1.22.0
 _ZN3qbs8Internal11ExecutorJob3runEPNS0_11TransformerE@Base 1.22.0
 _ZN3qbs8Internal11ExecutorJob5resetEv@Base 1.22.0
 _ZN3qbs8Internal11ExecutorJob6cancelEv@Base 1.22.0
 _ZN3qbs8Internal11ExecutorJob8finishedERKNS_9ErrorInfoE@Base 1.22.0
 _ZN3qbs8Internal11ExecutorJob9setDryRunEb@Base 1.22.0
 _ZN3qbs8Internal11ExecutorJobC1ERKNS0_6LoggerEP7QObject@Base 1.22.0
 _ZN3qbs8Internal11ExecutorJobC2ERKNS0_6LoggerEP7QObject@Base 1.22.0
 _ZN3qbs8Internal11ExecutorJobD0Ev@Base 1.22.0
 _ZN3qbs8Internal11ExecutorJobD1Ev@Base 1.22.0
 _ZN3qbs8Internal11ExecutorJobD2Ev@Base 1.22.0
 _ZN3qbs8Internal11FileContext13ensureIdScopeEPNS0_8ItemPoolE@Base 1.22.0
 _ZN3qbs8Internal11FileContext6createEv@Base 1.10.0
 _ZN3qbs8Internal11FileContextC1Ev@Base 1.22.0
 _ZN3qbs8Internal11FileContextC2Ev@Base 1.22.0
 _ZN3qbs8Internal11InternalJob11qt_metacallEN11QMetaObject4CallEiPPv@Base 1.22.0
 _ZN3qbs8Internal11InternalJob11qt_metacastEPKc@Base 1.22.0
 _ZN3qbs8Internal11InternalJob12taskProgressEiPS1_@Base 1.22.0
 _ZN3qbs8Internal11InternalJob14newTaskStartedERK7QStringiPS1_@Base 1.22.0
 _ZN3qbs8Internal11InternalJob15storeBuildGraphERKSt10shared_ptrINS0_15TopLevelProjectEE@Base 1.22.0
 _ZN3qbs8Internal11InternalJob16staticMetaObjectE@Base 1.22.0
 _ZN3qbs8Internal11InternalJob17shareObserverWithEPS1_@Base 1.22.0
 _ZN3qbs8Internal11InternalJob18totalEffortChangedEiPS1_@Base 1.22.0
 _ZN3qbs8Internal11InternalJob5startEv@Base 1.22.0
 _ZN3qbs8Internal11InternalJob6cancelEv@Base 1.22.0
 _ZN3qbs8Internal11InternalJob8finishedEPS1_@Base 1.22.0
 _ZN3qbs8Internal11InternalJobC1ENS0_6LoggerEP7QObject@Base 1.22.0
 _ZN3qbs8Internal11InternalJobC2ENS0_6LoggerEP7QObject@Base 1.22.0
 _ZN3qbs8Internal11InternalJobD0Ev@Base 1.22.0
 _ZN3qbs8Internal11InternalJobD1Ev@Base 1.22.0
 _ZN3qbs8Internal11InternalJobD2Ev@Base 1.22.0
 _ZN3qbs8Internal11JobObserver10initializeERK7QStringi@Base 1.22.0
 _ZN3qbs8Internal11JobObserver10setMaximumEi@Base 1.22.0
 _ZN3qbs8Internal11JobObserver13progressValueEv@Base 1.22.0
 _ZN3qbs8Internal11JobObserver16setProgressValueEi@Base 1.22.0
 _ZN3qbs8Internal11JobObserverD0Ev@Base 1.22.0
 _ZN3qbs8Internal11JobObserverD1Ev@Base 1.22.0
 _ZN3qbs8Internal11JobObserverD2Ev@Base 1.22.0
 _ZN3qbs8Internal11PkgConfigJs11qt_metacallEN11QMetaObject4CallEiPPv@Base 1.22.0
 _ZN3qbs8Internal11PkgConfigJs11qt_metacastEPKc@Base 1.22.0
 _ZN3qbs8Internal11PkgConfigJs14convertOptionsERK19QProcessEnvironmentRK4QMapI7QString8QVariantE@Base 1.22.0
 _ZN3qbs8Internal11PkgConfigJs16staticMetaObjectE@Base 1.22.0
 _ZN3qbs8Internal11PkgConfigJs4ctorEP14QScriptContextP13QScriptEngine@Base 1.22.0
 _ZN3qbs8Internal11PkgConfigJsC1EP14QScriptContextP13QScriptEngineRK4QMapI7QString8QVariantE@Base 1.22.0
 _ZN3qbs8Internal11PkgConfigJsC2EP14QScriptContextP13QScriptEngineRK4QMapI7QString8QVariantE@Base 1.22.0
 _ZN3qbs8Internal11PkgConfigJsD0Ev@Base 1.22.0
 _ZN3qbs8Internal11PkgConfigJsD1Ev@Base 1.22.0
 _ZN3qbs8Internal11PkgConfigJsD2Ev@Base 1.22.0
 _ZN3qbs8Internal11QualifiedId10fromStringERK7QString@Base 1.10.0
 _ZN3qbs8Internal11QualifiedIdC1ERK11QStringList@Base 1.10.0
 _ZN3qbs8Internal11QualifiedIdC1ERK7QString@Base 1.10.0
 _ZN3qbs8Internal11QualifiedIdC1Ev@Base 1.10.0
 _ZN3qbs8Internal11QualifiedIdC2ERK11QStringList@Base 1.10.0
 _ZN3qbs8Internal11QualifiedIdC2ERK7QString@Base 1.10.0
 _ZN3qbs8Internal11QualifiedIdC2Ev@Base 1.10.0
 _ZN3qbs8Internal11SVConverter16createExtraScopeEPKNS0_13JSSourceValueEPNS0_4ItemEP12QScriptValue@Base 1.22.0
 (optional=inline)_ZN3qbs8Internal11SVConverter19injectErrorLocationER12QScriptValueRKNS_12CodeLocationE@Base 1.22.0
 _ZN3qbs8Internal11SVConverter21evaluateJSSourceValueEPKNS0_13JSSourceValueEPNS0_4ItemEPKNS2_11AlternativeEPS2_P12QScriptValue@Base 1.22.0
 (optional=inline)_ZN3qbs8Internal11SVConverter24setupConveniencePropertyERK7QStringP12QScriptValueRKS5_@Base 1.22.0
 _ZN3qbs8Internal11SVConverter6handleEPNS0_12VariantValueE@Base 1.22.0
 _ZN3qbs8Internal11SVConverter6handleEPNS0_13JSSourceValueE@Base 1.22.0
 _ZN3qbs8Internal11SVConverter6handleEPNS0_9ItemValueE@Base 1.22.0
 _ZN3qbs8Internal11Transformer11setupInputsE12QScriptValueRKNS0_3SetIPNS0_8ArtifactEEERK7QString@Base 1.22.0
 _ZN3qbs8Internal11Transformer11setupInputsERK12QScriptValue@Base 1.22.0
 _ZN3qbs8Internal11Transformer12setupOutputsE12QScriptValue@Base 1.22.0
 _ZN3qbs8Internal11Transformer14createCommandsEPNS0_12ScriptEngineERKNS0_21PrivateScriptFunctionERK5QListI12QScriptValueE@Base 1.22.0
 _ZN3qbs8Internal11Transformer18translateInOutputsEPNS0_12ScriptEngineERKNS0_3SetIPNS0_8ArtifactEEERK7QString@Base 1.22.0
 _ZN3qbs8Internal11Transformer19translateFileConfigEPNS0_12ScriptEngineEPKNS0_8ArtifactERK7QString@Base 1.22.0
 (optional=templinst)_ZN3qbs8Internal11Transformer23completeSerializationOpILNS0_14PersistentPool6OpTypeE0EEEvRS3_@Base 1.22.0
 (optional=templinst|arch=!mips64el !ppc64 !ppc64el !riscv64 !s390x)_ZN3qbs8Internal11Transformer23completeSerializationOpILNS0_14PersistentPool6OpTypeE1EEEvRS3_@Base 1.22.0
 _ZN3qbs8Internal11Transformer24rescueChangeTrackingDataERKSt10shared_ptrIKS1_E@Base 1.22.0
 _ZN3qbs8Internal11Transformer24setupExplicitlyDependsOnE12QScriptValue@Base 1.22.0
 _ZN3qbs8Internal11Transformer28createCommandFromScriptValueERK12QScriptValueRKNS_12CodeLocationE@Base 1.22.0
 _ZN3qbs8Internal11TransformerC1Ev@Base 1.22.0
 _ZN3qbs8Internal11TransformerC2Ev@Base 1.22.0
 _ZN3qbs8Internal11TransformerD1Ev@Base 1.22.0
 _ZN3qbs8Internal11TransformerD2Ev@Base 1.22.0
 _ZN3qbs8Internal11keyFromElemERKSt10shared_ptrINS0_18ArtifactPropertiesEE@Base 1.22.0
 _ZN3qbs8Internal11keyFromElemERKSt10shared_ptrINS0_22SourceArtifactInternalEE@Base 1.22.0
 _ZN3qbs8Internal11keyFromElemERKSt10shared_ptrINS0_4RuleEE@Base 1.22.0
 _ZN3qbs8Internal11safeConnectEPNS0_8ArtifactES2_@Base 1.22.0
 (optional=templinst)_ZN3qbs8Internal11transformedI11QStringListNS0_3SetIPNS0_8ArtifactEEEZNKS6_12toStringListEvEUlRKS5_E_EET_RKT0_T1_@Base 1.22.0
 _ZN3qbs8Internal12JsExtensions12hasExtensionERK7QString@Base 1.22.0
 _ZN3qbs8Internal12JsExtensions13loadExtensionEP13QScriptEngineRK7QString@Base 1.22.0
 _ZN3qbs8Internal12JsExtensions14extensionNamesEv@Base 1.22.0
 _ZN3qbs8Internal12JsExtensions15setupExtensionsERK11QStringListRK12QScriptValue@Base 1.22.0
 _ZN3qbs8Internal12ModuleLoader10allModulesEPNS0_4ItemE@Base 1.22.0
 _ZN3qbs8Internal12ModuleLoader10loadModuleEPNS1_14ProductContextEPNS0_4ItemES5_RKNS_12CodeLocationERK7QStringRKNS0_11QualifiedIdESB_NS1_12FallbackModeEbPbP4QMapIS9_8QVariantE@Base 1.22.0
 _ZN3qbs8Internal12ModuleLoader11handleGroupEPNS1_14ProductContextEPNS0_4ItemERK5QHashINS0_11QualifiedIdENS0_3SetIS7_EEE@Base 1.22.0
 _ZN3qbs8Internal12ModuleLoader13MultiplexInfo23multiplexIdToVariantMapERK7QString@Base 1.22.0
 _ZN3qbs8Internal12ModuleLoader13MultiplexInfoD1Ev@Base 1.22.0
 _ZN3qbs8Internal12ModuleLoader13MultiplexInfoD2Ev@Base 1.22.0
 _ZN3qbs8Internal12ModuleLoader13handleProductEPNS1_14ProductContextE@Base 1.22.0
 _ZN3qbs8Internal12ModuleLoader13handleProfileEPNS0_4ItemE@Base 1.22.0
 _ZN3qbs8Internal12ModuleLoader13handleProjectEPNS0_18ModuleLoaderResultEPNS1_22TopLevelProjectContextEPNS0_4ItemERKNS0_3SetI7QStringEE@Base 1.22.0
 _ZN3qbs8Internal12ModuleLoader13productModuleEPNS1_14ProductContextERK7QStringS6_Rb@Base 1.22.0
 _ZN3qbs8Internal12ModuleLoader14ProductContextC1ERKS2_@Base 1.22.0
 _ZN3qbs8Internal12ModuleLoader14ProductContextC2ERKS2_@Base 1.22.0
 _ZN3qbs8Internal12ModuleLoader14ProductContextD1Ev@Base 1.22.0
 _ZN3qbs8Internal12ModuleLoader14ProductContextD2Ev@Base 1.22.0
 _ZN3qbs8Internal12ModuleLoader14copyPropertiesEPKNS0_4ItemEPS2_@Base 1.22.0
 _ZN3qbs8Internal12ModuleLoader14loadBaseModuleEPNS1_14ProductContextEPNS0_4ItemE@Base 1.22.0
 _ZN3qbs8Internal12ModuleLoader14loadModuleFileEPNS1_14ProductContextERK7QStringS6_PNS0_4ItemE@Base 1.22.0
 _ZN3qbs8Internal12ModuleLoader14prepareProductEPNS1_14ProjectContextEPNS0_4ItemE@Base 1.22.0
 _ZN3qbs8Internal12ModuleLoader14setSearchPathsERK11QStringList@Base 1.22.0
 _ZN3qbs8Internal12ModuleLoader16handleSubProjectEPNS1_14ProjectContextEPNS0_4ItemERKNS0_3SetI7QStringEE@Base 1.22.0
 _ZN3qbs8Internal12ModuleLoader16loadItemFromFileERK7QStringRKNS_12CodeLocationE@Base 1.22.0
 _ZN3qbs8Internal12ModuleLoader16mergeExportItemsERKNS1_14ProductContextE@Base 1.22.0
 _ZN3qbs8Internal12ModuleLoader17collectAllModulesEPNS0_4ItemEPSt6vectorINS2_6ModuleESaIS5_EE@Base 1.22.0
 _ZN3qbs8Internal12ModuleLoader17instantiateModuleEPNS1_14ProductContextEPNS0_4ItemES5_S5_S5_RKNS0_11QualifiedIdEPNS1_17ProductModuleInfoE@Base 1.22.0
 _ZN3qbs8Internal12ModuleLoader17setStoredProfilesERK4QMapI7QString8QVariantE@Base 1.22.0
 _ZN3qbs8Internal12ModuleLoader18checkItemConditionEPNS0_4ItemES3_@Base 1.22.0
 _ZN3qbs8Internal12ModuleLoader18getModuleFileNamesERK7QString@Base 1.22.0
 _ZN3qbs8Internal12ModuleLoader18getModulePrototypeEPNS1_14ProductContextERK7QStringS6_@Base 1.22.0
 _ZN3qbs8Internal12ModuleLoader18handleProductErrorERKNS_9ErrorInfoEPNS1_14ProductContextE@Base 1.22.0
 _ZN3qbs8Internal12ModuleLoader18handleProfileItemsEPNS0_4ItemEPNS1_14ProjectContextE@Base 1.22.0
 _ZN3qbs8Internal12ModuleLoader18loadReferencedFileERK7QStringRKNS_12CodeLocationERKNS0_3SetIS2_EERNS1_14ProductContextE@Base 1.22.0
 _ZN3qbs8Internal12ModuleLoader18moduleInstanceItemEPNS0_4ItemERKNS0_11QualifiedIdE@Base 1.22.0
 _ZN3qbs8Internal12ModuleLoader18printProfilingInfoEv@Base 1.22.0
 _ZN3qbs8Internal12ModuleLoader18resolveDependsItemEPNS1_14DependsContextEPNS0_4ItemES5_PNS1_14ItemModuleListEPSt6vectorINS0_18ModuleLoaderResult11ProductInfo10DependencyESaISB_EE@Base 1.22.0
 _ZN3qbs8Internal12ModuleLoader19DependsChainManagerC1ERSt6vectorINS1_17DependsChainEntryESaIS4_EERKNS0_11QualifiedIdERKNS_12CodeLocationE@Base 1.22.0
 _ZN3qbs8Internal12ModuleLoader19DependsChainManagerC2ERSt6vectorINS1_17DependsChainEntryESaIS4_EERKNS0_11QualifiedIdERKNS_12CodeLocationE@Base 1.22.0
 _ZN3qbs8Internal12ModuleLoader19collectProfileItemsEPNS0_4ItemEPNS1_14ProjectContextE@Base 1.22.0
 _ZN3qbs8Internal12ModuleLoader19resolveDependenciesEPNS1_14DependsContextEPNS0_4ItemEPNS1_14ProductContextE@Base 1.22.0
 _ZN3qbs8Internal12ModuleLoader19setOldProductProbesERK5QHashI7QStringSt6vectorISt10shared_ptrIKNS0_5ProbeEESaIS8_EEE@Base 1.22.0
 _ZN3qbs8Internal12ModuleLoader19setOldProjectProbesERKSt6vectorISt10shared_ptrIKNS0_5ProbeEESaIS6_EE@Base 1.22.0
 _ZN3qbs8Internal12ModuleLoader19setProgressObserverEPNS0_16ProgressObserverE@Base 1.22.0
 _ZN3qbs8Internal12ModuleLoader20extractMultiplexInfoEPNS0_4ItemES3_@Base 1.22.0
 _ZN3qbs8Internal12ModuleLoader20multiplexProductItemEPNS1_14ProductContextEPNS0_4ItemE@Base 1.22.0
 _ZN3qbs8Internal12ModuleLoader20readExtraSearchPathsEPNS0_4ItemEPb@Base 1.22.0
 _ZN3qbs8Internal12ModuleLoader21collectProductsByNameERKNS1_22TopLevelProjectContextE@Base 1.22.0
 _ZN3qbs8Internal12ModuleLoader21collectProductsByTypeERKNS1_22TopLevelProjectContextE@Base 1.22.0
 _ZN3qbs8Internal12ModuleLoader21evaluateProfileValuesERKNS0_11QualifiedIdEPNS0_4ItemES6_R4QMapI7QString8QVariantE@Base 1.22.0
 _ZN3qbs8Internal12ModuleLoader21handlePropertyOptionsEPNS0_4ItemE@Base 1.22.0
 _ZN3qbs8Internal12ModuleLoader21handleTopLevelProjectEPNS0_18ModuleLoaderResultEPNS0_4ItemERK7QStringRKNS0_3SetIS6_EE@Base 1.22.0
 _ZN3qbs8Internal12ModuleLoader21initProductPropertiesERKNS1_14ProductContextE@Base 1.22.0
 _ZN3qbs8Internal12ModuleLoader21normalizeDependenciesEPNS1_14ProductContextERKNS1_22DeferredDependsContextE@Base 1.22.0
 _ZN3qbs8Internal12ModuleLoader22TopLevelProjectContextD1Ev@Base 1.22.0
 _ZN3qbs8Internal12ModuleLoader22TopLevelProjectContextD2Ev@Base 1.22.0
 _ZN3qbs8Internal12ModuleLoader22createNonPresentModuleERK7QStringS4_PNS0_4ItemE@Base 1.22.0
 _ZN3qbs8Internal12ModuleLoader22createSortedModuleListERKNS0_4Item6ModuleERSt6vectorIS3_SaIS3_EE@Base 1.22.0
 _ZN3qbs8Internal12ModuleLoader22findExistingModulePathERK7QStringRKNS0_11QualifiedIdE@Base 1.22.0
 _ZN3qbs8Internal12ModuleLoader22handleModuleSetupErrorEPNS1_14ProductContextERKNS0_4Item6ModuleERKNS_9ErrorInfoE@Base 1.22.0
 _ZN3qbs8Internal12ModuleLoader22markModuleTargetGroupsEPNS0_4ItemERKNS2_6ModuleE@Base 1.22.0
 _ZN3qbs8Internal12ModuleLoader22overrideItemPropertiesEPNS0_4ItemERK7QStringRK4QMapIS4_8QVariantE@Base 1.22.0
 _ZN3qbs8Internal12ModuleLoader22setScopeForDescendantsEPNS0_4ItemES3_@Base 1.22.0
 _ZN3qbs8Internal12ModuleLoader23collectNameFromOverrideERK7QString@Base 1.22.0
 _ZN3qbs8Internal12ModuleLoader23findExistingModulePathsERK11QStringListRKNS0_11QualifiedIdE@Base 1.22.0
 _ZN3qbs8Internal12ModuleLoader23searchAndLoadModuleFileEPNS1_14ProductContextERKNS_12CodeLocationERKNS0_11QualifiedIdENS1_12FallbackModeEbPNS0_4ItemE@Base 1.22.0
 _ZN3qbs8Internal12ModuleLoader24checkExportItemConditionEPNS0_4ItemERKNS1_14ProductContextE@Base 1.22.0
 _ZN3qbs8Internal12ModuleLoader24setSearchPathsForProductEPNS1_14ProductContextE@Base 1.22.0
 _ZN3qbs8Internal12ModuleLoader24setupBaseModulePrototypeEPNS0_4ItemE@Base 1.22.0
 _ZN3qbs8Internal12ModuleLoader24setupProductDependenciesEPNS1_14ProductContextERKNS0_3SetINS1_22DeferredDependsContextEEE@Base 1.22.0
 _ZN3qbs8Internal12ModuleLoader24wrapInProjectIfNecessaryEPNS0_4ItemE@Base 1.22.0
 _ZN3qbs8Internal12ModuleLoader25ProductSortByDependencies5applyEv@Base 1.22.0
 _ZN3qbs8Internal12ModuleLoader25ProductSortByDependencies8traverseEPNS1_14ProductContextE@Base 1.22.0
 _ZN3qbs8Internal12ModuleLoader25ProductSortByDependencies9findCycleEPNS1_14ProductContextER5QListIS4_E@Base 1.22.0
 _ZN3qbs8Internal12ModuleLoader25ProductSortByDependenciesD1Ev@Base 1.22.0
 _ZN3qbs8Internal12ModuleLoader25ProductSortByDependenciesD2Ev@Base 1.22.0
 _ZN3qbs8Internal12ModuleLoader25addTransitiveDependenciesEPNS1_14ProductContextE@Base 1.22.0
 _ZN3qbs8Internal12ModuleLoader25modulesSortedByDependencyEPKNS0_4ItemE@Base 1.22.0
 _ZN3qbs8Internal12ModuleLoader26propagateModulesFromParentEPNS1_14ProductContextEPNS0_4ItemERK5QHashINS0_11QualifiedIdENS0_3SetIS7_EEE@Base 1.22.0
 _ZN3qbs8Internal12ModuleLoader27setStoredModuleProviderInfoERKNS0_24StoredModuleProviderInfoE@Base 1.22.0
 _ZN3qbs8Internal12ModuleLoader28addProductModuleDependenciesEPNS1_14ProductContextE@Base 1.22.0
 _ZN3qbs8Internal12ModuleLoader28addProductModuleDependenciesEPNS1_14ProductContextERK7QString@Base 1.22.0
 _ZN3qbs8Internal12ModuleLoader28checkProductNamesInOverridesEv@Base 1.22.0
 _ZN3qbs8Internal12ModuleLoader28checkProjectNamesInOverridesERKNS1_22TopLevelProjectContextE@Base 1.22.0
 _ZN3qbs8Internal12ModuleLoader28forwardParameterDeclarationsEPKNS0_4ItemERKNS1_14ItemModuleListE@Base 1.22.0
 _ZN3qbs8Internal12ModuleLoader28forwardParameterDeclarationsERKNS0_11QualifiedIdEPNS0_4ItemERKNS1_14ItemModuleListE@Base 1.22.0
 _ZN3qbs8Internal12ModuleLoader28resolveParameterDeclarationsEPKNS0_4ItemE@Base 1.22.0
 _ZN3qbs8Internal12ModuleLoader29copyGroupsFromModuleToProductERKNS1_14ProductContextERKNS0_4Item6ModuleEPKS5_@Base 1.22.0
 _ZN3qbs8Internal12ModuleLoader29handleAllPropertyOptionsItemsEPNS0_4ItemE@Base 1.22.0
 _ZN3qbs8Internal12ModuleLoader30copyGroupsFromModulesToProductERKNS1_14ProductContextE@Base 1.22.0
 _ZN3qbs8Internal12ModuleLoader30setupReverseModuleDependenciesEPKNS0_4ItemE@Base 1.22.0
 _ZN3qbs8Internal12ModuleLoader30setupReverseModuleDependenciesERKNS0_4Item6ModuleER5QHashINS0_11QualifiedIdENS0_3SetIS7_EEERS9_@Base 1.22.0
 _ZN3qbs8Internal12ModuleLoader31moduleRepresentsDisabledProductERKNS0_4Item6ModuleE@Base 1.22.0
 _ZN3qbs8Internal12ModuleLoader32gatherModulePropertiesSetInGroupEPKNS0_4ItemE@Base 1.22.0
 _ZN3qbs8Internal12ModuleLoader33adjustDependenciesForMultiplexingERKNS1_14ProductContextE@Base 1.22.0
 _ZN3qbs8Internal12ModuleLoader33adjustDependenciesForMultiplexingERKNS1_14ProductContextEPNS0_4ItemE@Base 1.22.0
 _ZN3qbs8Internal12ModuleLoader33adjustDependenciesForMultiplexingERKNS1_22TopLevelProjectContextE@Base 1.22.0
 _ZN3qbs8Internal12ModuleLoader41adjustDefiningItemsInGroupModuleInstancesERKNS0_4Item6ModuleERKSt6vectorIS3_SaIS3_EE@Base 1.22.0
 _ZN3qbs8Internal12ModuleLoader4dumpERKNS1_13MultiplexInfoE@Base 1.22.0
 _ZN3qbs8Internal12ModuleLoader4loadERKNS_22SetupProjectParametersE@Base 1.22.0
 _ZN3qbs8Internal12ModuleLoader7combineERKSt6vectorIS2_ISt10shared_ptrINS0_12VariantValueEESaIS5_EESaIS7_EERKS7_@Base 1.22.0
 _ZN3qbs8Internal12ModuleLoader7productEPNS1_14ProjectContextERK7QString@Base 1.22.0
 _ZN3qbs8Internal12ModuleLoader7productEPNS1_22TopLevelProjectContextERK7QString@Base 1.22.0
 _ZN3qbs8Internal12ModuleLoaderC1EPNS0_9EvaluatorERNS0_6LoggerE@Base 1.22.0
 _ZN3qbs8Internal12ModuleLoaderC2EPNS0_9EvaluatorERNS0_6LoggerE@Base 1.22.0
 _ZN3qbs8Internal12ModuleLoaderD1Ev@Base 1.22.0
 _ZN3qbs8Internal12ModuleLoaderD2Ev@Base 1.22.0
 _ZN3qbs8Internal12ModuleMerger10findModuleEPKNS0_4ItemERKNS0_11QualifiedIdE@Base 1.22.0
 _ZN3qbs8Internal12ModuleMerger11mergeModuleEP4QMapI7QStringSt10shared_ptrINS0_5ValueEEERKNS0_4Item6ModuleE@Base 1.22.0
 _ZN3qbs8Internal12ModuleMerger15lastInNextChainERKSt10shared_ptrINS0_5ValueEE@Base 1.22.0
 _ZN3qbs8Internal12ModuleMerger19replaceItemInValuesENS0_11QualifiedIdEPNS0_4ItemES4_@Base 1.22.0
 _ZN3qbs8Internal12ModuleMerger31appendPrototypeValueToNextChainEPNS0_4ItemERK7QStringRKSt10shared_ptrINS0_5ValueEE@Base 1.22.0
 _ZN3qbs8Internal12ModuleMerger5mergeERNS0_6LoggerEPNS0_4ItemERK7QStringPSt6vectorINS4_6ModuleESaISA_EE@Base 1.22.0
 _ZN3qbs8Internal12ModuleMerger5startEv@Base 1.22.0
 _ZN3qbs8Internal12ModuleMergerC1ERNS0_6LoggerEPNS0_4ItemERK7QStringRKN9__gnu_cxx17__normal_iteratorIPNS4_6ModuleESt6vectorISB_SaISB_EEEESI_@Base 1.22.0
 _ZN3qbs8Internal12ModuleMergerC2ERNS0_6LoggerEPNS0_4ItemERK7QStringRKN9__gnu_cxx17__normal_iteratorIPNS4_6ModuleESt6vectorISB_SaISB_EEEESI_@Base 1.22.0
 _ZN3qbs8Internal12PacketParser5parseEv@Base 1.22.0
 _ZN3qbs8Internal12PacketParser9setDeviceEP9QIODevice@Base 1.22.0
 _ZN3qbs8Internal12QtMocScanner23findIncludedMocCppFilesEv@Base 1.22.0
 _ZN3qbs8Internal12QtMocScanner5applyEP13QScriptEnginePKNS0_8ArtifactE@Base 1.22.0
 _ZN3qbs8Internal12QtMocScanner8js_applyEP14QScriptContextP13QScriptEnginePS1_@Base 1.22.0
 _ZN3qbs8Internal12QtMocScannerC1ERKSt10shared_ptrINS0_15ResolvedProductEE12QScriptValue@Base 1.22.0
 _ZN3qbs8Internal12QtMocScannerC2ERKSt10shared_ptrINS0_15ResolvedProductEE12QScriptValue@Base 1.22.0
 _ZN3qbs8Internal12QtMocScannerD1Ev@Base 1.22.0
 _ZN3qbs8Internal12QtMocScannerD2Ev@Base 1.22.0
 _ZN3qbs8Internal12RuleArtifact7BindingD1Ev@Base 1.22.0
 _ZN3qbs8Internal12RuleArtifact7BindingD2Ev@Base 1.22.0
 _ZN3qbs8Internal12RuleArtifactD1Ev@Base 1.22.0
 _ZN3qbs8Internal12RuleArtifactD2Ev@Base 1.22.0
 _ZN3qbs8Internal12ScriptEngine10importFileERK7QStringR12QScriptValue@Base 1.10.0
 _ZN3qbs8Internal12ScriptEngine10js_requireEP14QScriptContextP13QScriptEngine@Base 1.10.0
 _ZN3qbs8Internal12ScriptEngine11js_loadFileEP14QScriptContextP13QScriptEngine@Base 1.10.0
 _ZN3qbs8Internal12ScriptEngine11qt_metacallEN11QMetaObject4CallEiPPv@Base 1.10.0
 _ZN3qbs8Internal12ScriptEngine11qt_metacastEPKc@Base 1.10.0
 _ZN3qbs8Internal12ScriptEngine12argumentListERK11QStringListRK12QScriptValue@Base 1.10.0
 _ZN3qbs8Internal12ScriptEngine12checkContextERK7QStringRKSt6vectorINS0_14DubiousContextESaIS6_EE@Base 1.10.0
 _ZN3qbs8Internal12ScriptEngine13observeImportER12QScriptValue@Base 1.11.0
 _ZN3qbs8Internal12ScriptEngine14definePropertyER12QScriptValueRK7QStringRKS2_@Base 1.10.0
 _ZN3qbs8Internal12ScriptEngine14setEnvironmentERK19QProcessEnvironment@Base 1.10.0
 _ZN3qbs8Internal12ScriptEngine15enableProfilingEb@Base 1.10.0
 _ZN3qbs8Internal12ScriptEngine15installFunctionERK7QStringiP12QScriptValuePFS5_P14QScriptContextP13QScriptEngineES6_@Base 1.10.0
 _ZN3qbs8Internal12ScriptEngine16PropertyCacheKeyC1E7QStringS3_St10shared_ptrIKNS0_19PropertyMapInternalEE@Base 1.14.1
 _ZN3qbs8Internal12ScriptEngine16PropertyCacheKeyC2E7QStringS3_St10shared_ptrIKNS0_19PropertyMapInternalEE@Base 1.14.1
 _ZN3qbs8Internal12ScriptEngine16PropertyCacheKeyD1Ev@Base 1.22.0
 _ZN3qbs8Internal12ScriptEngine16PropertyCacheKeyD2Ev@Base 1.22.0
 _ZN3qbs8Internal12ScriptEngine16js_loadExtensionEP14QScriptContextP13QScriptEngine@Base 1.10.0
 _ZN3qbs8Internal12ScriptEngine16staticMetaObjectE@Base 1.10.0
 _ZN3qbs8Internal12ScriptEngine17clearImportsCacheEv@Base 1.10.0
 _ZN3qbs8Internal12ScriptEngine18addToPropertyCacheERK7QStringS4_RKSt10shared_ptrIKNS0_19PropertyMapInternalEERK8QVariant@Base 1.10.0
 _ZN3qbs8Internal12ScriptEngine18installQbsBuiltinsEv@Base 1.10.0
 _ZN3qbs8Internal12ScriptEngine18installQbsFunctionERK7QStringiPF12QScriptValueP14QScriptContextP13QScriptEngineE@Base 1.10.0
 _ZN3qbs8Internal12ScriptEngine19addFileExistsResultERK7QStringb@Base 1.10.0
 _ZN3qbs8Internal12ScriptEngine19setObservedPropertyER12QScriptValueRK7QStringRKS2_@Base 1.12.0
 _ZN3qbs8Internal12ScriptEngine19unobservePropertiesEv@Base 1.11.0
 _ZN3qbs8Internal12ScriptEngine21setDeprecatedPropertyER12QScriptValueRK7QStringS6_RKS2_@Base 1.10.0
 _ZN3qbs8Internal12ScriptEngine22installConsoleFunctionERK7QStringPF12QScriptValueP14QScriptContextP13QScriptEnginePNS0_6LoggerEE@Base 1.10.0
 _ZN3qbs8Internal12ScriptEngine22installImportFunctionsEv@Base 1.10.0
 _ZN3qbs8Internal12ScriptEngine24extendJavaScriptBuiltinsEv@Base 1.10.0
 _ZN3qbs8Internal12ScriptEngine24uninstallImportFunctionsEv@Base 1.10.0
 _ZN3qbs8Internal12ScriptEngine25addDirectoryEntriesResultERK7QString6QFlagsIN4QDir6FilterEERK11QStringList@Base 1.10.0
 _ZN3qbs8Internal12ScriptEngine25addFileLastModifiedResultERK7QStringRKNS0_8FileTimeE@Base 1.10.0
 _ZN3qbs8Internal12ScriptEngine25retrieveFromPropertyCacheERK7QStringS4_RKSt10shared_ptrIKNS0_19PropertyMapInternalEE@Base 1.10.0
 _ZN3qbs8Internal12ScriptEngine26addCanonicalFilePathResultERK7QStringS4_@Base 1.10.0
 _ZN3qbs8Internal12ScriptEngine26addImportRequestedInScriptEx@Base 1.11.0
 _ZN3qbs8Internal12ScriptEngine26m_creationDestructionMutexE@Base 1.11.0
 _ZN3qbs8Internal12ScriptEngine28setModulePropertyScriptClassEP12QScriptClass@Base 1.10.0
 _ZN3qbs8Internal12ScriptEngine31releaseResourcesOfScriptObjectsEv@Base 1.10.0
 _ZN3qbs8Internal12ScriptEngine32addPropertyRequestedFromArtifactEPKNS0_8ArtifactERKNS0_8PropertyE@Base 1.10.0
 _ZN3qbs8Internal12ScriptEngine32addResourceAcquiringScriptObjectEPNS0_29ResourceAcquiringScriptObjectE@Base 1.10.0
 _ZN3qbs8Internal12ScriptEngine5abortEv@Base 1.10.0
 _ZN3qbs8Internal12ScriptEngine6cancelEv@Base 1.10.0
 _ZN3qbs8Internal12ScriptEngine6createERNS0_6LoggerENS0_11EvalContextE@Base 1.22.0
 _ZN3qbs8Internal12ScriptEngine6importERKNS0_8JsImportER12QScriptValue@Base 1.10.0
 _ZN3qbs8Internal12ScriptEngine6importERKSt10shared_ptrIKNS0_15FileContextBaseEER12QScriptValueNS0_11ObserveModeE@Base 1.11.0
 _ZN3qbs8Internal12ScriptEngineC1ERNS0_6LoggerENS0_11EvalContextENS1_10PrivateTagE@Base 1.22.0
 _ZN3qbs8Internal12ScriptEngineC2ERNS0_6LoggerENS0_11EvalContextENS1_10PrivateTagE@Base 1.22.0
 _ZN3qbs8Internal12ScriptEngineD0Ev@Base 1.10.0
 _ZN3qbs8Internal12ScriptEngineD1Ev@Base 1.10.0
 _ZN3qbs8Internal12ScriptEngineD2Ev@Base 1.10.0
 _ZN3qbs8Internal12TemporaryDir11qt_metacallEN11QMetaObject4CallEiPPv@Base 1.22.0
 _ZN3qbs8Internal12TemporaryDir11qt_metacastEPKc@Base 1.22.0
 _ZN3qbs8Internal12TemporaryDir16staticMetaObjectE@Base 1.22.0
 _ZN3qbs8Internal12TemporaryDir4ctorEP14QScriptContextP13QScriptEngine@Base 1.22.0
 _ZN3qbs8Internal12TemporaryDir6removeEv@Base 1.22.0
 _ZN3qbs8Internal12TemporaryDirC1EP14QScriptContext@Base 1.22.0
 _ZN3qbs8Internal12TemporaryDirC2EP14QScriptContext@Base 1.22.0
 _ZN3qbs8Internal12TemporaryDirD0Ev@Base 1.22.0
 _ZN3qbs8Internal12TemporaryDirD1Ev@Base 1.22.0
 _ZN3qbs8Internal12TemporaryDirD2Ev@Base 1.22.0
 _ZN3qbs8Internal12VariantValue10falseValueEv@Base 1.22.0
 _ZN3qbs8Internal12VariantValue12invalidValueEv@Base 1.22.0
 _ZN3qbs8Internal12VariantValue5applyEPNS0_12ValueHandlerE@Base 1.22.0
 _ZN3qbs8Internal12VariantValue6createERK8QVariant@Base 1.22.0
 _ZN3qbs8Internal12VariantValue9trueValueEv@Base 1.22.0
 _ZN3qbs8Internal12VariantValueC1E8QVariant@Base 1.22.0
 _ZN3qbs8Internal12VariantValueC2E8QVariant@Base 1.22.0
 _ZN3qbs8Internal12VariantValueD0Ev@Base 1.22.0
 _ZN3qbs8Internal12VariantValueD1Ev@Base 1.22.0
 _ZN3qbs8Internal12VariantValueD2Ev@Base 1.22.0
 _ZN3qbs8Internal12lcBuildGraphEv@Base 1.22.0
 _ZN3qbs8Internal12toStringListEPN8QbsQmlJS3AST13UiQualifiedIdE@Base 1.22.0
 _ZN3qbs8Internal13CycleDetector12visitProductERKSt10shared_ptrIKNS0_15ResolvedProductEE@Base 1.10.0
 _ZN3qbs8Internal13CycleDetector12visitProjectERKSt10shared_ptrIKNS0_15TopLevelProjectEE@Base 1.10.0
 _ZN3qbs8Internal13CycleDetector5cycleEPNS0_14BuildGraphNodeE@Base 1.10.0
 _ZN3qbs8Internal13CycleDetector5visitEPNS0_8ArtifactE@Base 1.10.0
 _ZN3qbs8Internal13CycleDetector5visitEPNS0_8RuleNodeE@Base 1.10.0
 _ZN3qbs8Internal13CycleDetector9visitNodeEPNS0_14BuildGraphNodeE@Base 1.10.0
 _ZN3qbs8Internal13CycleDetectorC1ENS0_6LoggerE@Base 1.14.1
 _ZN3qbs8Internal13CycleDetectorC2ENS0_6LoggerE@Base 1.14.1
 _ZN3qbs8Internal13CycleDetectorD0Ev@Base 1.22.0
 _ZN3qbs8Internal13CycleDetectorD1Ev@Base 1.22.0
 _ZN3qbs8Internal13CycleDetectorD2Ev@Base 1.22.0
 _ZN3qbs8Internal13JSSourceValue11AlternativeD1Ev@Base 1.22.0
 _ZN3qbs8Internal13JSSourceValue11AlternativeD2Ev@Base 1.22.0
 _ZN3qbs8Internal13JSSourceValue11setLocationEii@Base 1.22.0
 _ZN3qbs8Internal13JSSourceValue15setDefiningItemEPNS0_4ItemE@Base 1.22.0
 _ZN3qbs8Internal13JSSourceValue17clearAlternativesEv@Base 1.22.0
 _ZN3qbs8Internal13JSSourceValue18setHasFunctionFormEb@Base 1.22.0
 _ZN3qbs8Internal13JSSourceValue5applyEPNS0_12ValueHandlerE@Base 1.22.0
 _ZN3qbs8Internal13JSSourceValue6createEb@Base 1.10.0
 _ZN3qbs8Internal13JSSourceValueC1ERKS1_@Base 1.22.0
 _ZN3qbs8Internal13JSSourceValueC1Eb@Base 1.22.0
 _ZN3qbs8Internal13JSSourceValueC2ERKS1_@Base 1.22.0
 _ZN3qbs8Internal13JSSourceValueC2Eb@Base 1.22.0
 _ZN3qbs8Internal13JSSourceValueD0Ev@Base 1.22.0
 _ZN3qbs8Internal13JSSourceValueD1Ev@Base 1.22.0
 _ZN3qbs8Internal13JSSourceValueD2Ev@Base 1.22.0
 (optional=implicit)_ZN3qbs8Internal13RawScanResultC1ERKS1_@Base 1.22.0
 (optional=implicit)_ZN3qbs8Internal13RawScanResultC2ERKS1_@Base 1.22.0
 _ZN3qbs8Internal13ResolvedGroup4loadERNS0_14PersistentPoolE@Base 1.10.0
 _ZN3qbs8Internal13ResolvedGroup5storeERNS0_14PersistentPoolE@Base 1.12.0
 _ZN3qbs8Internal13ResolvedGroupD1Ev@Base 1.22.0
 _ZN3qbs8Internal13ResolvedGroupD2Ev@Base 1.22.0
 (optional=templinst)_ZN3qbs8Internal13toScriptValueI11QStringListEE12QScriptValueP13QScriptEngineRKT_@Base 1.22.0
 _ZN3qbs8Internal14BuildGraphNode14acceptChildrenEPNS0_17BuildGraphVisitorE@Base 1.22.0
 _ZN3qbs8Internal14BuildGraphNode19onChildDisconnectedEPS1_@Base 1.22.0
 _ZN3qbs8Internal14BuildGraphNode4loadERNS0_14PersistentPoolE@Base 1.22.0
 _ZN3qbs8Internal14BuildGraphNode5storeERNS0_14PersistentPoolE@Base 1.22.0
 _ZN3qbs8Internal14BuildGraphNodeC1Ev@Base 1.22.0
 _ZN3qbs8Internal14BuildGraphNodeC2Ev@Base 1.22.0
 _ZN3qbs8Internal14BuildGraphNodeD0Ev@Base 1.22.0
 _ZN3qbs8Internal14BuildGraphNodeD1Ev@Base 1.22.0
 _ZN3qbs8Internal14BuildGraphNodeD2Ev@Base 1.22.0
 (optional=inline)_ZN3qbs8Internal14CleanupVisitor12visitProductERKSt10shared_ptrINS0_15ResolvedProductEE@Base 1.22.0
 _ZN3qbs8Internal14CleanupVisitor7doVisitEPNS0_8ArtifactE@Base 1.22.0
 _ZN3qbs8Internal14CleanupVisitorD0Ev@Base 1.22.0
 _ZN3qbs8Internal14CleanupVisitorD1Ev@Base 1.22.0
 _ZN3qbs8Internal14CleanupVisitorD2Ev@Base 1.22.0
 (optional=templinst)_ZN3qbs8Internal14ExportedModule23completeSerializationOpILNS0_14PersistentPool6OpTypeE0EEEvRS3_@Base 1.22.0
 (optional=templinst)_ZN3qbs8Internal14ExportedModule23completeSerializationOpILNS0_14PersistentPool6OpTypeE1EEEvRS3_@Base 1.22.0
 _ZN3qbs8Internal14ExportedModuleC1ERKS1_@Base 1.22.0
 _ZN3qbs8Internal14ExportedModuleC2ERKS1_@Base 1.22.0
 _ZN3qbs8Internal14ExportedModuleD1Ev@Base 1.22.0
 _ZN3qbs8Internal14ExportedModuleD2Ev@Base 1.22.0
 _ZN3qbs8Internal14FileDependencyC1Ev@Base 1.22.0
 _ZN3qbs8Internal14FileDependencyC2Ev@Base 1.22.0
 _ZN3qbs8Internal14FileDependencyD0Ev@Base 1.22.0
 _ZN3qbs8Internal14FileDependencyD1Ev@Base 1.22.0
 _ZN3qbs8Internal14FileDependencyD2Ev@Base 1.22.0
 _ZN3qbs8Internal14JSTypeExtender11addFunctionERK7QStringS4_@Base 1.22.0
 (optional=inline)_ZN3qbs8Internal14JSTypeExtenderC1EPNS0_12ScriptEngineERK7QString@Base 1.22.0
 (optional=inline)_ZN3qbs8Internal14JSTypeExtenderC2EPNS0_12ScriptEngineERK7QString@Base 1.22.0
 _ZN3qbs8Internal14LauncherPacket11deserializeERK10QByteArray@Base 1.22.0
 _ZN3qbs8Internal14LauncherPacketD0Ev@Base 1.22.0
 _ZN3qbs8Internal14LauncherPacketD1Ev@Base 1.22.0
 _ZN3qbs8Internal14LauncherPacketD2Ev@Base 1.22.0
 _ZN3qbs8Internal14LauncherSocket11handleErrorERK7QString@Base 1.22.0
 _ZN3qbs8Internal14LauncherSocket11qt_metacallEN11QMetaObject4CallEiPPv@Base 1.22.0
 _ZN3qbs8Internal14LauncherSocket11qt_metacastEPKc@Base 1.22.0
 _ZN3qbs8Internal14LauncherSocket13errorOccurredERK7QString@Base 1.22.0
 (subst)_ZN3qbs8Internal14LauncherSocket13packetArrivedENS0_18LauncherPacketTypeE{quintptr}RK10QByteArray@Base 1.22.0
 _ZN3qbs8Internal14LauncherSocket14handleRequestsEv@Base 1.22.0
 _ZN3qbs8Internal14LauncherSocket16staticMetaObjectE@Base 1.22.0
 _ZN3qbs8Internal14LauncherSocket17handleSocketErrorEv@Base 1.22.0
 _ZN3qbs8Internal14LauncherSocket24handleSocketDisconnectedEv@Base 1.22.0
 _ZN3qbs8Internal14LauncherSocket25handleSocketDataAvailableEv@Base 1.22.0
 _ZN3qbs8Internal14LauncherSocket5readyEv@Base 1.22.0
 _ZN3qbs8Internal14LauncherSocket8sendDataERK10QByteArray@Base 1.22.0
 _ZN3qbs8Internal14LauncherSocket8shutdownEv@Base 1.22.0
 _ZN3qbs8Internal14LauncherSocket9setSocketEP12QLocalSocket@Base 1.22.0
 _ZN3qbs8Internal14LauncherSocketC1EP7QObject@Base 1.22.0
 _ZN3qbs8Internal14LauncherSocketC2EP7QObject@Base 1.22.0
 _ZN3qbs8Internal14LauncherSocketD0Ev@Base 1.22.0
 _ZN3qbs8Internal14LauncherSocketD1Ev@Base 1.22.0
 _ZN3qbs8Internal14LauncherSocketD2Ev@Base 1.22.0
 _ZN3qbs8Internal14NodeTreeDumper10doEndVisitEv@Base 1.22.0
 _ZN3qbs8Internal14NodeTreeDumper5startERK7QVectorISt10shared_ptrINS0_15ResolvedProductEEE@Base 1.22.0
 _ZN3qbs8Internal14NodeTreeDumper5visitEPNS0_8ArtifactE@Base 1.22.0
 _ZN3qbs8Internal14NodeTreeDumper5visitEPNS0_8RuleNodeE@Base 1.22.0
 _ZN3qbs8Internal14NodeTreeDumper6indentEv@Base 1.22.0
 _ZN3qbs8Internal14NodeTreeDumper7doVisitEPNS0_14BuildGraphNodeERK7QString@Base 1.22.0
 _ZN3qbs8Internal14NodeTreeDumper8endVisitEPNS0_8ArtifactE@Base 1.22.0
 _ZN3qbs8Internal14NodeTreeDumper8endVisitEPNS0_8RuleNodeE@Base 1.22.0
 _ZN3qbs8Internal14NodeTreeDumper8unindentEv@Base 1.22.0
 _ZN3qbs8Internal14NodeTreeDumperC1ER9QIODevice@Base 1.22.0
 _ZN3qbs8Internal14NodeTreeDumperC2ER9QIODevice@Base 1.22.0
 _ZN3qbs8Internal14NodeTreeDumperD0Ev@Base 1.22.0
 _ZN3qbs8Internal14NodeTreeDumperD1Ev@Base 1.22.0
 _ZN3qbs8Internal14NodeTreeDumperD2Ev@Base 1.22.0
 _ZN3qbs8Internal14PersistentPool11doLoadValueER11QStringList@Base 1.22.0
 _ZN3qbs8Internal14PersistentPool11doLoadValueER19QProcessEnvironment@Base 1.22.0
 _ZN3qbs8Internal14PersistentPool11doLoadValueER7QString@Base 1.22.0
 (optional=templinst)_ZN3qbs8Internal14PersistentPool11idLoadValueI11QStringListEET_v@Base 1.22.0
 (optional=templinst)_ZN3qbs8Internal14PersistentPool11idLoadValueI19QProcessEnvironmentEET_v@Base 1.22.0
 (optional=templinst)_ZN3qbs8Internal14PersistentPool11idLoadValueI7QStringEET_v@Base 1.22.0
 _ZN3qbs8Internal14PersistentPool11loadVariantEv@Base 1.22.0
 _ZN3qbs8Internal14PersistentPool12EmptyValueIdE@Base 1.22.0
 _ZN3qbs8Internal14PersistentPool12doStoreValueERK11QStringList@Base 1.22.0
 _ZN3qbs8Internal14PersistentPool12doStoreValueERK19QProcessEnvironment@Base 1.22.0
 _ZN3qbs8Internal14PersistentPool12doStoreValueERK7QString@Base 1.22.0
 (optional=templinst)_ZN3qbs8Internal14PersistentPool12idStoreValueI11QStringListEEvRKT_@Base 1.22.0
 (optional=templinst)_ZN3qbs8Internal14PersistentPool12idStoreValueI19QProcessEnvironmentEEvRKT_@Base 1.22.0
 (optional=templinst)_ZN3qbs8Internal14PersistentPool12idStoreValueI7QStringEEvRKT_@Base 1.22.0
 _ZN3qbs8Internal14PersistentPool12storeVariantERK8QVariant@Base 1.22.0
 _ZN3qbs8Internal14PersistentPool15ValueNotFoundIdE@Base 1.22.0
 _ZN3qbs8Internal14PersistentPool16setupWriteStreamERK7QString@Base 1.22.0
 (optional=templinst)_ZN3qbs8Internal14PersistentPool17storeSharedObjectINS0_14ResolvedModuleEEEvPKT_@Base 1.22.0
 (optional=templinst)_ZN3qbs8Internal14PersistentPool17storeSharedObjectINS0_14ScriptFunctionEEEvPKT_@Base 1.22.0
 (optional=templinst)_ZN3qbs8Internal14PersistentPool17storeSharedObjectINS0_19PropertyMapInternalEEEvPKT_@Base 1.22.0
 _ZN3qbs8Internal14PersistentPool19finalizeWriteStreamEv@Base 1.22.0
 _ZN3qbs8Internal14PersistentPool4loadERK7QString@Base 1.22.0
 (optional=templinst)_ZN3qbs8Internal14PersistentPool4loadI7QStringEET_v@Base 1.22.0
 (optional=templinst|arch=mips64el ppc64 ppc64el riscv64 s390x)_ZN3qbs8Internal14PersistentPool4loadIJSt10shared_ptrIKNS0_4RuleEENS0_3SetIPNS0_8ArtifactEEESA_SA_NS7_INS0_8PropertyEEESC_5QHashI7QStringSC_ESF_St6vectorISE_SaISE_EESI_NS0_21RequestedDependenciesESJ_NS0_11CommandListENS0_18RequestedArtifactsESL_NS0_8FileTimeESM_St13unordered_mapISE_NS0_14ExportedModuleESt4hashISE_ESt8equal_toISE_ESaISt4pairIKSE_SO_EEESX_bbbbEEEvDpRT_@Base 1.22.0
 _ZN3qbs8Internal14PersistentPool5clearEv@Base 1.22.0
 (optional=templinst)_ZN3qbs8Internal14PersistentPool6idLoadINS0_15SourceWildCardsEEEPT_v@Base 1.22.0
 (optional=templinst)_ZN3qbs8Internal14PersistentPool7idLoadSINS0_10FileTaggerEEESt10shared_ptrIT_Ev@Base 1.22.0
 (optional=templinst)_ZN3qbs8Internal14PersistentPool7idLoadSINS0_11TransformerEEESt10shared_ptrIT_Ev@Base 1.22.0
 (optional=templinst)_ZN3qbs8Internal14PersistentPool7idLoadSINS0_12ExportedItemEEESt10shared_ptrIT_Ev@Base 1.22.0
 (optional=templinst)_ZN3qbs8Internal14PersistentPool7idLoadSINS0_12RuleArtifactEEESt10shared_ptrIT_Ev@Base 1.22.0
 (optional=templinst|arch=amd64 arm64 armel riscv64)_ZN3qbs8Internal14PersistentPool7idLoadSINS0_13ResolvedGroupEEESt10shared_ptrIT_Ev@Base 1.22.0
 (optional=templinst)_ZN3qbs8Internal14PersistentPool7idLoadSINS0_14ProcessCommandEEESt10shared_ptrIT_Ev@Base 1.22.0
 (optional=templinst)_ZN3qbs8Internal14PersistentPool7idLoadSINS0_14ResolvedModuleEEESt10shared_ptrIT_Ev@Base 1.22.0
 (optional=templinst)_ZN3qbs8Internal14PersistentPool7idLoadSINS0_14ScriptFunctionEEESt10shared_ptrIT_Ev@Base 1.22.0
 (optional=templinst)_ZN3qbs8Internal14PersistentPool7idLoadSINS0_15ResolvedProductEEESt10shared_ptrIT_Ev@Base 1.22.0
 (optional=templinst)_ZN3qbs8Internal14PersistentPool7idLoadSINS0_15ResolvedProjectEEESt10shared_ptrIT_Ev@Base 1.22.0
 (optional=templinst)_ZN3qbs8Internal14PersistentPool7idLoadSINS0_15ResolvedScannerEEESt10shared_ptrIT_Ev@Base 1.22.0
 (optional=templinst)_ZN3qbs8Internal14PersistentPool7idLoadSINS0_17JavaScriptCommandEEESt10shared_ptrIT_Ev@Base 1.22.0
 (optional=templinst)_ZN3qbs8Internal14PersistentPool7idLoadSINS0_19PropertyMapInternalEEESt10shared_ptrIT_Ev@Base 1.22.0
 (optional=templinst)_ZN3qbs8Internal14PersistentPool7idLoadSINS0_19ResolvedFileContextEEESt10shared_ptrIT_Ev@Base 1.22.0
 (optional=templinst)_ZN3qbs8Internal14PersistentPool7idLoadSINS0_22SourceArtifactInternalEEESt10shared_ptrIT_Ev@Base 1.22.0
 (optional=templinst)_ZN3qbs8Internal14PersistentPool7idLoadSINS0_4RuleEEESt10shared_ptrIT_Ev@Base 1.22.0
 (optional=templinst)_ZN3qbs8Internal14PersistentPool7idLoadSINS0_5ProbeEEESt10shared_ptrIT_Ev@Base 1.22.0
 _ZN3qbs8Internal14PersistentPoolC1ERNS0_6LoggerE@Base 1.22.0
 _ZN3qbs8Internal14PersistentPoolC2ERNS0_6LoggerE@Base 1.22.0
 _ZN3qbs8Internal14PersistentPoolD1Ev@Base 1.22.0
 _ZN3qbs8Internal14PersistentPoolD2Ev@Base 1.22.0
 _ZN3qbs8Internal14ProbesResolver12resolveProbeEPNS0_12ModuleLoader14ProductContextEPNS0_4ItemES6_@Base 1.22.0
 _ZN3qbs8Internal14ProbesResolver13resolveProbesEPNS0_12ModuleLoader14ProductContextEPNS0_4ItemE@Base 1.22.0
 _ZN3qbs8Internal14ProbesResolver18printProfilingInfoEv@Base 1.22.0
 _ZN3qbs8Internal14ProbesResolver19setOldProductProbesERK5QHashI7QStringSt6vectorISt10shared_ptrIKNS0_5ProbeEESaIS8_EEE@Base 1.22.0
 _ZN3qbs8Internal14ProbesResolver19setOldProjectProbesERKSt6vectorISt10shared_ptrIKNS0_5ProbeEESaIS6_EE@Base 1.22.0
 _ZN3qbs8Internal14ProbesResolver20setProjectParametersENS_22SetupProjectParametersE@Base 1.22.0
 _ZN3qbs8Internal14ProbesResolverC1EPNS0_9EvaluatorERNS0_6LoggerE@Base 1.22.0
 _ZN3qbs8Internal14ProbesResolverC2EPNS0_9EvaluatorERNS0_6LoggerE@Base 1.22.0
 _ZN3qbs8Internal14ProcessCommand18setupForJavaScriptE12QScriptValue@Base 1.22.0
 _ZN3qbs8Internal14ProcessCommand19addRelevantEnvValueERK7QStringS4_@Base 1.22.0
 _ZN3qbs8Internal14ProcessCommand19fillFromScriptValueEPK12QScriptValueRKNS_12CodeLocationE@Base 1.22.0
 _ZN3qbs8Internal14ProcessCommand22getEnvironmentFromListERK11QStringList@Base 1.22.0
 _ZN3qbs8Internal14ProcessCommand4loadERNS0_14PersistentPoolE@Base 1.22.0
 _ZN3qbs8Internal14ProcessCommand5storeERNS0_14PersistentPoolE@Base 1.22.0
 _ZN3qbs8Internal14ProcessCommandC1Ev@Base 1.22.0
 _ZN3qbs8Internal14ProcessCommandC2Ev@Base 1.22.0
 _ZN3qbs8Internal14ProcessCommandD0Ev@Base 1.22.0
 _ZN3qbs8Internal14ProcessCommandD1Ev@Base 1.22.0
 _ZN3qbs8Internal14ProcessCommandD2Ev@Base 1.22.0
 _ZN3qbs8Internal14ProjectPrivate11projectDataEv@Base 1.22.0
 _ZN3qbs8Internal14ProjectPrivate11removeFilesERKNS_11ProductDataERKNS_9GroupDataERK11QStringList@Base 1.22.0
 _ZN3qbs8Internal14ProjectPrivate11removeGroupERKNS_11ProductDataERKNS_9GroupDataE@Base 1.22.0
 _ZN3qbs8Internal14ProjectPrivate12ruleCommandsERKNS_11ProductDataERK7QStringS7_@Base 1.22.0
 _ZN3qbs8Internal14ProjectPrivate13buildProductsERK7QVectorISt10shared_ptrINS0_15ResolvedProductEEERKNS_12BuildOptionsEbP7QObject@Base 1.22.0
 _ZN3qbs8Internal14ProjectPrivate13cleanProductsERK7QVectorISt10shared_ptrINS0_15ResolvedProductEEERKNS_12CleanOptionsEP7QObject@Base 1.22.0
 _ZN3qbs8Internal14ProjectPrivate15getGroupContextERKNS_11ProductDataERKNS_9GroupDataE@Base 1.22.0
 _ZN3qbs8Internal14ProjectPrivate15installProductsERK7QVectorISt10shared_ptrINS0_15ResolvedProductEEERKNS_14InstallOptionsEbP7QObject@Base 1.22.0
 _ZN3qbs8Internal14ProjectPrivate15transformerDataEv@Base 1.22.0
 _ZN3qbs8Internal14ProjectPrivate16setupInstallDataERNS_12ArtifactDataERKSt10shared_ptrIKNS0_15ResolvedProductEE@Base 1.22.0
 _ZN3qbs8Internal14ProjectPrivate18GroupUpdateContextD1Ev@Base 1.22.0
 _ZN3qbs8Internal14ProjectPrivate18GroupUpdateContextD2Ev@Base 1.22.0
 _ZN3qbs8Internal14ProjectPrivate18createArtifactDataEPKNS0_8ArtifactERKSt10shared_ptrIKNS0_15ResolvedProductEERKNS0_3SetIPS2_EE@Base 1.22.0
 _ZN3qbs8Internal14ProjectPrivate18getFileListContextERKNS_11ProductDataERKNS_9GroupDataERK11QStringListb@Base 1.22.0
 _ZN3qbs8Internal14ProjectPrivate19retrieveProjectDataERNS_11ProjectDataERKSt10shared_ptrIKNS0_15ResolvedProjectEE@Base 1.22.0
 _ZN3qbs8Internal14ProjectPrivate21FileListUpdateContextD1Ev@Base 1.22.0
 _ZN3qbs8Internal14ProjectPrivate21FileListUpdateContextD2Ev@Base 1.22.0
 _ZN3qbs8Internal14ProjectPrivate22prepareChangeToProjectEv@Base 1.22.0
 _ZN3qbs8Internal14ProjectPrivate23createApiSourceArtifactERKSt10shared_ptrIKNS0_22SourceArtifactInternalEE@Base 1.22.0
 _ZN3qbs8Internal14ProjectPrivate24createGroupDataFromGroupERKSt10shared_ptrINS0_13ResolvedGroupEERKS2_IKNS0_15ResolvedProductEE@Base 1.22.0
 _ZN3qbs8Internal14ProjectPrivate29ruleCommandListForTransformerEPKNS0_11TransformerE@Base 1.22.0
 _ZN3qbs8Internal14ProjectPrivate8addFilesERKNS_11ProductDataERKNS_9GroupDataERK11QStringList@Base 1.22.0
 _ZN3qbs8Internal14ProjectPrivate8addGroupERKNS_11ProductDataERK7QString@Base 1.22.0
 _ZN3qbs8Internal14RawScanResults12findScanDataEPKNS0_16FileResourceBaseEPKNS0_17DependencyScannerERKSt10shared_ptrIKNS0_19PropertyMapInternalEE@Base 1.22.0
 (optional=implicit)_ZN3qbs8Internal14RawScanResults8ScanDataC1ERKS2_@Base 1.22.0
 (optional=implicit)_ZN3qbs8Internal14RawScanResults8ScanDataC2ERKS2_@Base 1.22.0
 _ZN3qbs8Internal14RawScanResults8ScanDataD1Ev@Base 1.22.0
 _ZN3qbs8Internal14RawScanResults8ScanDataD2Ev@Base 1.22.0
 _ZN3qbs8Internal14ResolvedModule27argumentNamesForSetupRunEnvEv@Base 1.22.0
 _ZN3qbs8Internal14ResolvedModule29argumentNamesForSetupBuildEnvEv@Base 1.22.0
 _ZN3qbs8Internal14ResolvedModuleD1Ev@Base 1.22.0
 _ZN3qbs8Internal14ResolvedModuleD2Ev@Base 1.22.0
 _ZN3qbs8Internal14ScriptFunctionC1Ev@Base 1.22.0
 _ZN3qbs8Internal14ScriptFunctionC2Ev@Base 1.22.0
 _ZN3qbs8Internal14ScriptFunctionD1Ev@Base 1.22.0
 _ZN3qbs8Internal14ScriptFunctionD2Ev@Base 1.22.0
 _ZN3qbs8Internal14ScriptImporter14copyPropertiesERK12QScriptValueRS2_@Base 1.22.0
 _ZN3qbs8Internal14ScriptImporter16importSourceCodeERK7QStringS4_R12QScriptValue@Base 1.22.0
 _ZN3qbs8Internal14ScriptImporterC1EPNS0_12ScriptEngineE@Base 1.22.0
 _ZN3qbs8Internal14ScriptImporterC2EPNS0_12ScriptEngineE@Base 1.22.0
 _ZN3qbs8Internal14ShutdownPacket13doDeserializeER11QDataStream@Base 1.22.0
 _ZN3qbs8Internal14ShutdownPacketC1Ev@Base 1.22.0
 _ZN3qbs8Internal14ShutdownPacketC2Ev@Base 1.22.0
 _ZN3qbs8Internal14ShutdownPacketD0Ev@Base 1.22.0
 _ZN3qbs8Internal14ShutdownPacketD1Ev@Base 1.22.0
 _ZN3qbs8Internal14ShutdownPacketD2Ev@Base 1.22.0
 _ZN3qbs8Internal14XmlDomDocument10setContentERK7QString@Base 1.22.0
 _ZN3qbs8Internal14XmlDomDocument11qt_metacallEN11QMetaObject4CallEiPPv@Base 1.22.0
 _ZN3qbs8Internal14XmlDomDocument11qt_metacastEPKc@Base 1.22.0
 _ZN3qbs8Internal14XmlDomDocument13createElementERK7QString@Base 1.22.0
 _ZN3qbs8Internal14XmlDomDocument14createTextNodeERK7QString@Base 1.22.0
 _ZN3qbs8Internal14XmlDomDocument15documentElementEv@Base 1.22.0
 _ZN3qbs8Internal14XmlDomDocument16staticMetaObjectE@Base 1.22.0
 _ZN3qbs8Internal14XmlDomDocument18createCDATASectionERK7QString@Base 1.22.0
 _ZN3qbs8Internal14XmlDomDocument4ctorEP14QScriptContextP13QScriptEngine@Base 1.22.0
 _ZN3qbs8Internal14XmlDomDocument4loadERK7QString@Base 1.22.0
 _ZN3qbs8Internal14XmlDomDocument4saveERK7QStringi@Base 1.22.0
 _ZN3qbs8Internal14XmlDomDocument8toStringEi@Base 1.22.0
 _ZN3qbs8Internal14XmlDomDocumentC1EP14QScriptContextRK7QString@Base 1.22.0
 _ZN3qbs8Internal14XmlDomDocumentC2EP14QScriptContextRK7QString@Base 1.22.0
 _ZN3qbs8Internal14XmlDomDocumentD0Ev@Base 1.22.0
 _ZN3qbs8Internal14XmlDomDocumentD1Ev@Base 1.22.0
 _ZN3qbs8Internal14XmlDomDocumentD2Ev@Base 1.22.0
 _ZN3qbs8Internal14createArtifactERKSt10shared_ptrINS0_15ResolvedProductEERKS1_IKNS0_22SourceArtifactInternalEE@Base 1.22.0
 _ZN3qbs8Internal14doSanityChecksERKSt10shared_ptrINS0_15ResolvedProjectEERKNS0_6LoggerE@Base 1.22.0
 _ZN3qbs8Internal14insertArtifactERKSt10shared_ptrINS0_15ResolvedProductEEPNS0_8ArtifactE@Base 1.22.0
 _ZN3qbs8Internal14lcModuleLoaderEv@Base 1.22.0
 _ZN3qbs8Internal14lookupArtifactERKSt10shared_ptrIKNS0_15ResolvedProductEEPKNS0_16ProjectBuildDataERK7QStringSC_b@Base 1.22.0
 _ZN3qbs8Internal14lookupArtifactERKSt10shared_ptrIKNS0_15ResolvedProductEEPKNS0_16ProjectBuildDataERK7QStringb@Base 1.22.0
 _ZN3qbs8Internal14lookupArtifactERKSt10shared_ptrIKNS0_15ResolvedProductEEPKNS0_8ArtifactEb@Base 1.22.0
 _ZN3qbs8Internal14lookupArtifactERKSt10shared_ptrIKNS0_15ResolvedProductEERK7QStringS9_b@Base 1.22.0
 _ZN3qbs8Internal14lookupArtifactERKSt10shared_ptrIKNS0_15ResolvedProductEERK7QStringb@Base 1.22.0
 _ZN3qbs8Internal14modulePropertyERK4QMapI7QString8QVariantERKS2_S8_Pb@Base 1.12.0
 _ZN3qbs8Internal14toCodeLocationERK7QStringRKN8QbsQmlJS3AST14SourceLocationE@Base 1.22.0
 _ZN3qbs8Internal15AbstractCommand19fillFromScriptValueEPK12QScriptValueRKNS_12CodeLocationE@Base 1.22.0
 _ZN3qbs8Internal15AbstractCommand22applyCommandPropertiesEPK12QScriptValue@Base 1.22.0
 _ZN3qbs8Internal15AbstractCommand4loadERNS0_14PersistentPoolE@Base 1.22.0
 _ZN3qbs8Internal15AbstractCommand5storeERNS0_14PersistentPoolE@Base 1.22.0
 _ZN3qbs8Internal15AbstractCommandC1Ev@Base 1.22.0
 _ZN3qbs8Internal15AbstractCommandC2Ev@Base 1.22.0
 _ZN3qbs8Internal15AbstractCommandD0Ev@Base 1.22.0
 _ZN3qbs8Internal15AbstractCommandD1Ev@Base 1.22.0
 _ZN3qbs8Internal15AbstractCommandD2Ev@Base 1.22.0
 _ZN3qbs8Internal15ArtifactCleaner22removeEmptyDirectoriesERK7QStringRKNS_12CleanOptionsEPb@Base 1.22.0
 _ZN3qbs8Internal15ArtifactCleaner7cleanupERKSt10shared_ptrINS0_15TopLevelProjectEERK7QVectorIS2_INS0_15ResolvedProductEEERKNS_12CleanOptionsE@Base 1.22.0
 _ZN3qbs8Internal15ArtifactCleanerC1ENS0_6LoggerEPNS0_16ProgressObserverE@Base 1.22.0
 _ZN3qbs8Internal15ArtifactCleanerC2ENS0_6LoggerEPNS0_16ProgressObserverE@Base 1.22.0
 _ZN3qbs8Internal15ArtifactVisitor12visitProductERKSt10shared_ptrIKNS0_15ResolvedProductEE@Base 1.22.0
 _ZN3qbs8Internal15ArtifactVisitor12visitProjectERKSt10shared_ptrIKNS0_15ResolvedProjectEE@Base 1.22.0
 _ZN3qbs8Internal15ArtifactVisitor5visitEPNS0_8ArtifactE@Base 1.22.0
 _ZN3qbs8Internal15ArtifactVisitor5visitEPNS0_8RuleNodeE@Base 1.22.0
 _ZN3qbs8Internal15ArtifactVisitorC1Ei@Base 1.22.0
 _ZN3qbs8Internal15ArtifactVisitorC2Ei@Base 1.22.0
 _ZN3qbs8Internal15CreateRuleNodes5visitERKSt10shared_ptrIKNS0_4RuleEES7_@Base 1.22.0
 _ZN3qbs8Internal15CreateRuleNodes8endVisitERKSt10shared_ptrIKNS0_4RuleEE@Base 1.22.0
 _ZN3qbs8Internal15CreateRuleNodesD0Ev@Base 1.22.0
 _ZN3qbs8Internal15CreateRuleNodesD1Ev@Base 1.22.0
 _ZN3qbs8Internal15CreateRuleNodesD2Ev@Base 1.22.0
 _ZN3qbs8Internal15FileContextBaseD1Ev@Base 1.22.0
 _ZN3qbs8Internal15FileContextBaseD2Ev@Base 1.22.0
 _ZN3qbs8Internal15ItemDeclarationC1ENS0_8ItemTypeE@Base 1.22.0
 _ZN3qbs8Internal15ItemDeclarationC2ENS0_8ItemTypeE@Base 1.22.0
 _ZN3qbs8Internal15ItemDeclarationD1Ev@Base 1.22.0
 _ZN3qbs8Internal15ItemDeclarationD2Ev@Base 1.22.0
 _ZN3qbs8Internal15ItemDeclarationlsERKNS0_19PropertyDeclarationE@Base 1.22.0
 _ZN3qbs8Internal15LauncherProcess17setupChildProcessEv@Base 1.22.0
 _ZN3qbs8Internal15LauncherProcessD0Ev@Base 1.22.0
 _ZN3qbs8Internal15LauncherProcessD1Ev@Base 1.22.0
 _ZN3qbs8Internal15LauncherProcessD2Ev@Base 1.22.0
 _ZN3qbs8Internal15MSVCInstallInfo14installedMSVCsERNS0_6LoggerE@Base 1.16.0
 _ZN3qbs8Internal15ProjectResolver10ignoreItemEPNS0_4ItemEPNS1_14ProjectContextE@Base 1.22.0
 _ZN3qbs8Internal15ProjectResolver11resolveRuleEPNS0_4ItemEPNS1_14ProjectContextE@Base 1.22.0
 _ZN3qbs8Internal15ProjectResolver12resolveGroupEPNS0_4ItemEPNS1_14ProjectContextE@Base 1.22.0
 (arch=armhf i386 mips64el mipsel powerpc ppc64 riscv64 s390x)_ZN3qbs8Internal15ProjectResolver13ModuleContextD1Ev@Base 1.22.0
 (arch=armhf i386 mips64el mipsel powerpc ppc64 riscv64 s390x)_ZN3qbs8Internal15ProjectResolver13ModuleContextD2Ev@Base 1.22.0
 _ZN3qbs8Internal15ProjectResolver13resolveExportEPNS0_4ItemEPNS1_14ProjectContextE@Base 1.22.0
 _ZN3qbs8Internal15ProjectResolver13resolveModuleERKNS0_11QualifiedIdEPNS0_4ItemEbRK4QMapI7QString8QVariantERNS_9JobLimitsEPNS1_14ProjectContextE@Base 1.22.0
 _ZN3qbs8Internal15ProjectResolver14ProductContextD1Ev@Base 1.22.0
 _ZN3qbs8Internal15ProjectResolver14ProductContextD2Ev@Base 1.22.0
 _ZN3qbs8Internal15ProjectResolver14ProjectContextD1Ev@Base 1.22.0
 _ZN3qbs8Internal15ProjectResolver14ProjectContextD2Ev@Base 1.22.0
 _ZN3qbs8Internal15ProjectResolver14resolveModulesEPKNS0_4ItemEPNS1_14ProjectContextE@Base 1.22.0
 _ZN3qbs8Internal15ProjectResolver14resolveProductEPNS0_4ItemEPNS1_14ProjectContextE@Base 1.22.0
 _ZN3qbs8Internal15ProjectResolver14resolveProjectEPNS0_4ItemEPNS1_14ProjectContextE@Base 1.22.0
 _ZN3qbs8Internal15ProjectResolver14resolveScannerEPNS0_4ItemEPNS1_14ProjectContextE@Base 1.22.0
 _ZN3qbs8Internal15ProjectResolver15resolveJobLimitEPNS0_4ItemEPNS1_14ProjectContextE@Base 1.22.0
 _ZN3qbs8Internal15ProjectResolver16applyFileTaggersERKSt10shared_ptrINS0_22SourceArtifactInternalEERKS2_IKNS0_15ResolvedProductEE@Base 1.22.0
 _ZN3qbs8Internal15ProjectResolver16callItemFunctionERK4QMapINS0_8ItemTypeEMS1_FvPNS0_4ItemEPNS1_14ProjectContextEEES5_S7_@Base 1.22.0
 _ZN3qbs8Internal15ProjectResolver16evaluatePropertyEPKNS0_4ItemERK7QStringRKSt10shared_ptrINS0_5ValueEER4QMapIS5_8QVariantEb@Base 1.22.0
 _ZN3qbs8Internal15ProjectResolver17resolveFileTaggerEPNS0_4ItemEPNS1_14ProjectContextE@Base 1.22.0
 _ZN3qbs8Internal15ProjectResolver17resolveGroupFullyEPNS0_4ItemEPNS1_14ProjectContextEb@Base 1.22.0
 _ZN3qbs8Internal15ProjectResolver17resolveSubProjectEPNS0_4ItemEPNS1_14ProjectContextE@Base 1.22.0
 _ZN3qbs8Internal15ProjectResolver18evaluatePropertiesEPKNS0_4ItemES4_RK4QMapI7QString8QVariantEbb@Base 1.22.0
 _ZN3qbs8Internal15ProjectResolver18evaluatePropertiesEPNS0_4ItemEbb@Base 1.22.0
 _ZN3qbs8Internal15ProjectResolver18gatherProductTypesEPNS0_15ResolvedProductEPNS0_4ItemE@Base 1.22.0
 _ZN3qbs8Internal15ProjectResolver18printProfilingInfoEv@Base 1.22.0
 _ZN3qbs8Internal15ProjectResolver18resolveExportChildEPKNS0_4ItemERKNS0_14ExportedModuleE@Base 1.22.0
 _ZN3qbs8Internal15ProjectResolver19createProductConfigEPNS0_15ResolvedProductE@Base 1.22.0
 _ZN3qbs8Internal15ProjectResolver19resolveProductFullyEPNS0_4ItemEPNS1_14ProjectContextE@Base 1.22.0
 _ZN3qbs8Internal15ProjectResolver19resolveProjectFullyEPNS0_4ItemEPNS1_14ProjectContextE@Base 1.22.0
 _ZN3qbs8Internal15ProjectResolver19resolveRuleArtifactERKSt10shared_ptrINS0_4RuleEEPNS0_4ItemE@Base 1.22.0
 _ZN3qbs8Internal15ProjectResolver19setProgressObserverEPNS0_16ProgressObserverE@Base 1.22.0
 _ZN3qbs8Internal15ProjectResolver20createSourceArtifactERKSt10shared_ptrINS0_15ResolvedProductEERK7QStringRKS2_INS0_13ResolvedGroupEEbRKNS_12CodeLocationEP5QHashISt4pairIS7_S7_ESE_EPNS_9ErrorInfoE@Base 1.22.0
 _ZN3qbs8Internal15ProjectResolver20evaluateModuleValuesEPNS0_4ItemEb@Base 1.22.0
 _ZN3qbs8Internal15ProjectResolver20resolveShadowProductEPNS0_4ItemEPNS1_14ProjectContextE@Base 1.22.0
 _ZN3qbs8Internal15ProjectResolver21ProductDependencyInfoD1Ev@Base 1.22.0
 _ZN3qbs8Internal15ProjectResolver21ProductDependencyInfoD2Ev@Base 1.22.0
 (optional=inline)_ZN3qbs8Internal15ProjectResolver22ProductContextSwitcherD1Ev@Base 1.22.0
 (optional=inline)_ZN3qbs8Internal15ProjectResolver22ProductContextSwitcherD2Ev@Base 1.22.0
 _ZN3qbs8Internal15ProjectResolver22getProductDependenciesERKSt10shared_ptrIKNS0_15ResolvedProductEERKNS0_18ModuleLoaderResult11ProductInfoE@Base 1.22.0
 _ZN3qbs8Internal15ProjectResolver22resolveTopLevelProjectEv@Base 1.22.0
 _ZN3qbs8Internal15ProjectResolver23matchArtifactPropertiesERKSt10shared_ptrINS0_15ResolvedProductEERKSt6vectorIS2_INS0_22SourceArtifactInternalEESaIS9_EE@Base 1.22.0
 _ZN3qbs8Internal15ProjectResolver23setupExportedPropertiesEPKNS0_4ItemERK7QStringRSt6vectorINS0_16ExportedPropertyESaIS9_EE@Base 1.22.0
 _ZN3qbs8Internal15ProjectResolver26resolveProductDependenciesERKNS1_14ProjectContextE@Base 1.22.0
 _ZN3qbs8Internal15ProjectResolver26resolveRuleArtifactBindingERKSt10shared_ptrINS0_12RuleArtifactEEPNS0_4ItemERK11QStringListPNS0_3SetINS0_11QualifiedIdEEE@Base 1.22.0
 _ZN3qbs8Internal15ProjectResolver27adaptExportedPropertyValuesEPKNS0_4ItemE@Base 1.22.0
 _ZN3qbs8Internal15ProjectResolver30collectPropertiesForExportItemEPNS0_4ItemE@Base 1.22.0
 _ZN3qbs8Internal15ProjectResolver30collectPropertiesForExportItemERKNS0_11QualifiedIdERKSt10shared_ptrINS0_5ValueEEPNS0_4ItemER4QMapI7QString8QVariantE@Base 1.22.0
 _ZN3qbs8Internal15ProjectResolver33resolveAdditionalModulePropertiesEPKNS0_4ItemERK4QMapI7QString8QVariantE@Base 1.22.0
 _ZN3qbs8Internal15ProjectResolver34collectExportedProductDependenciesEv@Base 1.22.0
 _ZN3qbs8Internal15ProjectResolver38collectPropertiesForModuleInExportItemERKNS0_4Item6ModuleE@Base 1.22.0
 _ZN3qbs8Internal15ProjectResolver7resolveEv@Base 1.22.0
 _ZN3qbs8Internal15ProjectResolverC1EPNS0_9EvaluatorENS0_18ModuleLoaderResultENS_22SetupProjectParametersERNS0_6LoggerE@Base 1.22.0
 _ZN3qbs8Internal15ProjectResolverC2EPNS0_9EvaluatorENS0_18ModuleLoaderResultENS_22SetupProjectParametersERNS0_6LoggerE@Base 1.22.0
 _ZN3qbs8Internal15ProjectResolverD1Ev@Base 1.22.0
 _ZN3qbs8Internal15ProjectResolverD2Ev@Base 1.22.0
 _ZN3qbs8Internal15ResolvedProduct10uniqueNameERK7QStringS4_@Base 1.10.0
 _ZN3qbs8Internal15ResolvedProduct15fullDisplayNameERK7QStringS4_@Base 1.10.0
 _ZN3qbs8Internal15ResolvedProduct19cacheExecutablePathERK7QStringS4_@Base 1.10.0
 _ZN3qbs8Internal15ResolvedProduct24deriveBuildDirectoryNameERK7QStringS4_@Base 1.10.0
 _ZN3qbs8Internal15ResolvedProduct4loadERNS0_14PersistentPoolE@Base 1.10.0
 _ZN3qbs8Internal15ResolvedProduct5storeERNS0_14PersistentPoolE@Base 1.12.0
 _ZN3qbs8Internal15ResolvedProductC1Ev@Base 1.10.0
 _ZN3qbs8Internal15ResolvedProductC2Ev@Base 1.10.0
 _ZN3qbs8Internal15ResolvedProductD1Ev@Base 1.10.0
 _ZN3qbs8Internal15ResolvedProductD2Ev@Base 1.10.0
 _ZN3qbs8Internal15ResolvedProject15topLevelProjectEv@Base 1.10.0
 _ZN3qbs8Internal15ResolvedProject4loadERNS0_14PersistentPoolE@Base 1.10.0
 _ZN3qbs8Internal15ResolvedProject5storeERNS0_14PersistentPoolE@Base 1.12.0
 _ZN3qbs8Internal15ResolvedProjectC1Ev@Base 1.10.0
 _ZN3qbs8Internal15ResolvedProjectC2Ev@Base 1.10.0
 _ZN3qbs8Internal15ResolvedProjectD0Ev@Base 1.11.0
 _ZN3qbs8Internal15ResolvedProjectD1Ev@Base 1.11.0
 _ZN3qbs8Internal15ResolvedProjectD2Ev@Base 1.11.0
 (optional=implicit)_ZN3qbs8Internal15ResolvedScannerD1Ev@Base 1.22.0
 (optional=implicit)_ZN3qbs8Internal15ResolvedScannerD2Ev@Base 1.22.0
 _ZN3qbs8Internal15RulesApplicator20createOutputArtifactERK7QStringRKNS0_8FileTagsEbRKNS0_3SetIPNS0_8ArtifactEEE@Base 1.22.0
 _ZN3qbs8Internal15RulesApplicator22collectAuxiliaryInputsEPKNS0_4RuleEPKNS0_15ResolvedProductE@Base 1.22.0
 _ZN3qbs8Internal15RulesApplicator23collectAdditionalInputsERKNS0_8FileTagsEPKNS0_4RuleEPKNS0_15ResolvedProductE6QFlagsINS1_16InputsSourceFlagEE@Base 1.22.0
 _ZN3qbs8Internal15RulesApplicator24handleRemovedRuleOutputsERKNS0_3SetIPNS0_8ArtifactEEES7_R11QStringListRKNS0_6LoggerE@Base 1.22.0
 _ZN3qbs8Internal15RulesApplicator24runOutputArtifactsScriptERKNS0_3SetIPNS0_8ArtifactEEERK5QListI12QScriptValueE@Base 1.22.0
 _ZN3qbs8Internal15RulesApplicator26collectExplicitlyDependsOnEPKNS0_4RuleEPKNS0_15ResolvedProductE@Base 1.22.0
 _ZN3qbs8Internal15RulesApplicator35createOutputArtifactFromScriptValueERK12QScriptValueRKNS0_3SetIPNS0_8ArtifactEEE@Base 1.22.0
 _ZN3qbs8Internal15RulesApplicator36createOutputArtifactFromRuleArtifactERKSt10shared_ptrIKNS0_12RuleArtifactEERKNS0_3SetIPNS0_8ArtifactEEEPNS8_I7QStringEE@Base 1.22.0
 _ZN3qbs8Internal15RulesApplicator7doApplyERKNS0_3SetIPNS0_8ArtifactEEER12QScriptValue@Base 1.22.0
 _ZN3qbs8Internal15RulesApplicator9applyRuleEPNS0_8RuleNodeERKNS0_3SetIPNS0_8ArtifactEEES9_@Base 1.22.0
 _ZN3qbs8Internal15RulesApplicatorC1ESt10shared_ptrINS0_15ResolvedProductEERKSt13unordered_mapI7QStringPKS3_St4hashIS6_ESt8equal_toIS6_ESaISt4pairIKS6_S8_EEERKS5_IS6_PKNS0_15ResolvedProjectESA_SC_SaISD_ISE_SM_EEENS0_6LoggerE@Base 1.22.0
 _ZN3qbs8Internal15RulesApplicatorC2ESt10shared_ptrINS0_15ResolvedProductEERKSt13unordered_mapI7QStringPKS3_St4hashIS6_ESt8equal_toIS6_ESaISt4pairIKS6_S8_EEERKS5_IS6_PKNS0_15ResolvedProjectESA_SC_SaISD_ISE_SM_EEENS0_6LoggerE@Base 1.22.0
 _ZN3qbs8Internal15RulesApplicatorD1Ev@Base 1.22.0
 _ZN3qbs8Internal15RulesApplicatorD2Ev@Base 1.22.0
 _ZN3qbs8Internal15SettingsCreator12getQSettingsEv@Base 1.22.0
 _ZN3qbs8Internal15SettingsCreator15createQSettingsEv@Base 1.22.0
 _ZN3qbs8Internal15SettingsCreator7migrateEv@Base 1.22.0
 _ZN3qbs8Internal15SettingsCreatorC1E7QString@Base 1.22.0
 _ZN3qbs8Internal15SettingsCreatorC2E7QString@Base 1.22.0
 _ZN3qbs8Internal15SettingsCreatorD1Ev@Base 1.22.0
 _ZN3qbs8Internal15SettingsCreatorD2Ev@Base 1.22.0
 _ZN3qbs8Internal15SourceWildCards14expandPatternsERKSt10shared_ptrIKNS0_13ResolvedGroupEERK11QStringListRK7QStringSD_@Base 1.22.0
 _ZN3qbs8Internal15SourceWildCards14expandPatternsERKSt10shared_ptrIKNS0_13ResolvedGroupEERK7QStringSA_@Base 1.22.0
 _ZN3qbs8Internal15SourceWildCards14expandPatternsERNS0_3SetI7QStringEERKSt10shared_ptrIKNS0_13ResolvedGroupEERK11QStringListRKS3_SG_@Base 1.22.0
 _ZN3qbs8Internal15StringConstants12namePropertyEv@Base 1.22.0
 (arch=!armel !riscv64)_ZN3qbs8Internal15StringConstants13filesPropertyEv@Base 1.22.0
 (arch=!armel !riscv64)_ZN3qbs8Internal15StringConstants15jobPoolPropertyEv@Base 1.22.0
 (arch=armel riscv64)_ZN3qbs8Internal15StringConstants15jsFileWildcardsEv@Base 1.22.0
 (arch=!armel !riscv64)_ZN3qbs8Internal15StringConstants15profilePropertyEv@Base 1.22.0
 _ZN3qbs8Internal15StringConstants16jobCountPropertyEv@Base 1.22.0
 (arch=armel riscv64)_ZN3qbs8Internal15StringConstants16qbsFileWildcardsEv@Base 1.22.0
 (arch=!armel !riscv64)_ZN3qbs8Internal15StringConstants17artifactsPropertyEv@Base 1.22.0
 _ZN3qbs8Internal15StringConstants17conditionPropertyEv@Base 1.22.0
 (arch=!armel !riscv64)_ZN3qbs8Internal15StringConstants19shadowProductPrefixEv@Base 1.22.0
 (arch=!armel !riscv64)_ZN3qbs8Internal15StringConstants20dependenciesPropertyEv@Base 1.22.0
 (arch=!armel !riscv64)_ZN3qbs8Internal15StringConstants20excludeFilesPropertyEv@Base 1.22.0
 (arch=!armel !riscv64)_ZN3qbs8Internal15StringConstants20productTypesPropertyEv@Base 1.22.0
 (arch=!armel !mips64el !ppc64el !riscv64)_ZN3qbs8Internal15StringConstants22qbsSearchPathsPropertyEv@Base 1.22.0
 (arch=!armel !riscv64)_ZN3qbs8Internal15StringConstants23sourceDirectoryPropertyEv@Base 1.22.0
 (arch=!armel !riscv64)_ZN3qbs8Internal15StringConstants32multiplexByQbsPropertiesPropertyEv@Base 1.22.0
 (arch=!armel !riscv64)_ZN3qbs8Internal15StringConstants32multiplexConfigurationIdPropertyEv@Base 1.22.0
 _ZN3qbs8Internal15StringConstants33multiplexConfigurationIdsPropertyEv@Base 1.22.0
 _ZN3qbs8Internal15StringConstants3qbsEv@Base 1.22.0
 (arch=!armel !riscv64)_ZN3qbs8Internal15StringConstants4starEv@Base 1.22.0
 (arch=!armel !riscv64)_ZN3qbs8Internal15StringConstants7productEv@Base 1.22.0
 _ZN3qbs8Internal15StringConstants7projectEv@Base 1.22.0
 (arch=!armel !riscv64)_ZN3qbs8Internal15StringConstants8profilesEv@Base 1.22.0
 _ZN3qbs8Internal15TopLevelProject20deriveBuildDirectoryERK7QStringS4_@Base 1.10.0
 _ZN3qbs8Internal15TopLevelProject21setBuildConfigurationERK4QMapI7QString8QVariantE@Base 1.10.0
 _ZN3qbs8Internal15TopLevelProject27cleanupModuleProviderOutputEv@Base 1.13.0
 _ZN3qbs8Internal15TopLevelProject31makeModuleProvidersNonTransientEv@Base 1.13.1
 _ZN3qbs8Internal15TopLevelProject4loadERNS0_14PersistentPoolE@Base 1.10.0
 _ZN3qbs8Internal15TopLevelProject5storeENS0_6LoggerE@Base 1.12.0
 _ZN3qbs8Internal15TopLevelProject5storeERNS0_14PersistentPoolE@Base 1.12.0
 _ZN3qbs8Internal15TopLevelProject8deriveIdERK4QMapI7QString8QVariantE@Base 1.10.0
 _ZN3qbs8Internal15TopLevelProjectC1Ev@Base 1.10.0
 _ZN3qbs8Internal15TopLevelProjectC2Ev@Base 1.10.0
 _ZN3qbs8Internal15TopLevelProjectD0Ev@Base 1.10.0
 _ZN3qbs8Internal15TopLevelProjectD1Ev@Base 1.10.0
 _ZN3qbs8Internal15TopLevelProjectD2Ev@Base 1.10.0
 (optional=templinst)_ZN3qbs8Internal15attachPointerToIKNS0_8ArtifactEEEvR12QScriptValuePT_@Base 1.22.0
 (optional=templinst)_ZN3qbs8Internal15attachPointerToINS0_14EvaluationDataEEEvR12QScriptValuePT_@Base 1.22.0
 (optional=templinst)_ZN3qbs8Internal15attachedPointerINS0_14EvaluationDataEEEPT_RK12QScriptValue@Base 1.22.0
 (optional=templinst)_ZN3qbs8Internal15attachedPointerINS0_8ArtifactEEEPT_RK12QScriptValue@Base 1.22.0
 _ZN3qbs8Internal15debugPropertiesE@Base 1.22.0
 _ZN3qbs8Internal15lcPluginManagerEv@Base 1.22.0
 _ZN3qbs8Internal15lcUpToDateCheckEv@Base 1.22.0
 _ZN3qbs8Internal15setArtifactDataEPNS0_8ArtifactERKSt10shared_ptrIKNS0_22SourceArtifactInternalEE@Base 1.22.0
 _ZN3qbs8Internal16BuildGraphLoader11loadProjectERK7QString@Base 1.22.0
 _ZN3qbs8Internal16BuildGraphLoader12ChildrenInfoC1ERKS2_@Base 1.22.0
 _ZN3qbs8Internal16BuildGraphLoader12ChildrenInfoC2ERKS2_@Base 1.22.0
 _ZN3qbs8Internal16BuildGraphLoader16onProductRemovedERKSt10shared_ptrINS0_15ResolvedProductEEPNS0_16ProjectBuildDataEb@Base 1.22.0
 _ZN3qbs8Internal16BuildGraphLoader18rescueOldBuildDataERKSt10shared_ptrIKNS0_15ResolvedProductEERKS2_IS3_ERK5QHashIPKNS0_8ArtifactENS1_12ChildrenInfoEERKSB_I7QStringNS0_21RescuableArtifactDataEE@Base 1.22.0
 _ZN3qbs8Internal16BuildGraphLoader19trackProjectChangesEv@Base 1.22.0
 _ZN3qbs8Internal16BuildGraphLoader21hasProductFileChangedERKSt6vectorISt10shared_ptrINS0_15ResolvedProductEESaIS5_EERKNS0_8FileTimeERNS0_3SetI7QStringEERS7_@Base 1.22.0
 _ZN3qbs8Internal16BuildGraphLoader22checkProductForChangesERKSt10shared_ptrINS0_15ResolvedProductEES6_@Base 1.22.0
 _ZN3qbs8Internal16BuildGraphLoader22loadBuildGraphFromDiskEv@Base 1.22.0
 _ZN3qbs8Internal16BuildGraphLoader23checkForPropertyChangesERKSt10shared_ptrINS0_15ResolvedProductEES6_@Base 1.22.0
 _ZN3qbs8Internal16BuildGraphLoader24checkConfigCompatibilityEv@Base 1.22.0
 _ZN3qbs8Internal16BuildGraphLoader25hasBuildSystemFileChangedERKNS0_3SetI7QStringEEPKNS0_15TopLevelProjectE@Base 1.22.0
 _ZN3qbs8Internal16BuildGraphLoader26checkAllProductsForChangesERKSt6vectorISt10shared_ptrINS0_15ResolvedProductEESaIS5_EERS7_@Base 1.22.0
 _ZN3qbs8Internal16BuildGraphLoader28checkBuildGraphCompatibilityERKSt10shared_ptrIKNS0_15TopLevelProjectEE@Base 1.22.0
 _ZN3qbs8Internal16BuildGraphLoader33checkProductForInstallInfoChangesERKSt10shared_ptrINS0_15ResolvedProductEES6_@Base 1.22.0
 _ZN3qbs8Internal16BuildGraphLoader33markTransformersForChangeTrackingERKSt6vectorISt10shared_ptrINS0_15ResolvedProductEESaIS5_EE@Base 1.22.0
 _ZN3qbs8Internal16BuildGraphLoader33replaceFileDependencyWithArtifactERKSt10shared_ptrINS0_15ResolvedProductEEPNS0_14FileDependencyEPNS0_8ArtifactE@Base 1.22.0
 _ZN3qbs8Internal16BuildGraphLoader35checkProductForChangesInSourceFilesERKSt10shared_ptrINS0_15ResolvedProductEES6_@Base 1.22.0
 _ZN3qbs8Internal16BuildGraphLoader4loadERKSt10shared_ptrINS0_15TopLevelProjectEERKNS_22SetupProjectParametersERKS2_INS0_22RulesEvaluationContextEE@Base 1.22.0
 _ZN3qbs8Internal16BuildGraphLoaderC1ENS0_6LoggerE@Base 1.22.0
 _ZN3qbs8Internal16BuildGraphLoaderC2ENS0_6LoggerE@Base 1.22.0
 _ZN3qbs8Internal16BuildGraphLoaderD1Ev@Base 1.22.0
 _ZN3qbs8Internal16BuildGraphLoaderD2Ev@Base 1.22.0
 _ZN3qbs8Internal16BuildGraphLockerC1ERK7QStringRKNS0_6LoggerEbPNS0_16ProgressObserverE@Base 1.22.0
 _ZN3qbs8Internal16BuildGraphLockerC2ERK7QStringRKNS0_6LoggerEbPNS0_16ProgressObserverE@Base 1.22.0
 _ZN3qbs8Internal16BuildGraphLockerD1Ev@Base 1.22.0
 _ZN3qbs8Internal16BuildGraphLockerD2Ev@Base 1.22.0
 _ZN3qbs8Internal16DirectoryManager26rememberCreatedDirectoriesEv@Base 1.22.0
 _ZN3qbs8Internal16DirectoryManager29removeEmptyCreatedDirectoriesEv@Base 1.22.0
 _ZN3qbs8Internal16DirectoryManagerC1E7QStringNS0_6LoggerE@Base 1.22.0
 _ZN3qbs8Internal16DirectoryManagerC2E7QStringNS0_6LoggerE@Base 1.22.0
 _ZN3qbs8Internal16DirectoryManagerD1Ev@Base 1.22.0
 _ZN3qbs8Internal16DirectoryManagerD2Ev@Base 1.22.0
 _ZN3qbs8Internal16ExecutableFinder14findExecutableERK7QStringS4_@Base 1.22.0
 _ZN3qbs8Internal16ExecutableFinder20m_executableSuffixesE@Base 1.22.0
 _ZN3qbs8Internal16ExecutableFinderC1ESt10shared_ptrINS0_15ResolvedProductEERK19QProcessEnvironment@Base 1.22.0
 _ZN3qbs8Internal16ExecutableFinderC2ESt10shared_ptrINS0_15ResolvedProductEERK19QProcessEnvironment@Base 1.22.0
 _ZN3qbs8Internal16ExecutableFinderD1Ev@Base 1.22.0
 _ZN3qbs8Internal16ExecutableFinderD2Ev@Base 1.22.0
 _ZN3qbs8Internal16FileResourceBase11setFilePathERK7QString@Base 1.22.0
 _ZN3qbs8Internal16FileResourceBase12setTimestampERKNS0_8FileTimeE@Base 1.22.0
 _ZN3qbs8Internal16FileResourceBase4loadERNS0_14PersistentPoolE@Base 1.22.0
 _ZN3qbs8Internal16FileResourceBase5storeERNS0_14PersistentPoolE@Base 1.22.0
 _ZN3qbs8Internal16FileResourceBaseC1Ev@Base 1.22.0
 _ZN3qbs8Internal16FileResourceBaseC2Ev@Base 1.22.0
 _ZN3qbs8Internal16FileResourceBaseD0Ev@Base 1.22.0
 _ZN3qbs8Internal16FileResourceBaseD1Ev@Base 1.22.0
 _ZN3qbs8Internal16FileResourceBaseD2Ev@Base 1.22.0
 _ZN3qbs8Internal16IdentifierSearch3addERK7QStringPb@Base 1.10.0
 _ZN3qbs8Internal16IdentifierSearch5startEPN8QbsQmlJS3AST4NodeE@Base 1.10.0
 _ZN3qbs8Internal16IdentifierSearch5visitEPN8QbsQmlJS3AST20IdentifierExpressionE@Base 1.10.0
 _ZN3qbs8Internal16IdentifierSearch8preVisitEPN8QbsQmlJS3AST4NodeE@Base 1.10.0
 _ZN3qbs8Internal16IdentifierSearchC1Ev@Base 1.10.0
 _ZN3qbs8Internal16IdentifierSearchC2Ev@Base 1.10.0
 _ZN3qbs8Internal16IdentifierSearchD0Ev@Base 1.22.0
 _ZN3qbs8Internal16IdentifierSearchD1Ev@Base 1.22.0
 _ZN3qbs8Internal16IdentifierSearchD2Ev@Base 1.22.0
 _ZN3qbs8Internal16InternalBuildJob11qt_metacallEN11QMetaObject4CallEiPPv@Base 1.22.0
 _ZN3qbs8Internal16InternalBuildJob11qt_metacastEPKc@Base 1.22.0
 _ZN3qbs8Internal16InternalBuildJob12emitFinishedEv@Base 1.22.0
 _ZN3qbs8Internal16InternalBuildJob14handleFinishedEv@Base 1.22.0
 _ZN3qbs8Internal16InternalBuildJob16staticMetaObjectE@Base 1.22.0
 _ZN3qbs8Internal16InternalBuildJob5buildERKSt10shared_ptrINS0_15TopLevelProjectEERK7QVectorIS2_INS0_15ResolvedProductEEERKNS_12BuildOptionsE@Base 1.22.0
 _ZN3qbs8Internal16InternalBuildJobC1ERKNS0_6LoggerEP7QObject@Base 1.22.0
 _ZN3qbs8Internal16InternalBuildJobC2ERKNS0_6LoggerEP7QObject@Base 1.22.0
 _ZN3qbs8Internal16InternalBuildJobD0Ev@Base 1.22.0
 _ZN3qbs8Internal16InternalBuildJobD1Ev@Base 1.22.0
 _ZN3qbs8Internal16InternalBuildJobD2Ev@Base 1.22.0
 _ZN3qbs8Internal16InternalCleanJob11qt_metacallEN11QMetaObject4CallEiPPv@Base 1.22.0
 _ZN3qbs8Internal16InternalCleanJob11qt_metacastEPKc@Base 1.22.0
 _ZN3qbs8Internal16InternalCleanJob16staticMetaObjectE@Base 1.22.0
 _ZN3qbs8Internal16InternalCleanJob4initERKSt10shared_ptrINS0_15TopLevelProjectEERK7QVectorIS2_INS0_15ResolvedProductEEERKNS_12CleanOptionsE@Base 1.22.0
 _ZN3qbs8Internal16InternalCleanJob5startEv@Base 1.22.0
 _ZN3qbs8Internal16InternalCleanJobC1ERKNS0_6LoggerEP7QObject@Base 1.22.0
 _ZN3qbs8Internal16InternalCleanJobC2ERKNS0_6LoggerEP7QObject@Base 1.22.0
 _ZN3qbs8Internal16InternalCleanJobD0Ev@Base 1.22.0
 _ZN3qbs8Internal16InternalCleanJobD1Ev@Base 1.22.0
 _ZN3qbs8Internal16InternalCleanJobD2Ev@Base 1.22.0
 _ZN3qbs8Internal16ModuleProperties12setupModulesER12QScriptValuePKNS0_15ResolvedProductEPKNS0_8ArtifactE@Base 1.22.0
 _ZN3qbs8Internal16ModuleProperties14modulePropertyEP14QScriptContextP13QScriptEngine@Base 1.22.0
 _ZN3qbs8Internal16ModuleProperties17js_modulePropertyEP14QScriptContextP13QScriptEngine@Base 1.22.0
 _ZN3qbs8Internal16ModuleProperties20setModuleScriptValueE12QScriptValueRKS2_RK7QString@Base 1.22.0
 _ZN3qbs8Internal16ModuleProperties4initE12QScriptValuePKNS0_15ResolvedProductE@Base 1.22.0
 _ZN3qbs8Internal16ModuleProperties4initE12QScriptValuePKNS0_8ArtifactE@Base 1.22.0
 _ZN3qbs8Internal16ModuleProperties4initE12QScriptValuePKvRK7QString@Base 1.22.0
 _ZN3qbs8Internal16ProductBuildData11addArtifactEPNS0_8ArtifactE@Base 1.12.0
 _ZN3qbs8Internal16ProductBuildData14removeArtifactEPNS0_8ArtifactE@Base 1.12.0
 _ZN3qbs8Internal16ProductBuildData16addArtifactToSetEPNS0_8ArtifactE@Base 1.12.0
 _ZN3qbs8Internal16ProductBuildData20addFileTagToArtifactEPNS0_8ArtifactERKNS0_7FileTagE@Base 1.12.0
 _ZN3qbs8Internal16ProductBuildData21removeArtifactFromSetEPNS0_8ArtifactE@Base 1.12.0
 _ZN3qbs8Internal16ProductBuildData24addRescuableArtifactDataERK7QStringRKNS0_21RescuableArtifactDataE@Base 1.12.0
 _ZN3qbs8Internal16ProductBuildData24setRescuableArtifactDataERK5QHashI7QStringNS0_21RescuableArtifactDataEE@Base 1.12.0
 _ZN3qbs8Internal16ProductBuildData30removeArtifactFromSetByFileTagEPNS0_8ArtifactERKNS0_7FileTagE@Base 1.12.0
 _ZN3qbs8Internal16ProductBuildData31removeFromRescuableArtifactDataERK7QString@Base 1.12.0
 _ZN3qbs8Internal16ProductBuildData37checkAndSetJsArtifactsMapUpToDateFlagEv@Base 1.12.0
 _ZN3qbs8Internal16ProductBuildDataD1Ev@Base 1.10.0
 _ZN3qbs8Internal16ProductBuildDataD2Ev@Base 1.10.0
 _ZN3qbs8Internal16ProductInstaller11handleErrorERK7QString@Base 1.22.0
 _ZN3qbs8Internal16ProductInstaller14targetFilePathEPKNS0_15TopLevelProjectERK7QStringS7_RKSt10shared_ptrIKNS0_19PropertyMapInternalEERNS_14InstallOptionsE@Base 1.22.0
 _ZN3qbs8Internal16ProductInstaller15initInstallRootEPKNS0_15TopLevelProjectERNS_14InstallOptionsE@Base 1.22.0
 _ZN3qbs8Internal16ProductInstaller17removeInstallRootEv@Base 1.22.0
 _ZN3qbs8Internal16ProductInstaller7installEv@Base 1.22.0
 _ZN3qbs8Internal16ProductInstaller8copyFileEPKNS0_8ArtifactE@Base 1.22.0
 _ZN3qbs8Internal16ProductInstallerC1ESt10shared_ptrINS0_15TopLevelProjectEE7QVectorIS2_INS0_15ResolvedProductEEENS_14InstallOptionsEPNS0_16ProgressObserverENS0_6LoggerE@Base 1.22.0
 _ZN3qbs8Internal16ProductInstallerC2ESt10shared_ptrINS0_15TopLevelProjectEE7QVectorIS2_INS0_15ResolvedProductEEENS_14InstallOptionsEPNS0_16ProgressObserverENS0_6LoggerE@Base 1.22.0
 _ZN3qbs8Internal16ProductInstallerD1Ev@Base 1.22.0
 _ZN3qbs8Internal16ProductInstallerD2Ev@Base 1.22.0
 _ZN3qbs8Internal16ProgressObserver11setFinishedEv@Base 1.22.0
 _ZN3qbs8Internal16ProgressObserver22incrementProgressValueEi@Base 1.22.0
 _ZN3qbs8Internal16ProjectBuildData14removeArtifactEPNS0_8ArtifactERKNS0_6LoggerEbb@Base 1.10.0
 _ZN3qbs8Internal16ProjectBuildData20insertFileDependencyEPNS0_14FileDependencyE@Base 1.10.0
 _ZN3qbs8Internal16ProjectBuildData21insertIntoLookupTableEPNS0_16FileResourceBaseE@Base 1.10.0
 _ZN3qbs8Internal16ProjectBuildData21removeFromLookupTableEPNS0_16FileResourceBaseE@Base 1.10.0
 _ZN3qbs8Internal16ProjectBuildData24deriveBuildGraphFilePathERK7QStringS4_@Base 1.10.0
 _ZN3qbs8Internal16ProjectBuildData36removeArtifactAndExclusiveDependentsEPNS0_8ArtifactERKNS0_6LoggerEbPNS0_3SetIS3_EE@Base 1.10.0
 _ZN3qbs8Internal16ProjectBuildData4loadERNS0_14PersistentPoolE@Base 1.10.0
 _ZN3qbs8Internal16ProjectBuildData5storeERNS0_14PersistentPoolE@Base 1.12.0
 _ZN3qbs8Internal16ProjectBuildData8setCleanEv@Base 1.12.0
 _ZN3qbs8Internal16ProjectBuildData8setDirtyEv@Base 1.12.0
 _ZN3qbs8Internal16ProjectBuildDataC1EPKS1_@Base 1.10.0
 _ZN3qbs8Internal16ProjectBuildDataC2EPKS1_@Base 1.10.0
 _ZN3qbs8Internal16ProjectBuildDataD1Ev@Base 1.10.0
 _ZN3qbs8Internal16ProjectBuildDataD2Ev@Base 1.10.0
 _ZN3qbs8Internal16QbsPluginManager11loadPluginsERKSt6vectorINSt7__cxx1112basic_stringIcSt11char_traitsIcESaIcEEESaIS8_EERKNS0_6LoggerE@Base 1.11.0
 _ZN3qbs8Internal16QbsPluginManager17loadStaticPluginsEv@Base 1.10.0
 _ZN3qbs8Internal16QbsPluginManager19unloadStaticPluginsEv@Base 1.10.0
 _ZN3qbs8Internal16QbsPluginManager20registerStaticPluginEPFvvES3_@Base 1.10.0
 _ZN3qbs8Internal16QbsPluginManager8instanceEv@Base 1.10.0
 _ZN3qbs8Internal16QbsPluginManagerC1Ev@Base 1.10.0
 _ZN3qbs8Internal16QbsPluginManagerC2Ev@Base 1.10.0
 _ZN3qbs8Internal16QbsPluginManagerD1Ev@Base 1.10.0
 _ZN3qbs8Internal16QbsPluginManagerD2Ev@Base 1.10.0
 _ZN3qbs8Internal16RuleGraphVisitor8endVisitERKSt10shared_ptrIKNS0_4RuleEE@Base 1.22.0
 _ZN3qbs8Internal16processNameByPidEx@Base 1.10.0
 _ZN3qbs8Internal16shellInterpreterERK7QString@Base 1.4.0
 _ZN3qbs8Internal17ASTImportsHandler12addPrototypeERK7QStringS4_S4_b@Base 1.22.0
 _ZN3qbs8Internal17ASTImportsHandler12handleImportEPKN8QbsQmlJS3AST8UiImportEPb@Base 1.22.0
 _ZN3qbs8Internal17ASTImportsHandler13handleImportsEPKN8QbsQmlJS3AST12UiImportListE@Base 1.22.0
 _ZN3qbs8Internal17ASTImportsHandler17collectPrototypesERK7QStringS4_@Base 1.22.0
 _ZN3qbs8Internal17ASTImportsHandler17readImportVersionERK7QStringRKNS_12CodeLocationE@Base 1.22.0
 _ZN3qbs8Internal17ASTImportsHandler33collectPrototypesAndJsCollectionsERK7QStringS4_RKNS_12CodeLocationE@Base 1.22.0
 _ZN3qbs8Internal17ASTImportsHandlerC1ERNS0_22ItemReaderVisitorStateERNS0_6LoggerERKSt10shared_ptrINS0_11FileContextEE@Base 1.22.0
 _ZN3qbs8Internal17ASTImportsHandlerC2ERNS0_22ItemReaderVisitorStateERNS0_6LoggerERKSt10shared_ptrINS0_11FileContextEE@Base 1.22.0
 _ZN3qbs8Internal17ASTImportsHandlerD1Ev@Base 1.22.0
 _ZN3qbs8Internal17ASTImportsHandlerD2Ev@Base 1.22.0
 _ZN3qbs8Internal17AccumulatingTimer4stopEv@Base 1.22.0
 _ZN3qbs8Internal17AccumulatingTimerC1EPx@Base 1.22.0
 _ZN3qbs8Internal17AccumulatingTimerC2EPx@Base 1.22.0
 _ZN3qbs8Internal17AccumulatingTimerD1Ev@Base 1.22.0
 _ZN3qbs8Internal17AccumulatingTimerD2Ev@Base 1.22.0
 _ZN3qbs8Internal17BuildDataResolver16resolveBuildDataERKSt10shared_ptrINS0_15TopLevelProjectEERKS2_INS0_22RulesEvaluationContextEE@Base 1.22.0
 _ZN3qbs8Internal17BuildDataResolver23resolveProductBuildDataERKSt10shared_ptrINS0_15ResolvedProductEE@Base 1.22.0
 _ZN3qbs8Internal17BuildDataResolver26connectRulesToDependenciesERKSt10shared_ptrINS0_15ResolvedProductEERKSt6vectorIS4_SaIS4_EE@Base 1.22.0
 _ZN3qbs8Internal17BuildDataResolver41resolveProductBuildDataForExistingProjectERKSt10shared_ptrINS0_15TopLevelProjectEERKSt6vectorIS2_INS0_15ResolvedProductEESaIS9_EE@Base 1.22.0
 _ZN3qbs8Internal17BuildDataResolverC1ENS0_6LoggerE@Base 1.22.0
 _ZN3qbs8Internal17BuildDataResolverC2ENS0_6LoggerE@Base 1.22.0
 _ZN3qbs8Internal17BuildDataResolverD1Ev@Base 1.22.0
 _ZN3qbs8Internal17BuildDataResolverD2Ev@Base 1.22.0
 _ZN3qbs8Internal17BuildGraphVisitor5visitEPNS0_8ArtifactE@Base 1.22.0
 _ZN3qbs8Internal17BuildGraphVisitor5visitEPNS0_8RuleNodeE@Base 1.22.0
 _ZN3qbs8Internal17BuildGraphVisitor8endVisitEPNS0_8ArtifactE@Base 1.22.0
 _ZN3qbs8Internal17BuildGraphVisitor8endVisitEPNS0_8RuleNodeE@Base 1.22.0
 _ZN3qbs8Internal17FileInfoExtension11js_baseNameEP14QScriptContextP13QScriptEngine@Base 1.22.0
 _ZN3qbs8Internal17FileInfoExtension11js_fileNameEP14QScriptContextP13QScriptEngine@Base 1.22.0
 _ZN3qbs8Internal17FileInfoExtension11qt_metacallEN11QMetaObject4CallEiPPv@Base 1.22.0
 _ZN3qbs8Internal17FileInfoExtension11qt_metacastEPKc@Base 1.22.0
 _ZN3qbs8Internal17FileInfoExtension12js_cleanPathEP14QScriptContextP13QScriptEngine@Base 1.22.0
 _ZN3qbs8Internal17FileInfoExtension12js_joinPathsEP14QScriptContextP13QScriptEngine@Base 1.22.0
 _ZN3qbs8Internal17FileInfoExtension14js_resolvePathEP14QScriptContextP13QScriptEngine@Base 1.22.0
 _ZN3qbs8Internal17FileInfoExtension15js_relativePathEP14QScriptContextP13QScriptEngine@Base 1.22.0
 _ZN3qbs8Internal17FileInfoExtension16js_canonicalPathEP14QScriptContextP13QScriptEngine@Base 1.22.0
 _ZN3qbs8Internal17FileInfoExtension16js_pathSeparatorEP14QScriptContextP13QScriptEngine@Base 1.22.0
 _ZN3qbs8Internal17FileInfoExtension16staticMetaObjectE@Base 1.22.0
 _ZN3qbs8Internal17FileInfoExtension17js_completeSuffixEP14QScriptContextP13QScriptEngine@Base 1.22.0
 _ZN3qbs8Internal17FileInfoExtension17js_isAbsolutePathEP14QScriptContextP13QScriptEngine@Base 1.22.0
 _ZN3qbs8Internal17FileInfoExtension19js_completeBaseNameEP14QScriptContextP13QScriptEngine@Base 1.22.0
 _ZN3qbs8Internal17FileInfoExtension20js_pathListSeparatorEP14QScriptContextP13QScriptEngine@Base 1.22.0
 _ZN3qbs8Internal17FileInfoExtension21js_toNativeSeparatorsEP14QScriptContextP13QScriptEngine@Base 1.22.0
 _ZN3qbs8Internal17FileInfoExtension22js_toWindowsSeparatorsEP14QScriptContextP13QScriptEngine@Base 1.22.0
 _ZN3qbs8Internal17FileInfoExtension23js_fromNativeSeparatorsEP14QScriptContextP13QScriptEngine@Base 1.22.0
 _ZN3qbs8Internal17FileInfoExtension24js_fromWindowsSeparatorsEP14QScriptContextP13QScriptEngine@Base 1.22.0
 _ZN3qbs8Internal17FileInfoExtension7js_ctorEP14QScriptContextP13QScriptEngine@Base 1.22.0
 _ZN3qbs8Internal17FileInfoExtension7js_pathEP14QScriptContextP13QScriptEngine@Base 1.22.0
 _ZN3qbs8Internal17FileInfoExtension9js_suffixEP14QScriptContextP13QScriptEngine@Base 1.22.0
 _ZN3qbs8Internal17FileInfoExtensionD0Ev@Base 1.22.0
 _ZN3qbs8Internal17FileInfoExtensionD1Ev@Base 1.22.0
 _ZN3qbs8Internal17FileInfoExtensionD2Ev@Base 1.22.0
 _ZN3qbs8Internal17JavaScriptCommand18setupForJavaScriptE12QScriptValue@Base 1.22.0
 _ZN3qbs8Internal17JavaScriptCommand19fillFromScriptValueEPK12QScriptValueRKNS_12CodeLocationE@Base 1.22.0
 _ZN3qbs8Internal17JavaScriptCommand4loadERNS0_14PersistentPoolE@Base 1.22.0
 _ZN3qbs8Internal17JavaScriptCommand5storeERNS0_14PersistentPoolE@Base 1.22.0
 _ZN3qbs8Internal17JavaScriptCommandC1Ev@Base 1.22.0
 _ZN3qbs8Internal17JavaScriptCommandC2Ev@Base 1.22.0
 _ZN3qbs8Internal17JavaScriptCommandD0Ev@Base 1.22.0
 _ZN3qbs8Internal17JavaScriptCommandD1Ev@Base 1.22.0
 _ZN3qbs8Internal17JavaScriptCommandD2Ev@Base 1.22.0
 _ZN3qbs8Internal17JsCommandExecutor11qt_metacallEN11QMetaObject4CallEiPPv@Base 1.22.0
 _ZN3qbs8Internal17JsCommandExecutor11qt_metacastEPKc@Base 1.22.0
 _ZN3qbs8Internal17JsCommandExecutor14startRequestedEPKNS0_17JavaScriptCommandEPNS0_11TransformerE@Base 1.22.0
 _ZN3qbs8Internal17JsCommandExecutor15waitForFinishedEv@Base 1.22.0
 _ZN3qbs8Internal17JsCommandExecutor16staticMetaObjectE@Base 1.22.0
 _ZN3qbs8Internal17JsCommandExecutor26doReportCommandDescriptionERK7QString@Base 1.22.0
 _ZN3qbs8Internal17JsCommandExecutor27onJavaScriptCommandFinishedEv@Base 1.22.0
 _ZN3qbs8Internal17JsCommandExecutor6cancelERKNS_9ErrorInfoE@Base 1.22.0
 _ZN3qbs8Internal17JsCommandExecutor7doStartEv@Base 1.22.0
 _ZN3qbs8Internal17JsCommandExecutorC1ERKNS0_6LoggerEP7QObject@Base 1.22.0
 _ZN3qbs8Internal17JsCommandExecutorC2ERKNS0_6LoggerEP7QObject@Base 1.22.0
 _ZN3qbs8Internal17JsCommandExecutorD0Ev@Base 1.22.0
 _ZN3qbs8Internal17JsCommandExecutorD1Ev@Base 1.22.0
 _ZN3qbs8Internal17JsCommandExecutorD2Ev@Base 1.22.0
 _ZN3qbs8Internal17LauncherInterface11qt_metacallEN11QMetaObject4CallEiPPv@Base 1.22.0
 _ZN3qbs8Internal17LauncherInterface11qt_metacastEPKc@Base 1.22.0
 _ZN3qbs8Internal17LauncherInterface13errorOccurredERKNS_9ErrorInfoE@Base 1.22.0
 _ZN3qbs8Internal17LauncherInterface16staticMetaObjectE@Base 1.22.0
 _ZN3qbs8Internal17LauncherInterface18handleProcessErrorEv@Base 1.22.0
 _ZN3qbs8Internal17LauncherInterface19handleNewConnectionEv@Base 1.22.0
 _ZN3qbs8Internal17LauncherInterface19handleProcessStderrEv@Base 1.22.0
 _ZN3qbs8Internal17LauncherInterface21handleProcessFinishedEv@Base 1.22.0
 _ZN3qbs8Internal17LauncherInterface6doStopEv@Base 1.22.0
 _ZN3qbs8Internal17LauncherInterface7doStartEv@Base 1.22.0
 _ZN3qbs8Internal17LauncherInterface8instanceEv@Base 1.22.0
 _ZN3qbs8Internal17LauncherInterfaceC1Ev@Base 1.22.0
 _ZN3qbs8Internal17LauncherInterfaceC2Ev@Base 1.22.0
 _ZN3qbs8Internal17LauncherInterfaceD0Ev@Base 1.22.0
 _ZN3qbs8Internal17LauncherInterfaceD1Ev@Base 1.22.0
 _ZN3qbs8Internal17LauncherInterfaceD2Ev@Base 1.22.0
 _ZN3qbs8Internal17NoBuildGraphErrorC1ERK7QString@Base 1.22.0
 _ZN3qbs8Internal17NoBuildGraphErrorC2ERK7QString@Base 1.22.0
 _ZN3qbs8Internal17NoBuildGraphErrorD1Ev@Base 1.22.0
 _ZN3qbs8Internal17NoBuildGraphErrorD2Ev@Base 1.22.0
 _ZN3qbs8Internal17StopProcessPacket13doDeserializeER11QDataStream@Base 1.22.0
 (subst)_ZN3qbs8Internal17StopProcessPacketC1E{quintptr}@Base 1.22.0
 (subst)_ZN3qbs8Internal17StopProcessPacketC2E{quintptr}@Base 1.22.0
 _ZN3qbs8Internal17StopProcessPacketD0Ev@Base 1.22.0
 _ZN3qbs8Internal17StopProcessPacketD1Ev@Base 1.22.0
 _ZN3qbs8Internal17StopProcessPacketD2Ev@Base 1.22.0
 _ZN3qbs8Internal17TimestampsUpdater16updateTimestampsERKSt10shared_ptrINS0_15TopLevelProjectEERK7QVectorIS2_INS0_15ResolvedProductEEERKNS0_6LoggerE@Base 1.22.0
 _ZN3qbs8Internal17commandsNeedRerunEPNS0_11TransformerEPKNS0_15ResolvedProductERKSt13unordered_mapI7QStringS5_St4hashIS7_ESt8equal_toIS7_ESaISt4pairIKS7_S5_EEERKS6_IS7_PKNS0_15ResolvedProjectES9_SB_SaISC_ISD_SL_EEE@Base 1.22.0
 _ZN3qbs8Internal17copyFileRecursionERK7QStringS3_bbPS1_@Base 1.5.0
 _ZN3qbs8Internal17elapsedTimeStringEx@Base 1.22.0
 _ZN3qbs8Internal17getConfigPropertyERK4QMapI7QString8QVariantERK11QStringList@Base 1.10.0
 _ZN3qbs8Internal17lcProjectResolverEv@Base 1.22.0
 _ZN3qbs8Internal17ruleListsAreEqualERKSt6vectorISt10shared_ptrINS0_4RuleEESaIS4_EES8_@Base 1.22.0
 _ZN3qbs8Internal17setConfigPropertyER4QMapI7QString8QVariantERK11QStringListRKS3_@Base 1.22.0
 _ZN3qbs8Internal18ArtifactProperties16addExtraFileTagsERKNS0_8FileTagsE@Base 1.22.0
 _ZN3qbs8Internal18ArtifactProperties6createEv@Base 1.22.0
 _ZN3qbs8Internal18ArtifactPropertiesC1Ev@Base 1.22.0
 _ZN3qbs8Internal18ArtifactPropertiesC2Ev@Base 1.22.0
 (arch=riscv64)_ZN3qbs8Internal18ArtifactPropertiesD1Ev@Base 1.22.0
 (arch=riscv64)_ZN3qbs8Internal18ArtifactPropertiesD2Ev@Base 1.22.0
 _ZN3qbs8Internal18FilesBindingFinder5visitEPN8QbsQmlJS3AST15UiScriptBindingE@Base 1.22.0
 _ZN3qbs8Internal18FilesBindingFinder5visitEPN8QbsQmlJS3AST18UiObjectDefinitionE@Base 1.22.0
 _ZN3qbs8Internal18FilesBindingFinderD0Ev@Base 1.22.0
 _ZN3qbs8Internal18FilesBindingFinderD1Ev@Base 1.22.0
 _ZN3qbs8Internal18FilesBindingFinderD2Ev@Base 1.22.0
 _ZN3qbs8Internal18InternalInstallJob11qt_metacallEN11QMetaObject4CallEiPPv@Base 1.22.0
 _ZN3qbs8Internal18InternalInstallJob11qt_metacastEPKc@Base 1.22.0
 _ZN3qbs8Internal18InternalInstallJob16staticMetaObjectE@Base 1.22.0
 _ZN3qbs8Internal18InternalInstallJob4initERKSt10shared_ptrINS0_15TopLevelProjectEERK7QVectorIS2_INS0_15ResolvedProductEEERKNS_14InstallOptionsE@Base 1.22.0
 _ZN3qbs8Internal18InternalInstallJob5startEv@Base 1.22.0
 _ZN3qbs8Internal18InternalInstallJobC1ERKNS0_6LoggerE@Base 1.22.0
 _ZN3qbs8Internal18InternalInstallJobC2ERKNS0_6LoggerE@Base 1.22.0
 _ZN3qbs8Internal18InternalInstallJobD0Ev@Base 1.22.0
 _ZN3qbs8Internal18InternalInstallJobD1Ev@Base 1.22.0
 _ZN3qbs8Internal18InternalInstallJobD2Ev@Base 1.22.0
 _ZN3qbs8Internal18ModuleLoaderResult11ProductInfo10DependencyC1ERKS3_@Base 1.22.0
 _ZN3qbs8Internal18ModuleLoaderResult11ProductInfo10DependencyC2ERKS3_@Base 1.22.0
 _ZN3qbs8Internal18ModuleLoaderResult11ProductInfo10DependencyD1Ev@Base 1.22.0
 _ZN3qbs8Internal18ModuleLoaderResult11ProductInfo10DependencyD2Ev@Base 1.22.0
 (optional=implicit)_ZN3qbs8Internal18ModuleLoaderResult11ProductInfoC1ERKS2_@Base 1.22.0
 (optional=implicit)_ZN3qbs8Internal18ModuleLoaderResult11ProductInfoC2ERKS2_@Base 1.22.0
 _ZN3qbs8Internal18ModuleLoaderResult11ProductInfoD1Ev@Base 1.22.0
 _ZN3qbs8Internal18ModuleLoaderResult11ProductInfoD2Ev@Base 1.22.0
 (optional=implicit)_ZN3qbs8Internal18ModuleLoaderResultC1ERKS1_@Base 1.22.0
 (optional=implicit)_ZN3qbs8Internal18ModuleLoaderResultC2ERKS1_@Base 1.22.0
 _ZN3qbs8Internal18ModuleLoaderResultD1Ev@Base 1.22.0
 _ZN3qbs8Internal18ModuleLoaderResultD2Ev@Base 1.22.0
 (optional=inline)_ZN3qbs8Internal18ModuleProviderInfo13outputDirPathERK7QStringRKNS0_11QualifiedIdE@Base 1.22.0
 _ZN3qbs8Internal18ModuleProviderInfoD1Ev@Base 1.22.0
 _ZN3qbs8Internal18ModuleProviderInfoD2Ev@Base 1.22.0
 _ZN3qbs8Internal18ProcessErrorPacket13doDeserializeER11QDataStream@Base 1.22.0
 (subst)_ZN3qbs8Internal18ProcessErrorPacketC1E{quintptr}@Base 1.22.0
 (subst)_ZN3qbs8Internal18ProcessErrorPacketC2E{quintptr}@Base 1.22.0
 _ZN3qbs8Internal18ProcessErrorPacketD0Ev@Base 1.22.0
 _ZN3qbs8Internal18ProcessErrorPacketD1Ev@Base 1.22.0
 _ZN3qbs8Internal18ProcessErrorPacketD2Ev@Base 1.22.0
 _ZN3qbs8Internal18ProjectFileUpdater19guessLineEndingTypeERK10QByteArray@Base 1.22.0
 _ZN3qbs8Internal18ProjectFileUpdater24convertToUnixLineEndingsEP10QByteArrayNS1_14LineEndingTypeE@Base 1.22.0
 _ZN3qbs8Internal18ProjectFileUpdater26convertFromUnixLineEndingsEP10QByteArrayNS1_14LineEndingTypeE@Base 1.22.0
 _ZN3qbs8Internal18ProjectFileUpdater5applyEv@Base 1.22.0
 _ZN3qbs8Internal18ProjectFileUpdaterC1E7QString@Base 1.22.0
 _ZN3qbs8Internal18ProjectFileUpdaterC2E7QString@Base 1.22.0
 _ZN3qbs8Internal18ProjectFileUpdaterD0Ev@Base 1.22.0
 _ZN3qbs8Internal18ProjectFileUpdaterD1Ev@Base 1.22.0
 _ZN3qbs8Internal18ProjectFileUpdaterD2Ev@Base 1.22.0
 _ZN3qbs8Internal18RequestedArtifacts18setAllArtifactTagsEPKNS0_15ResolvedProductEb@Base 1.22.0
 _ZN3qbs8Internal18RequestedArtifacts18setArtifactsForTagEPKNS0_15ResolvedProductERKNS0_7FileTagE@Base 1.22.0
 _ZN3qbs8Internal18RequestedArtifacts22setArtifactsEnumeratedEPKNS0_15ResolvedProductE@Base 1.22.0
 _ZN3qbs8Internal18RequestedArtifacts26setNonExistingTagRequestedEPKNS0_15ResolvedProductERK7QString@Base 1.22.0
 _ZN3qbs8Internal18RequestedArtifacts28RequestedArtifactsPerProduct4loadERNS0_14PersistentPoolE@Base 1.22.0
 _ZN3qbs8Internal18RequestedArtifacts28RequestedArtifactsPerProduct5storeERNS0_14PersistentPoolE@Base 1.22.0
 _ZN3qbs8Internal18RequestedArtifacts28RequestedArtifactsPerProduct5uniteERKS2_@Base 1.22.0
 (optional=implicit)_ZN3qbs8Internal18RequestedArtifacts28RequestedArtifactsPerProductD1Ev@Base 1.22.0
 (optional=implicit)_ZN3qbs8Internal18RequestedArtifacts28RequestedArtifactsPerProductD2Ev@Base 1.22.0
 _ZN3qbs8Internal18RequestedArtifacts4loadERNS0_14PersistentPoolE@Base 1.22.0
 _ZN3qbs8Internal18RequestedArtifacts5storeERNS0_14PersistentPoolE@Base 1.22.0
 _ZN3qbs8Internal18RequestedArtifacts5uniteERKS1_@Base 1.22.0
 _ZN3qbs8Internal18SearchPathsManager5resetEv@Base 1.22.0
 _ZN3qbs8Internal18StartProcessPacket13doDeserializeER11QDataStream@Base 1.22.0
 (subst)_ZN3qbs8Internal18StartProcessPacketC1E{quintptr}@Base 1.22.0
 (subst)_ZN3qbs8Internal18StartProcessPacketC2E{quintptr}@Base 1.22.0
 _ZN3qbs8Internal18StartProcessPacketD0Ev@Base 1.22.0
 _ZN3qbs8Internal18StartProcessPacketD1Ev@Base 1.22.0
 _ZN3qbs8Internal18StartProcessPacketD2Ev@Base 1.22.0
 _ZN3qbs8Internal18UtilitiesExtension10js_getHashEP14QScriptContextP13QScriptEngine@Base 1.22.0
 _ZN3qbs8Internal18UtilitiesExtension11qt_metacallEN11QMetaObject4CallEiPPv@Base 1.22.0
 _ZN3qbs8Internal18UtilitiesExtension11qt_metacastEPKc@Base 1.22.0
 _ZN3qbs8Internal18UtilitiesExtension14js_qmlTypeInfoEP14QScriptContextP13QScriptEngine@Base 1.22.0
 _ZN3qbs8Internal18UtilitiesExtension15js_cStringQuoteEP14QScriptContextP13QScriptEngine@Base 1.22.0
 _ZN3qbs8Internal18UtilitiesExtension16js_kernelVersionEP14QScriptContextP13QScriptEngine@Base 1.22.0
 _ZN3qbs8Internal18UtilitiesExtension16staticMetaObjectE@Base 1.22.0
 _ZN3qbs8Internal18UtilitiesExtension17js_installedMSVCsEP14QScriptContextP13QScriptEngine@Base 1.22.0
 _ZN3qbs8Internal18UtilitiesExtension17js_versionCompareEP14QScriptContextP13QScriptEngine@Base 1.22.0
 _ZN3qbs8Internal18UtilitiesExtension18js_certificateInfoEP14QScriptContextP13QScriptEngine@Base 1.22.0
 _ZN3qbs8Internal18UtilitiesExtension18js_isSharedLibraryEP14QScriptContextP13QScriptEngine@Base 1.22.0
 _ZN3qbs8Internal18UtilitiesExtension19js_getNativeSettingEP14QScriptContextP13QScriptEngine@Base 1.22.0
 _ZN3qbs8Internal18UtilitiesExtension19js_msvcCompilerInfoEP14QScriptContextP13QScriptEngine@Base 1.22.0
 _ZN3qbs8Internal18UtilitiesExtension20js_canonicalPlatformEP14QScriptContextP13QScriptEngine@Base 1.22.0
 _ZN3qbs8Internal18UtilitiesExtension20js_installedClangClsEP14QScriptContextP13QScriptEngine@Base 1.22.0
 _ZN3qbs8Internal18UtilitiesExtension20js_rfc1034identifierEP14QScriptContextP13QScriptEngine@Base 1.22.0
 _ZN3qbs8Internal18UtilitiesExtension20js_signingIdentitiesEP14QScriptContextP13QScriptEngine@Base 1.22.0
 _ZN3qbs8Internal18UtilitiesExtension21js_canonicalToolchainEP14QScriptContextP13QScriptEngine@Base 1.22.0
 _ZN3qbs8Internal18UtilitiesExtension22js_clangClCompilerInfoEP14QScriptContextP13QScriptEngine@Base 1.22.0
 _ZN3qbs8Internal18UtilitiesExtension22js_nativeSettingGroupsEP14QScriptContextP13QScriptEngine@Base 1.22.0
 _ZN3qbs8Internal18UtilitiesExtension22js_smimeMessageContentEP14QScriptContextP13QScriptEngine@Base 1.22.0
 _ZN3qbs8Internal18UtilitiesExtension24js_builtinExtensionNamesEP14QScriptContextP13QScriptEngine@Base 1.22.0
 _ZN3qbs8Internal18UtilitiesExtension24js_canonicalArchitectureEP14QScriptContextP13QScriptEngine@Base 1.22.0
 _ZN3qbs8Internal18UtilitiesExtension29js_getArchitecturesFromBinaryEP14QScriptContextP13QScriptEngine@Base 1.22.0
 _ZN3qbs8Internal18UtilitiesExtension30js_canonicalTargetArchitectureEP14QScriptContextP13QScriptEngine@Base 1.22.0
 _ZN3qbs8Internal18UtilitiesExtension7js_ctorEP14QScriptContextP13QScriptEngine@Base 1.22.0
 _ZN3qbs8Internal18UtilitiesExtensionD0Ev@Base 1.22.0
 _ZN3qbs8Internal18UtilitiesExtensionD1Ev@Base 1.22.0
 _ZN3qbs8Internal18UtilitiesExtensionD2Ev@Base 1.22.0
 _ZN3qbs8Internal18gatherDependenciesEPNS0_15ResolvedProductER5QHashIS2_NS0_3SetIS2_EEE@Base 1.22.0
 _ZN3qbs8Internal18loadBuildGraphNodeERNS0_14PersistentPoolE@Base 1.22.0
 _ZN3qbs8Internal19BuiltinDeclarations11addRuleItemEv@Base 1.22.0
 _ZN3qbs8Internal19BuiltinDeclarations12addGroupItemEv@Base 1.22.0
 _ZN3qbs8Internal19BuiltinDeclarations12addProbeItemEv@Base 1.22.0
 _ZN3qbs8Internal19BuiltinDeclarations13addExportItemEv@Base 1.22.0
 _ZN3qbs8Internal19BuiltinDeclarations13addModuleItemEv@Base 1.22.0
 _ZN3qbs8Internal19BuiltinDeclarations14addDependsItemEv@Base 1.22.0
 _ZN3qbs8Internal19BuiltinDeclarations14addProductItemEv@Base 1.22.0
 _ZN3qbs8Internal19BuiltinDeclarations14addProfileItemEv@Base 1.22.0
 _ZN3qbs8Internal19BuiltinDeclarations14addProjectItemEv@Base 1.22.0
 _ZN3qbs8Internal19BuiltinDeclarations14addScannerItemEv@Base 1.22.0
 _ZN3qbs8Internal19BuiltinDeclarations14moduleLikeItemENS0_8ItemTypeE@Base 1.22.0
 _ZN3qbs8Internal19BuiltinDeclarations15addArtifactItemEv@Base 1.22.0
 _ZN3qbs8Internal19BuiltinDeclarations15addJobLimitItemEv@Base 1.22.0
 _ZN3qbs8Internal19BuiltinDeclarations17addFileTaggerItemEv@Base 1.22.0
 _ZN3qbs8Internal19BuiltinDeclarations17addPropertiesItemEv@Base 1.22.0
 _ZN3qbs8Internal19BuiltinDeclarations17addSubprojectItemEv@Base 1.22.0
 _ZN3qbs8Internal19BuiltinDeclarations18addTransformerItemEv@Base 1.22.0
 _ZN3qbs8Internal19BuiltinDeclarations21addModuleProviderItemEv@Base 1.22.0
 _ZN3qbs8Internal19BuiltinDeclarations22addPropertyOptionsItemEv@Base 1.22.0
 _ZN3qbs8Internal19BuiltinDeclarations6insertERKNS0_15ItemDeclarationE@Base 1.22.0
 _ZN3qbs8Internal19BuiltinDeclarations8instanceEv@Base 1.22.0
 _ZN3qbs8Internal19BuiltinDeclarationsC1Ev@Base 1.22.0
 _ZN3qbs8Internal19BuiltinDeclarationsC2Ev@Base 1.22.0
 (optional=inline)_ZN3qbs8Internal19IdentifierExtractor3addE11QStringView@Base 1.22.0
 _ZN3qbs8Internal19IdentifierExtractor5visitEPN8QbsQmlJS3AST14SourceElementsE@Base 1.22.0
 _ZN3qbs8Internal19IdentifierExtractor5visitEPN8QbsQmlJS3AST19VariableDeclarationE@Base 1.22.0
 _ZN3qbs8Internal19IdentifierExtractor5visitEPN8QbsQmlJS3AST21FunctionSourceElementE@Base 1.22.0
 _ZN3qbs8Internal19IdentifierExtractor8endVisitEPN8QbsQmlJS3AST14SourceElementsE@Base 1.22.0
 _ZN3qbs8Internal19IdentifierExtractorD0Ev@Base 1.22.0
 _ZN3qbs8Internal19IdentifierExtractorD1Ev@Base 1.22.0
 _ZN3qbs8Internal19IdentifierExtractorD2Ev@Base 1.22.0
 _ZN3qbs8Internal19PropertyDeclaration10typeStringENS1_4TypeE@Base 1.22.0
 _ZN3qbs8Internal19PropertyDeclaration14setDescriptionERK7QString@Base 1.22.0
 _ZN3qbs8Internal19PropertyDeclaration16setAllowedValuesERK11QStringList@Base 1.22.0
 _ZN3qbs8Internal19PropertyDeclaration18setDeprecationInfoERKNS0_15DeprecationInfoE@Base 1.22.0
 _ZN3qbs8Internal19PropertyDeclaration21convertToPropertyTypeERK8QVariantNS1_4TypeERK11QStringListRK7QString@Base 1.22.0
 _ZN3qbs8Internal19PropertyDeclaration21setInitialValueSourceERK7QString@Base 1.22.0
 _ZN3qbs8Internal19PropertyDeclaration22propertyTypeFromStringERK7QString@Base 1.22.0
 _ZN3qbs8Internal19PropertyDeclaration24setFunctionArgumentNamesERK11QStringList@Base 1.22.0
 _ZN3qbs8Internal19PropertyDeclaration7setNameERK7QString@Base 1.22.0
 _ZN3qbs8Internal19PropertyDeclaration7setTypeENS1_4TypeE@Base 1.22.0
 _ZN3qbs8Internal19PropertyDeclaration8setFlagsE6QFlagsINS1_4FlagEE@Base 1.22.0
 _ZN3qbs8Internal19PropertyDeclarationC1ERK7QStringNS1_4TypeES4_6QFlagsINS1_4FlagEE@Base 1.22.0
 _ZN3qbs8Internal19PropertyDeclarationC1ERKS1_@Base 1.22.0
 _ZN3qbs8Internal19PropertyDeclarationC1Ev@Base 1.22.0
 _ZN3qbs8Internal19PropertyDeclarationC2ERK7QStringNS1_4TypeES4_6QFlagsINS1_4FlagEE@Base 1.22.0
 _ZN3qbs8Internal19PropertyDeclarationC2ERKS1_@Base 1.22.0
 _ZN3qbs8Internal19PropertyDeclarationC2Ev@Base 1.22.0
 _ZN3qbs8Internal19PropertyDeclarationD1Ev@Base 1.22.0
 _ZN3qbs8Internal19PropertyDeclarationD2Ev@Base 1.22.0
 _ZN3qbs8Internal19PropertyDeclarationaSERKS1_@Base 1.22.0
 _ZN3qbs8Internal19PropertyMapInternal8setValueERK4QMapI7QString8QVariantE@Base 1.10.0
 _ZN3qbs8Internal19PropertyMapInternalC1ERKS1_@Base 1.10.0
 _ZN3qbs8Internal19PropertyMapInternalC1Ev@Base 1.10.0
 _ZN3qbs8Internal19PropertyMapInternalC2ERKS1_@Base 1.10.0
 _ZN3qbs8Internal19PropertyMapInternalC2Ev@Base 1.10.0
 _ZN3qbs8Internal19ResolvedFileContextC1ERKNS0_15FileContextBaseE@Base 1.22.0
 _ZN3qbs8Internal19ResolvedFileContextC2ERKNS0_15FileContextBaseE@Base 1.22.0
 _ZN3qbs8Internal19TimedActivityLogger14finishActivityEv@Base 1.22.0
 _ZN3qbs8Internal19TimedActivityLoggerC1ERKNS0_6LoggerERK7QStringb@Base 1.22.0
 _ZN3qbs8Internal19TimedActivityLoggerC2ERKNS0_6LoggerERK7QStringb@Base 1.22.0
 _ZN3qbs8Internal19TimedActivityLoggerD1Ev@Base 1.22.0
 _ZN3qbs8Internal19TimedActivityLoggerD2Ev@Base 1.22.0
 _ZN3qbs8Internal19multiplexIdToStringERK7QString@Base 1.22.0
 _ZN3qbs8Internal19removeFileRecursionERK9QFileInfoP7QString@Base 1.22.0
 _ZN3qbs8Internal19storeBuildGraphNodeERNS0_14PersistentPoolEPKNS0_14BuildGraphNodeE@Base 1.22.0
 _ZN3qbs8Internal19throwAssertLocationEPKcS2_i@Base 1.2.1
 _ZN3qbs8Internal19writeAssertLocationEPKcS2_i@Base 1.2.1
 _ZN3qbs8Internal20ArtifactsScriptClass11newIteratorERK12QScriptValue@Base 1.22.0
 _ZN3qbs8Internal20ArtifactsScriptClass13queryPropertyERK12QScriptValueRK13QScriptString6QFlagsIN12QScriptClass9QueryFlagEEPj@Base 1.22.0
 _ZN3qbs8Internal20ArtifactsScriptClassD0Ev@Base 1.22.0
 _ZN3qbs8Internal20ArtifactsScriptClassD1Ev@Base 1.22.0
 _ZN3qbs8Internal20ArtifactsScriptClassD2Ev@Base 1.22.0
 _ZN3qbs8Internal20BuildGraphLoadResultD1Ev@Base 1.22.0
 _ZN3qbs8Internal20BuildGraphLoadResultD2Ev@Base 1.22.0
 _ZN3qbs8Internal20DependenciesFunction30js_exportedProductDependenciesEP14QScriptContextPNS0_12ScriptEngineEPKNS0_15ResolvedProductE@Base 1.22.0
 _ZN3qbs8Internal20DependenciesFunction30js_internalProductDependenciesEP14QScriptContextPNS0_12ScriptEngineEPKNS0_15ResolvedProductE@Base 1.22.0
 _ZN3qbs8Internal20EnvironmentExtension11js_unsetEnvEP14QScriptContextP13QScriptEngine@Base 1.22.0
 _ZN3qbs8Internal20EnvironmentExtension11qt_metacallEN11QMetaObject4CallEiPPv@Base 1.22.0
 _ZN3qbs8Internal20EnvironmentExtension11qt_metacastEPKc@Base 1.22.0
 _ZN3qbs8Internal20EnvironmentExtension13js_currentEnvEP14QScriptContextP13QScriptEngine@Base 1.22.0
 _ZN3qbs8Internal20EnvironmentExtension16staticMetaObjectE@Base 1.22.0
 _ZN3qbs8Internal20EnvironmentExtension7js_ctorEP14QScriptContextP13QScriptEngine@Base 1.22.0
 _ZN3qbs8Internal20EnvironmentExtension9js_getEnvEP14QScriptContextP13QScriptEngine@Base 1.22.0
 _ZN3qbs8Internal20EnvironmentExtension9js_putEnvEP14QScriptContextP13QScriptEngine@Base 1.22.0
 _ZN3qbs8Internal20EnvironmentExtensionD0Ev@Base 1.22.0
 _ZN3qbs8Internal20EnvironmentExtensionD1Ev@Base 1.22.0
 _ZN3qbs8Internal20EnvironmentExtensionD2Ev@Base 1.22.0
 _ZN3qbs8Internal20EvaluatorScriptClass11QueryResultD1Ev@Base 1.22.0
 _ZN3qbs8Internal20EvaluatorScriptClass11QueryResultD2Ev@Base 1.22.0
 _ZN3qbs8Internal20EvaluatorScriptClass11newIteratorERK12QScriptValue@Base 1.22.0
 _ZN3qbs8Internal20EvaluatorScriptClass13queryPropertyERK12QScriptValueRK13QScriptString6QFlagsIN12QScriptClass9QueryFlagEEPj@Base 1.22.0
 _ZN3qbs8Internal20EvaluatorScriptClass14resultToStringERK12QScriptValue@Base 1.22.0
 _ZN3qbs8Internal20EvaluatorScriptClass17queryItemPropertyEPKNS0_14EvaluationDataERK7QStringb@Base 1.22.0
 _ZN3qbs8Internal20EvaluatorScriptClass20setValueCacheEnabledEb@Base 1.22.0
 _ZN3qbs8Internal20EvaluatorScriptClass21convertToPropertyTypeEPKNS0_4ItemERKNS0_19PropertyDeclarationEPKNS0_5ValueER12QScriptValue@Base 1.22.0
 _ZN3qbs8Internal20EvaluatorScriptClass21convertToPropertyTypeERKNS0_19PropertyDeclarationERKNS_12CodeLocationER12QScriptValue@Base 1.22.0
 _ZN3qbs8Internal20EvaluatorScriptClass26collectValuesFromNextChainEPKNS0_14EvaluationDataEP12QScriptValueRK7QStringRKSt10shared_ptrINS0_5ValueEE@Base 1.22.0
 _ZN3qbs8Internal20EvaluatorScriptClass8propertyERK12QScriptValueRK13QScriptStringj@Base 1.22.0
 _ZN3qbs8Internal20EvaluatorScriptClassC1EPNS0_12ScriptEngineE@Base 1.22.0
 _ZN3qbs8Internal20EvaluatorScriptClassC2EPNS0_12ScriptEngineE@Base 1.22.0
 _ZN3qbs8Internal20EvaluatorScriptClassD0Ev@Base 1.22.0
 _ZN3qbs8Internal20EvaluatorScriptClassD1Ev@Base 1.22.0
 _ZN3qbs8Internal20EvaluatorScriptClassD2Ev@Base 1.22.0
 _ZN3qbs8Internal20InputArtifactScanner16handleDependencyERNS0_18ResolvedDependencyE@Base 1.22.0
 _ZN3qbs8Internal20InputArtifactScanner21scanWithScannerPluginEPNS0_17DependencyScannerEPNS0_8ArtifactEPNS0_16FileResourceBaseEPNS0_13RawScanResultE@Base 1.22.0
 _ZN3qbs8Internal20InputArtifactScanner23scanForFileDependenciesEPNS0_8ArtifactE@Base 1.22.0
 _ZN3qbs8Internal20InputArtifactScanner29resolveScanResultDependenciesEPKNS0_8ArtifactERKNS0_13RawScanResultEP5QListIPNS0_16FileResourceBaseEERNS0_27InputArtifactScannerContext32ScannerResolvedDependenciesCacheE@Base 1.22.0
 _ZN3qbs8Internal20InputArtifactScanner30scanForScannerFileDependenciesEPNS0_17DependencyScannerEPNS0_8ArtifactEPNS0_16FileResourceBaseEP5QListIS7_ERNS0_27InputArtifactScannerContext32ScannerResolvedDependenciesCacheE@Base 1.22.0
 _ZN3qbs8Internal20InputArtifactScanner4scanEv@Base 1.22.0
 _ZN3qbs8Internal20InputArtifactScannerC1EPNS0_8ArtifactEPNS0_27InputArtifactScannerContextENS0_6LoggerE@Base 1.22.0
 _ZN3qbs8Internal20InputArtifactScannerC2EPNS0_8ArtifactEPNS0_27InputArtifactScannerContextENS0_6LoggerE@Base 1.22.0
 _ZN3qbs8Internal20ItemReaderASTVisitor11inheritItemEPNS0_4ItemEPKS2_@Base 1.22.0
 _ZN3qbs8Internal20ItemReaderASTVisitor16doCheckItemTypesEPKNS0_4ItemE@Base 1.22.0
 _ZN3qbs8Internal20ItemReaderASTVisitor16handleBindingRhsEPN8QbsQmlJS3AST9StatementERKSt10shared_ptrINS0_13JSSourceValueEE@Base 1.22.0
 _ZN3qbs8Internal20ItemReaderASTVisitor20targetItemForBindingERK11QStringListRKSt10shared_ptrIKNS0_13JSSourceValueEE@Base 1.22.0
 _ZN3qbs8Internal20ItemReaderASTVisitor21checkDuplicateBindingEPNS0_4ItemERK11QStringListRKN8QbsQmlJS3AST14SourceLocationE@Base 1.22.0
 _ZN3qbs8Internal20ItemReaderASTVisitor22checkDeprecationStatusENS0_8ItemTypeERK7QStringRKNS_12CodeLocationE@Base 1.22.0
 _ZN3qbs8Internal20ItemReaderASTVisitor5visitEPN8QbsQmlJS3AST14UiPublicMemberE@Base 1.22.0
 _ZN3qbs8Internal20ItemReaderASTVisitor5visitEPN8QbsQmlJS3AST15UiScriptBindingE@Base 1.22.0
 _ZN3qbs8Internal20ItemReaderASTVisitor5visitEPN8QbsQmlJS3AST18UiObjectDefinitionE@Base 1.22.0
 _ZN3qbs8Internal20ItemReaderASTVisitor5visitEPN8QbsQmlJS3AST9UiProgramE@Base 1.22.0
 _ZN3qbs8Internal20ItemReaderASTVisitorC1ERNS0_22ItemReaderVisitorStateESt10shared_ptrINS0_11FileContextEEPNS0_8ItemPoolERNS0_6LoggerE@Base 1.22.0
 _ZN3qbs8Internal20ItemReaderASTVisitorC2ERNS0_22ItemReaderVisitorStateESt10shared_ptrINS0_11FileContextEEPNS0_8ItemPoolERNS0_6LoggerE@Base 1.22.0
 _ZN3qbs8Internal20ItemReaderASTVisitorD0Ev@Base 1.22.0
 _ZN3qbs8Internal20ItemReaderASTVisitorD1Ev@Base 1.22.0
 _ZN3qbs8Internal20ItemReaderASTVisitorD2Ev@Base 1.22.0
 _ZN3qbs8Internal20ModuleProviderLoader18findModuleProviderERKSt6vectorINS1_8ProviderESaIS3_EERNS0_12ModuleLoader14ProductContextERKNS_12CodeLocationE@Base 1.22.0
 _ZN3qbs8Internal20ModuleProviderLoader18getModuleProvidersEPNS0_4ItemE@Base 1.22.0
 _ZN3qbs8Internal20ModuleProviderLoader20moduleProviderConfigERNS0_12ModuleLoader14ProductContextE@Base 1.22.0
 _ZN3qbs8Internal20ModuleProviderLoader21executeModuleProviderERNS0_12ModuleLoader14ProductContextERKNS_12CodeLocationERKNS0_11QualifiedIdENS2_12FallbackModeE@Base 1.22.0
 _ZN3qbs8Internal20ModuleProviderLoader22findModuleProviderFileERKNS0_11QualifiedIdENS1_20ModuleProviderLookupE@Base 1.22.0
 _ZN3qbs8Internal20ModuleProviderLoader22getProviderSearchPathsERKNS0_11QualifiedIdERK7QStringRNS0_12ModuleLoader14ProductContextERK4QMapIS5_8QVariantERKNS_12CodeLocationE@Base 1.22.0
 _ZN3qbs8Internal20ModuleProviderLoaderC1EPNS0_10ItemReaderEPNS0_9EvaluatorEPNS0_14ProbesResolverERNS0_6LoggerE@Base 1.22.0
 _ZN3qbs8Internal20ModuleProviderLoaderC2EPNS0_10ItemReaderEPNS0_9EvaluatorEPNS0_14ProbesResolverERNS0_6LoggerE@Base 1.22.0
 _ZN3qbs8Internal20PropertyStackManagerC1EPKNS0_4ItemERK13QScriptStringPKNS0_5ValueERSt5stackINS0_11QualifiedIdESt5dequeISC_SaISC_EEER5QHashISC_NS0_3SetISC_EEE@Base 1.22.0
 _ZN3qbs8Internal20PropertyStackManagerC2EPKNS0_4ItemERK13QScriptStringPKNS0_5ValueERSt5stackINS0_11QualifiedIdESt5dequeISC_SaISC_EEER5QHashISC_NS0_3SetISC_EEE@Base 1.22.0
 _ZN3qbs8Internal20RawScannedDependency4loadERNS0_14PersistentPoolE@Base 1.22.0
 _ZN3qbs8Internal20RawScannedDependency5storeERNS0_14PersistentPoolE@Base 1.22.0
 _ZN3qbs8Internal20RawScannedDependency8setCleanEv@Base 1.22.0
 _ZN3qbs8Internal20RawScannedDependencyC1ERK7QString@Base 1.22.0
 _ZN3qbs8Internal20RawScannedDependencyC1Ev@Base 1.22.0
 _ZN3qbs8Internal20RawScannedDependencyC2ERK7QString@Base 1.22.0
 _ZN3qbs8Internal20RawScannedDependencyC2Ev@Base 1.22.0
 _ZN3qbs8Internal20ScannerPluginManager15registerPluginsEPP13ScannerPlugin@Base 1.10.0
 _ZN3qbs8Internal20ScannerPluginManager18scannersForFileTagERKNS0_7FileTagE@Base 1.10.0
 _ZN3qbs8Internal20ScannerPluginManager8instanceEv@Base 1.10.0
 _ZN3qbs8Internal20ScannerPluginManagerC1Ev@Base 1.10.0
 _ZN3qbs8Internal20ScannerPluginManagerC2Ev@Base 1.10.0
 _ZN3qbs8Internal20ScannerPluginManagerD1Ev@Base 1.11.0
 _ZN3qbs8Internal20ScannerPluginManagerD2Ev@Base 1.11.0
 _ZN3qbs8Internal20effectiveInstallRootERKNS_14InstallOptionsEPKNS0_15TopLevelProjectE@Base 1.22.0
 _ZN3qbs8Internal21BuildGraphTouchingJob11qt_metacallEN11QMetaObject4CallEiPPv@Base 1.22.0
 _ZN3qbs8Internal21BuildGraphTouchingJob11qt_metacastEPKc@Base 1.22.0
 _ZN3qbs8Internal21BuildGraphTouchingJob15storeBuildGraphEv@Base 1.22.0
 _ZN3qbs8Internal21BuildGraphTouchingJob16staticMetaObjectE@Base 1.22.0
 _ZN3qbs8Internal21BuildGraphTouchingJob19reportProcessResultERKNS_13ProcessResultE@Base 1.22.0
 _ZN3qbs8Internal21BuildGraphTouchingJob24reportCommandDescriptionERK7QStringS4_@Base 1.22.0
 _ZN3qbs8Internal21BuildGraphTouchingJob5setupERKSt10shared_ptrINS0_15TopLevelProjectEERK7QVectorIS2_INS0_15ResolvedProductEEEb@Base 1.22.0
 _ZN3qbs8Internal21BuildGraphTouchingJobC1ERKNS0_6LoggerEP7QObject@Base 1.22.0
 _ZN3qbs8Internal21BuildGraphTouchingJobC2ERKNS0_6LoggerEP7QObject@Base 1.22.0
 _ZN3qbs8Internal21BuildGraphTouchingJobD0Ev@Base 1.22.0
 _ZN3qbs8Internal21BuildGraphTouchingJobD1Ev@Base 1.22.0
 _ZN3qbs8Internal21BuildGraphTouchingJobD2Ev@Base 1.22.0
 _ZN3qbs8Internal21PrepareScriptObserver14onPropertyReadERK12QScriptValueRK7QStringS4_@Base 1.22.0
 (optional=inline)_ZN3qbs8Internal21PrepareScriptObserver20addParameterObjectIdExRK7QStringS4_RKNS0_11QualifiedIdE@Base 1.22.0
 _ZN3qbs8Internal21PrepareScriptObserverC1EPNS0_12ScriptEngineENS0_13UnobserveModeE@Base 1.22.0
 _ZN3qbs8Internal21PrepareScriptObserverC2EPNS0_12ScriptEngineENS0_13UnobserveModeE@Base 1.22.0
 _ZN3qbs8Internal21PrepareScriptObserverD0Ev@Base 1.22.0
 _ZN3qbs8Internal21PrepareScriptObserverD1Ev@Base 1.22.0
 _ZN3qbs8Internal21PrepareScriptObserverD2Ev@Base 1.22.0
 _ZN3qbs8Internal21PrivateScriptFunctionD1Ev@Base 1.22.0
 _ZN3qbs8Internal21PrivateScriptFunctionD2Ev@Base 1.22.0
 _ZN3qbs8Internal21ProcessFinishedPacket13doDeserializeER11QDataStream@Base 1.22.0
 (subst)_ZN3qbs8Internal21ProcessFinishedPacketC1E{quintptr}@Base 1.22.0
 (subst)_ZN3qbs8Internal21ProcessFinishedPacketC2E{quintptr}@Base 1.22.0
 _ZN3qbs8Internal21ProcessFinishedPacketD0Ev@Base 1.22.0
 _ZN3qbs8Internal21ProcessFinishedPacketD1Ev@Base 1.22.0
 _ZN3qbs8Internal21ProcessFinishedPacketD2Ev@Base 1.22.0
 (optional=inline)_ZN3qbs8Internal21ProductPrioritySetter5applyEv@Base 1.22.0
 _ZN3qbs8Internal21ProductPrioritySetter8traverseERKSt10shared_ptrINS0_15ResolvedProductEE@Base 1.22.0
 _ZN3qbs8Internal21ProjectFileFilesAdder7doApplyER7QStringPN8QbsQmlJS3AST9UiProgramE@Base 1.22.0
 _ZN3qbs8Internal21ProjectFileFilesAdderC1ENS_11ProductDataENS_9GroupDataE11QStringList@Base 1.22.0
 _ZN3qbs8Internal21ProjectFileFilesAdderC2ENS_11ProductDataENS_9GroupDataE11QStringList@Base 1.22.0
 _ZN3qbs8Internal21ProjectFileFilesAdderD0Ev@Base 1.22.0
 _ZN3qbs8Internal21ProjectFileFilesAdderD1Ev@Base 1.22.0
 _ZN3qbs8Internal21ProjectFileFilesAdderD2Ev@Base 1.22.0
 _ZN3qbs8Internal21RequestedDependencies3addERKNS0_3SetIPKNS0_15ResolvedProductEEE@Base 1.22.0
 _ZN3qbs8Internal21RequestedDependencies3setERKNS0_3SetIPKNS0_15ResolvedProductEEE@Base 1.22.0
 _ZN3qbs8Internal21RescuableArtifactData9ChildDataD1Ev@Base 1.22.0
 _ZN3qbs8Internal21RescuableArtifactData9ChildDataD2Ev@Base 1.22.0
 _ZN3qbs8Internal21RescuableArtifactDataC1EOS1_@Base 1.22.0
 _ZN3qbs8Internal21RescuableArtifactDataC1ERKS1_@Base 1.22.0
 (optional=implicit)_ZN3qbs8Internal21RescuableArtifactDataC1Ev@Base 1.22.0
 _ZN3qbs8Internal21RescuableArtifactDataC2EOS1_@Base 1.22.0
 _ZN3qbs8Internal21RescuableArtifactDataC2ERKS1_@Base 1.22.0
 (optional=implicit)_ZN3qbs8Internal21RescuableArtifactDataC2Ev@Base 1.22.0
 _ZN3qbs8Internal21RescuableArtifactDataD1Ev@Base 1.22.0
 _ZN3qbs8Internal21RescuableArtifactDataD2Ev@Base 1.22.0
 _ZN3qbs8Internal21UserDependencyScanner18collectSearchPathsEPNS0_8ArtifactE@Base 1.22.0
 _ZN3qbs8Internal21UserDependencyScanner19collectDependenciesEPNS0_8ArtifactEPNS0_16FileResourceBaseEPKc@Base 1.22.0
 _ZN3qbs8Internal21UserDependencyScanner8evaluateEPKNS0_8ArtifactEPKNS0_16FileResourceBaseERKNS0_21PrivateScriptFunctionE@Base 1.22.0
 _ZN3qbs8Internal21UserDependencyScannerC1ESt10shared_ptrIKNS0_15ResolvedScannerEEPNS0_12ScriptEngineE@Base 1.22.0
 _ZN3qbs8Internal21UserDependencyScannerC2ESt10shared_ptrIKNS0_15ResolvedScannerEEPNS0_12ScriptEngineE@Base 1.22.0
 _ZN3qbs8Internal21UserDependencyScannerD0Ev@Base 1.22.0
 _ZN3qbs8Internal21UserDependencyScannerD1Ev@Base 1.22.0
 _ZN3qbs8Internal21UserDependencyScannerD2Ev@Base 1.22.0
 _ZN3qbs8Internal21VsEnvironmentDetector14parseBatOutputERK10QByteArraySt6vectorIPNS0_4MSVCESaIS7_EE@Base 1.8.0
 _ZN3qbs8Internal21VsEnvironmentDetector14startDetectionERKSt6vectorIPNS0_4MSVCESaIS4_EE@Base 1.8.0
 _ZN3qbs8Internal21VsEnvironmentDetector5startEPNS0_4MSVCE@Base 1.7.0
 _ZN3qbs8Internal21VsEnvironmentDetector5startESt6vectorIPNS0_4MSVCESaIS4_EE@Base 1.8.0
 _ZN3qbs8Internal21VsEnvironmentDetectorC1E7QString@Base 1.14.1
 _ZN3qbs8Internal21VsEnvironmentDetectorC2E7QString@Base 1.14.1
 _ZN3qbs8Internal22DelayedPropertyChangerD1Ev@Base 1.22.0
 _ZN3qbs8Internal22DelayedPropertyChangerD2Ev@Base 1.22.0
 _ZN3qbs8Internal22ItemReaderVisitorState19setMostDerivingItemEPNS0_4ItemE@Base 1.22.0
 _ZN3qbs8Internal22ItemReaderVisitorState21cacheDirectoryEntriesERK7QStringRK11QStringList@Base 1.22.0
 _ZN3qbs8Internal22ItemReaderVisitorState8readFileERK7QStringRK11QStringListPNS0_8ItemPoolE@Base 1.22.0
 _ZN3qbs8Internal22ItemReaderVisitorStateC1ERNS0_6LoggerE@Base 1.22.0
 _ZN3qbs8Internal22ItemReaderVisitorStateC2ERNS0_6LoggerE@Base 1.22.0
 _ZN3qbs8Internal22ItemReaderVisitorStateD1Ev@Base 1.22.0
 _ZN3qbs8Internal22ItemReaderVisitorStateD2Ev@Base 1.22.0
 _ZN3qbs8Internal22ProcessCommandExecutor11qt_metacallEN11QMetaObject4CallEiPPv@Base 1.22.0
 _ZN3qbs8Internal22ProcessCommandExecutor11qt_metacastEPKc@Base 1.22.0
 _ZN3qbs8Internal22ProcessCommandExecutor14onProcessErrorEv@Base 1.22.0
 _ZN3qbs8Internal22ProcessCommandExecutor16getProcessOutputEbRNS_13ProcessResultE@Base 1.22.0
 _ZN3qbs8Internal22ProcessCommandExecutor16staticMetaObjectE@Base 1.22.0
 _ZN3qbs8Internal22ProcessCommandExecutor17onProcessFinishedEv@Base 1.22.0
 _ZN3qbs8Internal22ProcessCommandExecutor17sendProcessOutputEv@Base 1.22.0
 _ZN3qbs8Internal22ProcessCommandExecutor18removeResponseFileEv@Base 1.22.0
 _ZN3qbs8Internal22ProcessCommandExecutor19filterProcessOutputERK10QByteArrayRK7QString@Base 1.22.0
 _ZN3qbs8Internal22ProcessCommandExecutor19reportProcessResultERKNS_13ProcessResultE@Base 1.22.0
 _ZN3qbs8Internal22ProcessCommandExecutor26doReportCommandDescriptionERK7QString@Base 1.22.0
 _ZN3qbs8Internal22ProcessCommandExecutor6cancelERKNS_9ErrorInfoE@Base 1.22.0
 _ZN3qbs8Internal22ProcessCommandExecutor7doSetupEv@Base 1.22.0
 _ZN3qbs8Internal22ProcessCommandExecutor7doStartEv@Base 1.22.0
 _ZN3qbs8Internal22ProcessCommandExecutorC1ERKNS0_6LoggerEP7QObject@Base 1.22.0
 _ZN3qbs8Internal22ProcessCommandExecutorC2ERKNS0_6LoggerEP7QObject@Base 1.22.0
 _ZN3qbs8Internal22ProcessCommandExecutorD0Ev@Base 1.22.0
 _ZN3qbs8Internal22ProcessCommandExecutorD1Ev@Base 1.22.0
 _ZN3qbs8Internal22ProcessCommandExecutorD2Ev@Base 1.22.0
 _ZN3qbs8Internal22RulesEvaluationContext12cleanupScopeEv@Base 1.22.0
 _ZN3qbs8Internal22RulesEvaluationContext18initializeObserverERK7QStringi@Base 1.22.0
 _ZN3qbs8Internal22RulesEvaluationContext19checkForCancelationEv@Base 1.22.0
 _ZN3qbs8Internal22RulesEvaluationContext22incrementProgressValueEv@Base 1.22.0
 _ZN3qbs8Internal22RulesEvaluationContext5ScopeC1EPS1_@Base 1.22.0
 _ZN3qbs8Internal22RulesEvaluationContext5ScopeC2EPS1_@Base 1.22.0
 _ZN3qbs8Internal22RulesEvaluationContext5ScopeD1Ev@Base 1.22.0
 _ZN3qbs8Internal22RulesEvaluationContext5ScopeD2Ev@Base 1.22.0
 _ZN3qbs8Internal22RulesEvaluationContext9initScopeEv@Base 1.22.0
 _ZN3qbs8Internal22RulesEvaluationContextC1ENS0_6LoggerE@Base 1.22.0
 _ZN3qbs8Internal22RulesEvaluationContextC2ENS0_6LoggerE@Base 1.22.0
 _ZN3qbs8Internal22RulesEvaluationContextD1Ev@Base 1.22.0
 _ZN3qbs8Internal22RulesEvaluationContextD2Ev@Base 1.22.0
 _ZN3qbs8Internal22ScriptPropertyObserverD0Ev@Base 1.22.0
 _ZN3qbs8Internal22ScriptPropertyObserverD1Ev@Base 1.22.0
 _ZN3qbs8Internal22ScriptPropertyObserverD2Ev@Base 1.22.0
 _ZN3qbs8Internal22SourceArtifactInternalD1Ev@Base 1.22.0
 _ZN3qbs8Internal22SourceArtifactInternalD2Ev@Base 1.22.0
 _ZN3qbs8Internal22throwOnEvaluationErrorEPNS0_12ScriptEngineERK12QScriptValueRKSt8functionIFNS_12CodeLocationEvEE@Base 1.22.0
 _ZN3qbs8Internal23AbstractCommandExecutor11qt_metacallEN11QMetaObject4CallEiPPv@Base 1.22.0
 _ZN3qbs8Internal23AbstractCommandExecutor11qt_metacastEPKc@Base 1.22.0
 _ZN3qbs8Internal23AbstractCommandExecutor12startTimeoutEv@Base 1.22.0
 _ZN3qbs8Internal23AbstractCommandExecutor16staticMetaObjectE@Base 1.22.0
 _ZN3qbs8Internal23AbstractCommandExecutor24reportCommandDescriptionERK7QStringS4_@Base 1.22.0
 _ZN3qbs8Internal23AbstractCommandExecutor26doReportCommandDescriptionERK7QString@Base 1.22.0
 _ZN3qbs8Internal23AbstractCommandExecutor5startEPNS0_11TransformerEPNS0_15AbstractCommandE@Base 1.22.0
 _ZN3qbs8Internal23AbstractCommandExecutor7doSetupEv@Base 1.22.0
 _ZN3qbs8Internal23AbstractCommandExecutor8finishedERKNS_9ErrorInfoE@Base 1.22.0
 _ZN3qbs8Internal23AbstractCommandExecutorC1ENS0_6LoggerEP7QObject@Base 1.22.0
 _ZN3qbs8Internal23AbstractCommandExecutorC2ENS0_6LoggerEP7QObject@Base 1.22.0
 _ZN3qbs8Internal23EmptyDirectoriesRemover12insertSortedERK7QString@Base 1.22.0
 _ZN3qbs8Internal23EmptyDirectoriesRemover16removeDirIfEmptyEv@Base 1.22.0
 _ZN3qbs8Internal23EmptyDirectoriesRemover28removeEmptyParentDirectoriesERK11QStringList@Base 1.22.0
 _ZN3qbs8Internal23EmptyDirectoriesRemover28removeEmptyParentDirectoriesERKNS0_3SetIPNS0_8ArtifactEEE@Base 1.22.0
 _ZN3qbs8Internal23EmptyDirectoriesRemoverC1EPKNS0_15TopLevelProjectENS0_6LoggerE@Base 1.22.0
 _ZN3qbs8Internal23EmptyDirectoriesRemoverC2EPKNS0_15TopLevelProjectENS0_6LoggerE@Base 1.22.0
 (optional=implicit)_ZN3qbs8Internal23EmptyDirectoriesRemoverD1Ev@Base 1.22.0
 (optional=implicit)_ZN3qbs8Internal23EmptyDirectoriesRemoverD2Ev@Base 1.22.0
 _ZN3qbs8Internal23EnvironmentScriptRunner11setupForRunERK11QStringList@Base 1.22.0
 _ZN3qbs8Internal23EnvironmentScriptRunner13setupForBuildEv@Base 1.22.0
 _ZN3qbs8Internal23EnvironmentScriptRunner16setupEnvironmentEv@Base 1.22.0
 _ZN3qbs8Internal23EnvironmentScriptRunnerC1EPNS0_15ResolvedProductEPNS0_22RulesEvaluationContextERK19QProcessEnvironment@Base 1.22.0
 _ZN3qbs8Internal23EnvironmentScriptRunnerC2EPNS0_15ResolvedProductEPNS0_22RulesEvaluationContextERK19QProcessEnvironment@Base 1.22.0
 _ZN3qbs8Internal23InternalSetupProjectJob11qt_metacallEN11QMetaObject4CallEiPPv@Base 1.22.0
 _ZN3qbs8Internal23InternalSetupProjectJob11qt_metacastEPKc@Base 1.22.0
 _ZN3qbs8Internal23InternalSetupProjectJob11reportErrorERKNS_9ErrorInfoE@Base 1.22.0
 _ZN3qbs8Internal23InternalSetupProjectJob14restoreProjectERKSt10shared_ptrINS0_22RulesEvaluationContextEE@Base 1.22.0
 _ZN3qbs8Internal23InternalSetupProjectJob16staticMetaObjectE@Base 1.22.0
 _ZN3qbs8Internal23InternalSetupProjectJob25resolveProjectFromScratchEPNS0_12ScriptEngineE@Base 1.22.0
 _ZN3qbs8Internal23InternalSetupProjectJob27resolveBuildDataFromScratchERKSt10shared_ptrINS0_22RulesEvaluationContextEE@Base 1.22.0
 _ZN3qbs8Internal23InternalSetupProjectJob4initERKSt10shared_ptrINS0_15TopLevelProjectEERKNS_22SetupProjectParametersE@Base 1.22.0
 _ZN3qbs8Internal23InternalSetupProjectJob5startEv@Base 1.22.0
 _ZN3qbs8Internal23InternalSetupProjectJob7executeEv@Base 1.22.0
 _ZN3qbs8Internal23InternalSetupProjectJobC1ERKNS0_6LoggerE@Base 1.22.0
 _ZN3qbs8Internal23InternalSetupProjectJobC2ERKNS0_6LoggerE@Base 1.22.0
 _ZN3qbs8Internal23InternalSetupProjectJobD0Ev@Base 1.22.0
 _ZN3qbs8Internal23InternalSetupProjectJobD1Ev@Base 1.22.0
 _ZN3qbs8Internal23InternalSetupProjectJobD2Ev@Base 1.22.0
 _ZN3qbs8Internal23PluginDependencyScanner18collectSearchPathsEPNS0_8ArtifactE@Base 1.22.0
 _ZN3qbs8Internal23PluginDependencyScanner19collectDependenciesEPNS0_8ArtifactEPNS0_16FileResourceBaseEPKc@Base 1.22.0
 _ZN3qbs8Internal23PluginDependencyScannerC1EP13ScannerPlugin@Base 1.22.0
 _ZN3qbs8Internal23PluginDependencyScannerC2EP13ScannerPlugin@Base 1.22.0
 _ZN3qbs8Internal23PluginDependencyScannerD0Ev@Base 1.22.0
 _ZN3qbs8Internal23PluginDependencyScannerD1Ev@Base 1.22.0
 _ZN3qbs8Internal23PluginDependencyScannerD2Ev@Base 1.22.0
 _ZN3qbs8Internal23ProjectFileFilesRemover7doApplyER7QStringPN8QbsQmlJS3AST9UiProgramE@Base 1.22.0
 _ZN3qbs8Internal23ProjectFileFilesRemoverC1ENS_11ProductDataENS_9GroupDataE11QStringList@Base 1.22.0
 _ZN3qbs8Internal23ProjectFileFilesRemoverC2ENS_11ProductDataENS_9GroupDataE11QStringList@Base 1.22.0
 _ZN3qbs8Internal23ProjectFileFilesRemoverD0Ev@Base 1.22.0
 _ZN3qbs8Internal23ProjectFileFilesRemoverD1Ev@Base 1.22.0
 _ZN3qbs8Internal23ProjectFileFilesRemoverD2Ev@Base 1.22.0
 _ZN3qbs8Internal23ProjectFileGroupRemover7doApplyER7QStringPN8QbsQmlJS3AST9UiProgramE@Base 1.22.0
 _ZN3qbs8Internal23ProjectFileGroupRemoverC1ENS_11ProductDataENS_9GroupDataE@Base 1.22.0
 _ZN3qbs8Internal23ProjectFileGroupRemoverC2ENS_11ProductDataENS_9GroupDataE@Base 1.22.0
 _ZN3qbs8Internal23ProjectFileGroupRemoverD0Ev@Base 1.22.0
 _ZN3qbs8Internal23ProjectFileGroupRemoverD1Ev@Base 1.22.0
 _ZN3qbs8Internal23ProjectFileGroupRemoverD2Ev@Base 1.22.0
 _ZN3qbs8Internal23TimestampsUpdateVisitor7doVisitEPNS0_8ArtifactE@Base 1.22.0
 _ZN3qbs8Internal23TimestampsUpdateVisitorD0Ev@Base 1.22.0
 _ZN3qbs8Internal23TimestampsUpdateVisitorD1Ev@Base 1.22.0
 _ZN3qbs8Internal23TimestampsUpdateVisitorD2Ev@Base 1.22.0
 _ZN3qbs8Internal23VisualStudioVersionInfo13knownVersionsEv@Base 1.5.0
 _ZN3qbs8Internal23VisualStudioVersionInfoC1ERKNS_7VersionE@Base 1.11.0
 _ZN3qbs8Internal23VisualStudioVersionInfoC1Ev@Base 1.8.0
 _ZN3qbs8Internal23VisualStudioVersionInfoC2ERKNS_7VersionE@Base 1.11.0
 _ZN3qbs8Internal23VisualStudioVersionInfoC2Ev@Base 1.8.0
 _ZN3qbs8Internal23prepareScriptNeedsRerunEPNS0_11TransformerEPKNS0_15ResolvedProductERKSt13unordered_mapI7QStringS5_St4hashIS7_ESt8equal_toIS7_ESaISt4pairIKS7_S5_EEERKS6_IS7_PKNS0_15ResolvedProjectES9_SB_SaISC_ISD_SL_EEE@Base 1.22.0
 _ZN3qbs8Internal24ASTPropertiesItemHandler17setupAlternativesEv@Base 1.22.0
 _ZN3qbs8Internal24ASTPropertiesItemHandler21handlePropertiesBlockEPKNS0_4ItemE@Base 1.22.0
 _ZN3qbs8Internal24ASTPropertiesItemHandler21handlePropertiesItemsEv@Base 1.22.0
 _ZN3qbs8Internal24ASTPropertiesItemHandlerC1EPNS0_4ItemE@Base 1.22.0
 _ZN3qbs8Internal24ASTPropertiesItemHandlerC2EPNS0_4ItemE@Base 1.22.0
 _ZN3qbs8Internal24InternalJobThreadWrapper11qt_metacallEN11QMetaObject4CallEiPPv@Base 1.22.0
 _ZN3qbs8Internal24InternalJobThreadWrapper11qt_metacastEPKc@Base 1.22.0
 _ZN3qbs8Internal24InternalJobThreadWrapper14handleFinishedEv@Base 1.22.0
 _ZN3qbs8Internal24InternalJobThreadWrapper14startRequestedEv@Base 1.22.0
 _ZN3qbs8Internal24InternalJobThreadWrapper16staticMetaObjectE@Base 1.22.0
 _ZN3qbs8Internal24InternalJobThreadWrapper5startEv@Base 1.22.0
 _ZN3qbs8Internal24InternalJobThreadWrapperC1EPNS0_11InternalJobEP7QObject@Base 1.22.0
 _ZN3qbs8Internal24InternalJobThreadWrapperC2EPNS0_11InternalJobEP7QObject@Base 1.22.0
 _ZN3qbs8Internal24InternalJobThreadWrapperD0Ev@Base 1.22.0
 _ZN3qbs8Internal24InternalJobThreadWrapperD1Ev@Base 1.22.0
 _ZN3qbs8Internal24InternalJobThreadWrapperD2Ev@Base 1.22.0
 _ZN3qbs8Internal24ProjectFileGroupInserter7doApplyER7QStringPN8QbsQmlJS3AST9UiProgramE@Base 1.22.0
 _ZN3qbs8Internal24ProjectFileGroupInserterC1ENS_11ProductDataE7QString@Base 1.22.0
 _ZN3qbs8Internal24ProjectFileGroupInserterC2ENS_11ProductDataE7QString@Base 1.22.0
 _ZN3qbs8Internal24ProjectFileGroupInserterD0Ev@Base 1.22.0
 _ZN3qbs8Internal24ProjectFileGroupInserterD1Ev@Base 1.22.0
 _ZN3qbs8Internal24ProjectFileGroupInserterD2Ev@Base 1.22.0
 _ZN3qbs8Internal24PropertiesBlockConverter7doApplyEPNS0_4ItemEPKS2_@Base 1.22.0
 (optional=inline)_ZN3qbs8Internal24PropertiesBlockConverter7doApplyERK7QStringPNS0_4ItemESt10shared_ptrINS0_13JSSourceValueEERKS9_@Base 1.22.0
 _ZN3qbs8Internal24PropertyDeclarationCheck10handleItemEPNS0_4ItemE@Base 1.22.0
 _ZN3qbs8Internal24PropertyDeclarationCheck14checkItemValueEPNS0_9ItemValueE@Base 1.22.0
 _ZN3qbs8Internal24PropertyDeclarationCheck6handleEPNS0_12VariantValueE@Base 1.22.0
 _ZN3qbs8Internal24PropertyDeclarationCheck6handleEPNS0_13JSSourceValueE@Base 1.22.0
 _ZN3qbs8Internal24PropertyDeclarationCheck6handleEPNS0_9ItemValueE@Base 1.22.0
 (optional=implicit)_ZN3qbs8Internal24PropertyDeclarationCheckD1Ev@Base 1.22.0
 (optional=implicit)_ZN3qbs8Internal24PropertyDeclarationCheckD2Ev@Base 1.22.0
 _ZN3qbs8Internal24relativeArtifactFileNameEPKNS0_8ArtifactE@Base 1.22.0
 _ZN3qbs8Internal24setupScriptEngineForFileEPNS0_12ScriptEngineERKSt10shared_ptrIKNS0_15FileContextBaseEE12QScriptValueRKNS0_11ObserveModeE@Base 1.22.0
 _ZN3qbs8Internal24updateGeneratedArtifactsEPNS0_15ResolvedProductE@Base 1.22.0
 _ZN3qbs8Internal25ArtifactBindingsExtractor21extractPropertyValuesERK12QScriptValueRK7QString@Base 1.22.0
 (arch=armhf)_ZN3qbs8Internal25ArtifactBindingsExtractor28getArtifactItemPropertyNamesEv@Base 1.22.0
 (optional=inline)_ZN3qbs8Internal25ArtifactBindingsExtractor5applyEPNS0_8ArtifactERK12QScriptValue@Base 1.22.0
 _ZN3qbs8Internal25ModulePropertyScriptClass11newIteratorERK12QScriptValue@Base 1.22.0
 _ZN3qbs8Internal25ModulePropertyScriptClass13queryPropertyERK12QScriptValueRK13QScriptString6QFlagsIN12QScriptClass9QueryFlagEEPj@Base 1.22.0
 (optional=inline)_ZN3qbs8Internal25ModulePropertyScriptClass5setupERK12QScriptValue@Base 1.22.0
 _ZN3qbs8Internal25ModulePropertyScriptClass8propertyERK12QScriptValueRK13QScriptStringj@Base 1.22.0
 _ZN3qbs8Internal25ModulePropertyScriptClassD0Ev@Base 1.22.0
 _ZN3qbs8Internal25ModulePropertyScriptClassD1Ev@Base 1.22.0
 _ZN3qbs8Internal25ModulePropertyScriptClassD2Ev@Base 1.22.0
 _ZN3qbs8Internal25dependencyParametersValueERK7QStringS3_RK4QMapIS1_8QVariantEPNS0_12ScriptEngineE@Base 1.22.0
 _ZN3qbs8Internal26ProductPropertyScriptClass10getProductERK12QScriptValue@Base 1.22.0
 _ZN3qbs8Internal26ProductPropertyScriptClass11newIteratorERK12QScriptValue@Base 1.22.0
 _ZN3qbs8Internal26ProductPropertyScriptClass13queryPropertyERK12QScriptValueRK13QScriptString6QFlagsIN12QScriptClass9QueryFlagEEPj@Base 1.22.0
 _ZN3qbs8Internal26ProductPropertyScriptClass8propertyERK12QScriptValueRK13QScriptStringj@Base 1.22.0
 _ZN3qbs8Internal26ProductPropertyScriptClassD0Ev@Base 1.22.0
 _ZN3qbs8Internal26ProductPropertyScriptClassD1Ev@Base 1.22.0
 _ZN3qbs8Internal26ProductPropertyScriptClassD2Ev@Base 1.22.0
 _ZN3qbs8Internal26applyPerArtifactPropertiesEPNS0_8ArtifactE@Base 1.22.0
 _ZN3qbs8Internal27InputArtifactScannerContext26DependencyScannerCacheItemC1Ev@Base 1.22.0
 _ZN3qbs8Internal27InputArtifactScannerContext26DependencyScannerCacheItemC2Ev@Base 1.22.0
 _ZN3qbs8Internal27InputArtifactScannerContext26DependencyScannerCacheItemD1Ev@Base 1.22.0
 _ZN3qbs8Internal27InputArtifactScannerContext26DependencyScannerCacheItemD2Ev@Base 1.22.0
 _ZN3qbs8Internal27ScriptClassPropertyIterator4nextEv@Base 1.22.0
 _ZN3qbs8Internal27ScriptClassPropertyIterator6toBackEv@Base 1.22.0
 _ZN3qbs8Internal27ScriptClassPropertyIterator7toFrontEv@Base 1.22.0
 _ZN3qbs8Internal27ScriptClassPropertyIterator8previousEv@Base 1.22.0
 _ZN3qbs8Internal27ScriptClassPropertyIteratorD0Ev@Base 1.22.0
 _ZN3qbs8Internal27ScriptClassPropertyIteratorD1Ev@Base 1.22.0
 _ZN3qbs8Internal27ScriptClassPropertyIteratorD2Ev@Base 1.22.0
 _ZN3qbs8Internal27TemporaryGlobalObjectSetterC1ERK12QScriptValue@Base 1.22.0
 _ZN3qbs8Internal27TemporaryGlobalObjectSetterC2ERK12QScriptValue@Base 1.22.0
 _ZN3qbs8Internal27TemporaryGlobalObjectSetterD1Ev@Base 1.22.0
 _ZN3qbs8Internal27TemporaryGlobalObjectSetterD2Ev@Base 1.22.0
 _ZN3qbs8Internal27getDataForModuleScriptValueEP13QScriptEnginePKNS0_15ResolvedProductEPKNS0_8ArtifactEPKNS0_14ResolvedModuleE@Base 1.22.0
 _ZN3qbs8Internal27removeDirectoryWithContentsERK7QStringPS1_@Base 1.2.1
 _ZN3qbs8Internal27setupScriptEngineForProductEPNS0_12ScriptEngineEPNS0_15ResolvedProductEPKNS0_14ResolvedModuleE12QScriptValueb@Base 1.22.0
 _ZN3qbs8Internal28RuleOutputArtifactsExceptionD1Ev@Base 1.22.0
 _ZN3qbs8Internal28RuleOutputArtifactsExceptionD2Ev@Base 1.22.0
 _ZN3qbs8Internal29JsCommandExecutorThreadObject11qt_metacallEN11QMetaObject4CallEiPPv@Base 1.22.0
 _ZN3qbs8Internal29JsCommandExecutorThreadObject11qt_metacastEPKc@Base 1.22.0
 _ZN3qbs8Internal29JsCommandExecutorThreadObject16staticMetaObjectE@Base 1.22.0
 _ZN3qbs8Internal29JsCommandExecutorThreadObject5startEPKNS0_17JavaScriptCommandEPNS0_11TransformerE@Base 1.22.0
 _ZN3qbs8Internal29JsCommandExecutorThreadObject7doStartEPKNS0_17JavaScriptCommandEPNS0_11TransformerE@Base 1.22.0
 _ZN3qbs8Internal29JsCommandExecutorThreadObject8finishedEv@Base 1.22.0
 _ZN3qbs8Internal29JsCommandExecutorThreadObjectD0Ev@Base 1.22.0
 _ZN3qbs8Internal29JsCommandExecutorThreadObjectD1Ev@Base 1.22.0
 _ZN3qbs8Internal29JsCommandExecutorThreadObjectD2Ev@Base 1.22.0
 (optional=implicit)_ZN3qbs8Internal29SetupProjectParametersPrivateC1ERKS1_@Base 1.22.0
 (optional=implicit)_ZN3qbs8Internal29SetupProjectParametersPrivateC2ERKS1_@Base 1.22.0
 _ZN3qbs8Internal29artifactPropertyListsAreEqualERKSt6vectorISt10shared_ptrINS0_18ArtifactPropertiesEESaIS4_EES8_@Base 1.22.0
 _ZN3qbs8Internal29artifactsScriptValueForModuleEP14QScriptContextPNS0_12ScriptEngineEPKNS0_14ResolvedModuleE@Base 1.22.0
 _ZN3qbs8Internal2Id11fromSettingERK8QVariant@Base 1.10.0
 _ZN3qbs8Internal2IdC1EPKc@Base 1.10.0
 _ZN3qbs8Internal2IdC1ERK10QByteArray@Base 1.10.0
 _ZN3qbs8Internal2IdC2EPKc@Base 1.10.0
 _ZN3qbs8Internal2IdC2ERK10QByteArray@Base 1.10.0
 _ZN3qbs8Internal30artifactsScriptValueForProductEP14QScriptContextPNS0_12ScriptEngineEPKNS0_15ResolvedProductE@Base 1.22.0
 _ZN3qbs8Internal31removeGeneratedArtifactFromDiskEPNS0_8ArtifactERKNS0_6LoggerE@Base 1.22.0
 _ZN3qbs8Internal31removeGeneratedArtifactFromDiskERK7QStringRKNS0_6LoggerE@Base 1.22.0
 _ZN3qbs8Internal32provideFullFileTagsAndPropertiesEPNS0_8ArtifactE@Base 1.22.0
 _ZN3qbs8Internal32updateArtifactFromSourceArtifactERKSt10shared_ptrINS0_15ResolvedProductEERKS1_IKNS0_22SourceArtifactInternalEE@Base 1.22.0
 _ZN3qbs8Internal36EvaluatorScriptClassPropertyIterator4nextEv@Base 1.22.0
 _ZN3qbs8Internal36EvaluatorScriptClassPropertyIterator6toBackEv@Base 1.22.0
 _ZN3qbs8Internal36EvaluatorScriptClassPropertyIterator7toFrontEv@Base 1.22.0
 _ZN3qbs8Internal36EvaluatorScriptClassPropertyIterator8previousEv@Base 1.22.0
 _ZN3qbs8Internal36EvaluatorScriptClassPropertyIteratorD0Ev@Base 1.22.0
 _ZN3qbs8Internal36EvaluatorScriptClassPropertyIteratorD1Ev@Base 1.22.0
 _ZN3qbs8Internal36EvaluatorScriptClassPropertyIteratorD2Ev@Base 1.22.0
 (optional=templinst)_ZN3qbs8Internal3SetI7QStringE4loadERNS0_14PersistentPoolE@Base 1.22.0
 (optional=templinst)_ZN3qbs8Internal3SetI7QStringE6insertERKS2_@Base 1.22.0
 (optional=templinst)_ZN3qbs8Internal3SetI7QStringED1Ev@Base 1.22.0
 (optional=templinst)_ZN3qbs8Internal3SetI7QStringED2Ev@Base 1.22.0
 (optional=templinst)_ZN3qbs8Internal3SetINS0_11QualifiedIdEE6insertERKS2_@Base 1.22.0
 (optional=templinst)_ZN3qbs8Internal3SetINS0_12ModuleLoader22DeferredDependsContextEE6insertERKS3_@Base 1.22.0
 (optional=templinst)_ZN3qbs8Internal3SetINS0_12RuleArtifact7BindingEEC1IN9__gnu_cxx17__normal_iteratorIPKS3_St6vectorIS3_SaIS3_EEEEEET_SE_@Base 1.22.0
 (optional=templinst)_ZN3qbs8Internal3SetINS0_12RuleArtifact7BindingEEC2IN9__gnu_cxx17__normal_iteratorIPKS3_St6vectorIS3_SaIS3_EEEEEET_SE_@Base 1.22.0
 (optional=templinst)_ZN3qbs8Internal3SetINS0_7FileTagEE4loadERNS0_14PersistentPoolE@Base 1.22.0
 (optional=templinst)_ZN3qbs8Internal3SetINS0_7FileTagEE5uniteERKS3_@Base 1.22.0
 (optional=templinst)_ZN3qbs8Internal3SetINS0_7FileTagEE6insertERKS2_@Base 1.22.0
 (optional=templinst)_ZN3qbs8Internal3SetINS0_7FileTagEEC1ERKSt16initializer_listIS2_E@Base 1.22.0
 (optional=templinst)_ZN3qbs8Internal3SetINS0_7FileTagEEC2ERKSt16initializer_listIS2_E@Base 1.22.0
 (optional=templinst)_ZN3qbs8Internal3SetINS0_8ItemTypeEE6insertERKS2_@Base 1.22.0
 (optional=templinst)_ZN3qbs8Internal3SetINS0_8ItemTypeEEC1ERKSt16initializer_listIS2_E@Base 1.22.0
 (optional=templinst)_ZN3qbs8Internal3SetINS0_8ItemTypeEEC2ERKSt16initializer_listIS2_E@Base 1.22.0
 (optional=templinst)_ZN3qbs8Internal3SetINS0_8PropertyEE4loadERNS0_14PersistentPoolE@Base 1.22.0
 (optional=templinst)_ZN3qbs8Internal3SetINS0_8PropertyEE6insertERKS2_@Base 1.22.0
 (optional=templinst|arch=amd64 arm64 mips64el ppc64el riscv64)_ZN3qbs8Internal3SetIPKNS0_11TransformerEE6insertERKS4_@Base 1.22.0
 (optional=templinst)_ZN3qbs8Internal3SetIPKNS0_15ResolvedProductEE6insertERKS4_@Base 1.22.0
 (optional=templinst|arch=arm64)_ZN3qbs8Internal3SetIPKNS0_4ItemEE6insertERKS4_@Base 1.22.0
 (optional=templinst)_ZN3qbs8Internal3SetIPKNS0_4RuleEE6insertERKS4_@Base 1.22.0
 (optional=templinst)_ZN3qbs8Internal3SetIPKNS0_4RuleEE6removeERKS4_@Base 1.22.0
 (optional=templinst)_ZN3qbs8Internal3SetIPNS0_12ModuleLoader14ProductContextEE6insertERKS4_@Base 1.22.0
 (optional=templinst)_ZN3qbs8Internal3SetIPNS0_12ModuleLoader14ProductContextEEC1IN5QListIS4_E8iteratorEEET_SA_@Base 1.22.0
 (optional=templinst)_ZN3qbs8Internal3SetIPNS0_12ModuleLoader14ProductContextEEC2IN5QListIS4_E8iteratorEEET_SA_@Base 1.22.0
 (optional=templinst)_ZN3qbs8Internal3SetIPNS0_14BuildGraphNodeEE4loadERNS0_14PersistentPoolE@Base 1.22.0
 (optional=templinst)_ZN3qbs8Internal3SetIPNS0_14BuildGraphNodeEE6insertERKS3_@Base 1.22.0
 (optional=templinst)_ZN3qbs8Internal3SetIPNS0_14FileDependencyEE4loadERNS0_14PersistentPoolE@Base 1.22.0
 (optional=templinst)_ZN3qbs8Internal3SetIPNS0_14FileDependencyEE6insertERKS3_@Base 1.22.0
 (optional=templinst)_ZN3qbs8Internal3SetIPNS0_14FileDependencyEE6removeERKS3_@Base 1.22.0
 (optional=templinst)_ZN3qbs8Internal3SetIPNS0_15ResolvedProductEE6insertERKS3_@Base 1.22.0
 (optional=templinst)_ZN3qbs8Internal3SetIPNS0_4ItemEE6insertERKS3_@Base 1.22.0
 (optional=templinst)_ZN3qbs8Internal3SetIPNS0_8ArtifactEE4loadERNS0_14PersistentPoolE@Base 1.22.0
 (optional=templinst)_ZN3qbs8Internal3SetIPNS0_8ArtifactEE5uniteERKS4_@Base 1.22.0
 (optional=templinst)_ZN3qbs8Internal3SetIPNS0_8ArtifactEE6insertERKS3_@Base 1.22.0
 (optional=templinst)_ZN3qbs8Internal3SetIPNS0_8ArtifactEE6removeERKS3_@Base 1.22.0
 (optional=templinst)_ZN3qbs8Internal3SetIPNS0_8ArtifactEEC1IN5QListIS3_E8iteratorEEET_S9_@Base 1.22.0
 (optional=templinst)_ZN3qbs8Internal3SetIPNS0_8ArtifactEEC2IN5QListIS3_E8iteratorEEET_S9_@Base 1.22.0
 (optional=templinst|arch=amd64 arm64 mips64el ppc64el riscv64)_ZN3qbs8Internal3SetISt10shared_ptrIKNS0_11FileContextEEE6insertERKS5_@Base 1.22.0
 (optional=templinst)_ZN3qbs8Internal3SetISt10shared_ptrINS0_15ResolvedProductEEE6insertERKS4_@Base 1.22.0
 (optional=templinst)_ZN3qbs8Internal3SetISt10shared_ptrINS0_15ResolvedProductEEEC1IN9__gnu_cxx17__normal_iteratorIPKS4_St6vectorIS4_SaIS4_EEEEEET_SF_@Base 1.22.0
 (optional=templinst)_ZN3qbs8Internal3SetISt10shared_ptrINS0_15ResolvedProductEEEC1IN9__gnu_cxx17__normal_iteratorIPS4_St6vectorIS4_SaIS4_EEEEEET_SE_@Base 1.22.0
 (optional=templinst)_ZN3qbs8Internal3SetISt10shared_ptrINS0_15ResolvedProductEEEC2IN9__gnu_cxx17__normal_iteratorIPKS4_St6vectorIS4_SaIS4_EEEEEET_SF_@Base 1.22.0
 (optional=templinst)_ZN3qbs8Internal3SetISt10shared_ptrINS0_15ResolvedProductEEEC2IN9__gnu_cxx17__normal_iteratorIPS4_St6vectorIS4_SaIS4_EEEEEET_SE_@Base 1.22.0
 (optional=templinst|arch=amd64 arm64 mips64el ppc64el riscv64)_ZN3qbs8Internal3SetISt10shared_ptrINS0_15ResolvedProjectEEE6insertERKS4_@Base 1.22.0
 (optional=templinst)_ZN3qbs8Internal3SetIiE6insertERKi@Base 1.22.0
 (optional=templinst)_ZN3qbs8Internal3SetIxE6insertERKx@Base 1.22.0
 _ZN3qbs8Internal40invalidateArtifactAsRuleInputIfNecessaryEPNS0_8ArtifactE@Base 1.22.0
 _ZN3qbs8Internal4File11js_makePathEP14QScriptContextP13QScriptEngine@Base 1.22.0
 _ZN3qbs8Internal4File11qt_metacallEN11QMetaObject4CallEiPPv@Base 1.22.0
 _ZN3qbs8Internal4File11qt_metacastEPKc@Base 1.22.0
 _ZN3qbs8Internal4File15js_lastModifiedEP14QScriptContextP13QScriptEngine@Base 1.22.0
 _ZN3qbs8Internal4File16staticMetaObjectE@Base 1.22.0
 _ZN3qbs8Internal4File19js_directoryEntriesEP14QScriptContextP13QScriptEngine@Base 1.22.0
 _ZN3qbs8Internal4File20js_canonicalFilePathEP14QScriptContextP13QScriptEngine@Base 1.22.0
 _ZN3qbs8Internal4File7js_copyEP14QScriptContextP13QScriptEngine@Base 1.22.0
 _ZN3qbs8Internal4File7js_ctorEP14QScriptContextP13QScriptEngine@Base 1.22.0
 _ZN3qbs8Internal4File7js_moveEP14QScriptContextP13QScriptEngine@Base 1.22.0
 _ZN3qbs8Internal4File9js_existsEP14QScriptContextP13QScriptEngine@Base 1.22.0
 _ZN3qbs8Internal4File9js_removeEP14QScriptContextP13QScriptEngine@Base 1.22.0
 _ZN3qbs8Internal4FileD0Ev@Base 1.22.0
 _ZN3qbs8Internal4FileD1Ev@Base 1.22.0
 _ZN3qbs8Internal4FileD2Ev@Base 1.22.0
 _ZN3qbs8Internal4Host11js_platformEP14QScriptContextP13QScriptEngine@Base 1.22.0
 _ZN3qbs8Internal4Host11qt_metacallEN11QMetaObject4CallEiPPv@Base 1.22.0
 _ZN3qbs8Internal4Host11qt_metacastEPKc@Base 1.22.0
 _ZN3qbs8Internal4Host12js_osVersionEP14QScriptContextP13QScriptEngine@Base 1.22.0
 _ZN3qbs8Internal4Host13js_nullDeviceEP14QScriptContextP13QScriptEngine@Base 1.22.0
 _ZN3qbs8Internal4Host15js_architectureEP14QScriptContextP13QScriptEngine@Base 1.22.0
 _ZN3qbs8Internal4Host16staticMetaObjectE@Base 1.22.0
 _ZN3qbs8Internal4Host17js_osBuildVersionEP14QScriptContextP13QScriptEngine@Base 1.22.0
 _ZN3qbs8Internal4Host17js_osVersionMajorEP14QScriptContextP13QScriptEngine@Base 1.22.0
 _ZN3qbs8Internal4Host17js_osVersionMinorEP14QScriptContextP13QScriptEngine@Base 1.22.0
 _ZN3qbs8Internal4Host17js_osVersionPartsEP14QScriptContextP13QScriptEngine@Base 1.22.0
 _ZN3qbs8Internal4Host17js_osVersionPatchEP14QScriptContextP13QScriptEngine@Base 1.22.0
 _ZN3qbs8Internal4Host5js_osEP14QScriptContextP13QScriptEngine@Base 1.22.0
 _ZN3qbs8Internal4Host7js_ctorEP14QScriptContextP13QScriptEngine@Base 1.22.0
 _ZN3qbs8Internal4HostD0Ev@Base 1.22.0
 _ZN3qbs8Internal4HostD1Ev@Base 1.22.0
 _ZN3qbs8Internal4HostD2Ev@Base 1.22.0
 _ZN3qbs8Internal4Item11removeChildEPS1_S2_@Base 1.12.0
 _ZN3qbs8Internal4Item11setPropertyERK7QStringRKSt10shared_ptrINS0_5ValueEE@Base 1.10.0
 _ZN3qbs8Internal4Item12itemPropertyERK7QStringPKS1_@Base 1.10.0
 _ZN3qbs8Internal4Item12itemPropertyERK7QStringPKS1_RKSt10shared_ptrIKNS0_9ItemValueEE@Base 1.10.0
 _ZN3qbs8Internal4Item12itemPropertyERK7QStringRKSt10shared_ptrIKNS0_9ItemValueEE@Base 1.10.0
 _ZN3qbs8Internal4Item14removePropertyERK7QString@Base 1.10.0
 _ZN3qbs8Internal4Item18overridePropertiesERK4QMapI7QString8QVariantERKNS0_11QualifiedIdERKNS_22SetupProjectParametersERNS0_6LoggerE@Base 1.22.0
 _ZN3qbs8Internal4Item19setupForBuiltinTypeERNS0_6LoggerE@Base 1.10.0
 _ZN3qbs8Internal4Item22setPropertyDeclarationERK7QStringRKNS0_19PropertyDeclarationE@Base 1.10.0
 _ZN3qbs8Internal4Item23setPropertyDeclarationsERK4QMapI7QStringNS0_19PropertyDeclarationEE@Base 1.10.0
 _ZN3qbs8Internal4Item6ModuleC1ERKS2_@Base 1.22.0
 _ZN3qbs8Internal4Item6ModuleC2ERKS2_@Base 1.22.0
 _ZN3qbs8Internal4Item6createEPNS0_8ItemPoolENS0_8ItemTypeE@Base 1.10.0
 _ZN3qbs8Internal4Item8addChildEPS1_S2_@Base 1.10.0
 _ZN3qbs8Internal4Item9addModuleERKNS1_6ModuleE@Base 1.10.0
 _ZN3qbs8Internal4ItemC1EPNS0_8ItemPoolENS0_8ItemTypeE@Base 1.10.0
 _ZN3qbs8Internal4ItemC2EPNS0_8ItemPoolENS0_8ItemTypeE@Base 1.10.0
 _ZN3qbs8Internal4MSVC18installedCompilersERNS0_6LoggerE@Base 1.16.0
 _ZN3qbs8Internal4MSVC21canonicalArchitectureERK7QString@Base 1.16.0
 _ZN3qbs8Internal4MSVC21getHostTargetArchPairERK7QString@Base 1.16.0
 _ZN3qbs8Internal4MSVC22architectureFromClPathERK7QString@Base 1.14.1
 _ZN3qbs8Internal4MSVC24determineCompilerVersionEv@Base 1.22.0
 _ZN3qbs8Internal4MSVC26findSupportedArchitecturesERKS1_@Base 1.16.0
 _ZN3qbs8Internal4MSVC29vcVariablesVersionFromBinPathERK7QString@Base 1.19.0
 _ZN3qbs8Internal4MSVC4initEv@Base 1.7.0
 (optional=implicit)_ZN3qbs8Internal4MSVCC1ERKS1_@Base 1.22.0
 (optional=implicit)_ZN3qbs8Internal4MSVCC2ERKS1_@Base 1.22.0
 _ZN3qbs8Internal4MSVCD1Ev@Base 1.22.0
 _ZN3qbs8Internal4MSVCD2Ev@Base 1.22.0
 _ZN3qbs8Internal4Rule23argumentNamesForPrepareEv@Base 1.22.0
 (optional=templinst)_ZN3qbs8Internal4Rule23completeSerializationOpILNS0_14PersistentPool6OpTypeE0EEEvRS3_@Base 1.22.0
 _ZN3qbs8Internal4Rule31argumentNamesForOutputArtifactsEv@Base 1.22.0
 (optional=inline)_ZN3qbs8Internal4Rule6createEv@Base 1.22.0
 (optional=implicit)_ZN3qbs8Internal4RuleC1ERKS1_@Base 1.22.0
 (optional=implicit)_ZN3qbs8Internal4RuleC2ERKS1_@Base 1.22.0
 _ZN3qbs8Internal4RuleD1Ev@Base 1.22.0
 _ZN3qbs8Internal4RuleD2Ev@Base 1.22.0
 _ZN3qbs8Internal5ProbeD1Ev@Base 1.22.0
 _ZN3qbs8Internal5ProbeD2Ev@Base 1.22.0
 _ZN3qbs8Internal5Value15setDefiningItemEPNS0_4ItemE@Base 1.22.0
 _ZN3qbs8Internal5Value7setNextERKSt10shared_ptrIS1_E@Base 1.22.0
 _ZN3qbs8Internal5ValueC1ENS1_4TypeEb@Base 1.22.0
 _ZN3qbs8Internal5ValueC1ERKS1_@Base 1.22.0
 _ZN3qbs8Internal5ValueC2ENS1_4TypeEb@Base 1.22.0
 _ZN3qbs8Internal5ValueC2ERKS1_@Base 1.22.0
 _ZN3qbs8Internal5ValueD0Ev@Base 1.22.0
 _ZN3qbs8Internal5ValueD1Ev@Base 1.22.0
 _ZN3qbs8Internal5ValueD2Ev@Base 1.22.0
 _ZN3qbs8Internal5qHashERKNS0_12RuleArtifact7BindingE@Base 1.22.0
 _ZN3qbs8Internal5qHashERKNS0_12ScriptEngine16PropertyCacheKeyEj@Base 1.22.0
 _ZN3qbs8Internal5qHashERKNS0_12StringHolderE@Base 1.22.0
 _ZN3qbs8Internal5qHashERKNS0_23VisualStudioVersionInfoE@Base 1.22.0
 _ZN3qbs8Internal6Loader11loadProjectERKNS_22SetupProjectParametersE@Base 1.10.0
 _ZN3qbs8Internal6Loader14setSearchPathsERK11QStringList@Base 1.10.0
 _ZN3qbs8Internal6Loader17setStoredProfilesERK4QMapI7QString8QVariantE@Base 1.10.0
 _ZN3qbs8Internal6Loader19setOldProductProbesERK5QHashI7QStringSt6vectorISt10shared_ptrIKNS0_5ProbeEESaIS8_EEE@Base 1.12.0
 _ZN3qbs8Internal6Loader19setOldProjectProbesERKSt6vectorISt10shared_ptrIKNS0_5ProbeEESaIS6_EE@Base 1.12.0
 _ZN3qbs8Internal6Loader19setProgressObserverEPNS0_16ProgressObserverE@Base 1.10.0
 _ZN3qbs8Internal6Loader20setupProjectFilePathERNS_22SetupProjectParametersE@Base 1.10.0
 _ZN3qbs8Internal6Loader27setStoredModuleProviderInfoERKNS0_24StoredModuleProviderInfoE@Base 1.22.0
 _ZN3qbs8Internal6LoaderC1EPNS0_12ScriptEngineENS0_6LoggerE@Base 1.14.1
 _ZN3qbs8Internal6LoaderC2EPNS0_12ScriptEngineENS0_6LoggerE@Base 1.14.1
 _ZN3qbs8Internal6LoaderD1Ev@Base 1.22.0
 _ZN3qbs8Internal6LoaderD2Ev@Base 1.22.0
 _ZN3qbs8Internal6Logger12printWarningERKNS_9ErrorInfoE@Base 1.7.0
 _ZN3qbs8Internal6LoggerC1EPNS_8ILogSinkE@Base 1.2.1
 _ZN3qbs8Internal6LoggerC2EPNS_8ILogSinkE@Base 1.2.1
 _ZN3qbs8Internal6equalsERKSt6vectorISt10shared_ptrINS0_12ExportedItemEESaIS4_EES8_@Base 1.22.0
 _ZN3qbs8Internal6lcExecEv@Base 1.22.0
 (optional=templinst)_ZN3qbs8Internal6sortedI11QStringListEET_RKS3_@Base 1.22.0
 (optional=templinst)_ZN3qbs8Internal6sortedISt6vectorINS0_8JsImportESaIS3_EEEET_RKS6_@Base 1.22.0
 _ZN3qbs8Internal6textOfERK7QStringPN8QbsQmlJS3AST4NodeE@Base 1.22.0
 _ZN3qbs8Internal7FileTag4loadERNS0_14PersistentPoolE@Base 1.22.0
 _ZN3qbs8Internal7FileTag5clearEv@Base 1.22.0
 _ZN3qbs8Internal7IdCacheD1Ev@Base 1.22.0
 _ZN3qbs8Internal7IdCacheD2Ev@Base 1.22.0
 _ZN3qbs8Internal7Process10readStdErrEv@Base 1.22.0
 _ZN3qbs8Internal7Process10readStdOutEv@Base 1.22.0
 _ZN3qbs8Internal7Process11qt_metacallEN11QMetaObject4CallEiPPv@Base 1.22.0
 _ZN3qbs8Internal7Process11qt_metacastEPKc@Base 1.22.0
 _ZN3qbs8Internal7Process13js_shellQuoteEP14QScriptContextP13QScriptEngine@Base 1.22.0
 _ZN3qbs8Internal7Process15waitForFinishedEi@Base 1.22.0
 _ZN3qbs8Internal7Process16releaseResourcesEv@Base 1.22.0
 _ZN3qbs8Internal7Process16staticMetaObjectE@Base 1.22.0
 _ZN3qbs8Internal7Process16workingDirectoryEv@Base 1.22.0
 _ZN3qbs8Internal7Process17closeWriteChannelEv@Base 1.22.0
 _ZN3qbs8Internal7Process19setWorkingDirectoryERK7QString@Base 1.22.0
 _ZN3qbs8Internal7Process4ctorEP14QScriptContextP13QScriptEngine@Base 1.22.0
 _ZN3qbs8Internal7Process4execERK7QStringRK11QStringListb@Base 1.22.0
 _ZN3qbs8Internal7Process4killEv@Base 1.22.0
 _ZN3qbs8Internal7Process5closeEv@Base 1.22.0
 _ZN3qbs8Internal7Process5startERK7QStringRK11QStringList@Base 1.22.0
 _ZN3qbs8Internal7Process5writeERK7QString@Base 1.22.0
 _ZN3qbs8Internal7Process6getEnvERK7QString@Base 1.22.0
 _ZN3qbs8Internal7Process6setEnvERK7QStringS4_@Base 1.22.0
 _ZN3qbs8Internal7Process8readLineEv@Base 1.22.0
 _ZN3qbs8Internal7Process8setCodecERK7QString@Base 1.22.0
 _ZN3qbs8Internal7Process9terminateEv@Base 1.22.0
 _ZN3qbs8Internal7Process9writeLineERK7QString@Base 1.22.0
 _ZN3qbs8Internal7ProcessC1EP14QScriptContext@Base 1.22.0
 _ZN3qbs8Internal7ProcessC2EP14QScriptContext@Base 1.22.0
 _ZN3qbs8Internal7ProcessD0Ev@Base 1.22.0
 _ZN3qbs8Internal7ProcessD1Ev@Base 1.22.0
 _ZN3qbs8Internal7ProcessD2Ev@Base 1.22.0
 _ZN3qbs8Internal7connectEPNS0_14BuildGraphNodeES2_@Base 1.10.0
 (optional=templinst|arch=i386 mipsel powerpc ppc64 s390x)_ZN3qbs8Internal7rangeToI11QStringListRNS0_3SetI7QStringEEEET_OT0_@Base 1.22.0
 (optional=templinst)_ZN3qbs8Internal7rangeToINS0_3SetIPNS0_12ModuleLoader14ProductContextEEER5QListIS5_EEET_OT0_@Base 1.22.0
 _ZN3qbs8Internal8Artifact10addFileTagERKNS0_7FileTagE@Base 1.10.0
 _ZN3qbs8Internal8Artifact11setFileTagsERKNS0_8FileTagsE@Base 1.10.0
 _ZN3qbs8Internal8Artifact13removeFileTagERKNS0_7FileTagE@Base 1.10.0
 _ZN3qbs8Internal8Artifact19onChildDisconnectedEPNS0_14BuildGraphNodeE@Base 1.10.0
 _ZN3qbs8Internal8Artifact4loadERNS0_14PersistentPoolE@Base 1.10.0
 _ZN3qbs8Internal8Artifact5storeERNS0_14PersistentPoolE@Base 1.12.0
 _ZN3qbs8Internal8Artifact6acceptEPNS0_17BuildGraphVisitorE@Base 1.10.0
 _ZN3qbs8Internal8ArtifactC1Ev@Base 1.10.0
 _ZN3qbs8Internal8ArtifactC2Ev@Base 1.10.0
 _ZN3qbs8Internal8ArtifactD0Ev@Base 1.10.0
 _ZN3qbs8Internal8ArtifactD1Ev@Base 1.10.0
 _ZN3qbs8Internal8ArtifactD2Ev@Base 1.10.0
 _ZN3qbs8Internal8Executor10cancelJobsEv@Base 1.22.0
 _ZN3qbs8Internal8Executor10finishNodeEPNS0_14BuildGraphNodeE@Base 1.22.0
 _ZN3qbs8Internal8Executor10initLeavesEv@Base 1.22.0
 _ZN3qbs8Internal8Executor10setProjectERKSt10shared_ptrINS0_15TopLevelProjectEE@Base 1.22.0
 _ZN3qbs8Internal8Executor11handleErrorERKNS_9ErrorInfoE@Base 1.22.0
 _ZN3qbs8Internal8Executor11qt_metacallEN11QMetaObject4CallEiPPv@Base 1.22.0
 _ZN3qbs8Internal8Executor11qt_metacastEPKc@Base 1.22.0
 _ZN3qbs8Internal8Executor11setProductsERK7QVectorISt10shared_ptrINS0_15ResolvedProductEEE@Base 1.22.0
 _ZN3qbs8Internal8Executor12scheduleJobsEv@Base 1.22.0
 _ZN3qbs8Internal8Executor12updateLeavesEPNS0_14BuildGraphNodeERNS0_3SetIS3_EE@Base 1.22.0
 _ZN3qbs8Internal8Executor12updateLeavesERKNS0_3SetIPNS0_14BuildGraphNodeEEE@Base 1.22.0
 _ZN3qbs8Internal8Executor13buildArtifactEPNS0_8ArtifactE@Base 1.22.0
 _ZN3qbs8Internal8Executor13onJobFinishedERKNS_9ErrorInfoE@Base 1.22.0
 _ZN3qbs8Internal8Executor14doSanityChecksEv@Base 1.22.0
 _ZN3qbs8Internal8Executor14finishArtifactEPNS0_8ArtifactE@Base 1.22.0
 _ZN3qbs8Internal8Executor14runTransformerERKSt10shared_ptrINS0_11TransformerEE@Base 1.22.0
 _ZN3qbs8Internal8Executor14setupJobLimitsEv@Base 1.22.0
 _ZN3qbs8Internal8Executor14setupRootNodesEv@Base 1.22.0
 _ZN3qbs8Internal8Executor15addExecutorJobsEv@Base 1.22.0
 _ZN3qbs8Internal8Executor15executeRuleNodeEPNS0_8RuleNodeE@Base 1.22.0
 _ZN3qbs8Internal8Executor15prepareAllNodesEv@Base 1.22.0
 _ZN3qbs8Internal8Executor15prepareArtifactEPNS0_8ArtifactE@Base 1.22.0
 _ZN3qbs8Internal8Executor15prepareProductsEv@Base 1.22.0
 _ZN3qbs8Internal8Executor15setBuildOptionsERKNS_12BuildOptionsE@Base 1.22.0
 _ZN3qbs8Internal8Executor15updateJobCountsEPKNS0_11TransformerEi@Base 1.22.0
 _ZN3qbs8Internal8Executor16checkNodeProductEPNS0_14BuildGraphNodeE@Base 1.22.0
 _ZN3qbs8Internal8Executor16staticMetaObjectE@Base 1.22.0
 _ZN3qbs8Internal8Executor17finishTransformerERKSt10shared_ptrINS0_11TransformerEE@Base 1.22.0
 _ZN3qbs8Internal8Executor18rescueOldBuildDataEPNS0_8ArtifactEPb@Base 1.22.0
 _ZN3qbs8Internal8Executor19reportProcessResultERKNS_13ProcessResultE@Base 1.22.0
 _ZN3qbs8Internal8Executor20checkForCancellationEv@Base 1.22.0
 _ZN3qbs8Internal8Executor20syncFileDependenciesEv@Base 1.22.0
 _ZN3qbs8Internal8Executor21prepareReachableNodesEv@Base 1.22.0
 _ZN3qbs8Internal8Executor21setupProgressObserverEv@Base 1.22.0
 _ZN3qbs8Internal8Executor23checkForUnbuiltProductsEv@Base 1.22.0
 _ZN3qbs8Internal8Executor23possiblyInstallArtifactEPKNS0_8ArtifactE@Base 1.22.0
 _ZN3qbs8Internal8Executor24reportCommandDescriptionERK7QStringS4_@Base 1.22.0
 _ZN3qbs8Internal8Executor25potentiallyRunTransformerERKSt10shared_ptrINS0_11TransformerEE@Base 1.22.0
 _ZN3qbs8Internal8Executor26prepareReachableNodes_implEPNS0_14BuildGraphNodeE@Base 1.22.0
 _ZN3qbs8Internal8Executor27checkForUnbuiltDependenciesEPNS0_8ArtifactE@Base 1.22.0
 _ZN3qbs8Internal8Executor27schedulingBlockedByJobLimitEPKNS0_14BuildGraphNodeE@Base 1.22.0
 _ZN3qbs8Internal8Executor29setupForBuildingSelectedFilesEPKNS0_14BuildGraphNodeE@Base 1.22.0
 _ZN3qbs8Internal8Executor5buildEv@Base 1.22.0
 _ZN3qbs8Internal8Executor5visitEPNS0_8ArtifactE@Base 1.22.0
 _ZN3qbs8Internal8Executor5visitEPNS0_8RuleNodeE@Base 1.22.0
 _ZN3qbs8Internal8Executor6finishEv@Base 1.22.0
 _ZN3qbs8Internal8Executor7doBuildEv@Base 1.22.0
 _ZN3qbs8Internal8Executor8finishedEv@Base 1.22.0
 _ZN3qbs8Internal8Executor8setStateENS1_13ExecutorStateE@Base 1.22.0
 _ZN3qbs8Internal8Executor9finishJobEPNS0_11ExecutorJobEb@Base 1.22.0
 _ZN3qbs8Internal8ExecutorC1ENS0_6LoggerEP7QObject@Base 1.22.0
 _ZN3qbs8Internal8ExecutorC2ENS0_6LoggerEP7QObject@Base 1.22.0
 _ZN3qbs8Internal8ExecutorD0Ev@Base 1.22.0
 _ZN3qbs8Internal8ExecutorD1Ev@Base 1.22.0
 _ZN3qbs8Internal8ExecutorD2Ev@Base 1.22.0
 _ZN3qbs8Internal8FileInfo10fileExistsERK9QFileInfo@Base 1.10.0
 _ZN3qbs8Internal8FileInfo10isAbsoluteERK7QStringNS0_10HostOsInfo6HostOsE@Base 1.10.0
 _ZN3qbs8Internal8FileInfo11resolvePathERK7QStringS4_NS0_10HostOsInfo6HostOsE@Base 1.10.0
 _ZN3qbs8Internal8FileInfo14completeSuffixERK7QString@Base 1.12.0
 _ZN3qbs8Internal8FileInfo16completeBaseNameERK7QString@Base 1.10.0
 _ZN3qbs8Internal8FileInfo17isFileCaseCorrectERK7QString@Base 1.10.0
 _ZN3qbs8Internal8FileInfo29splitIntoDirectoryAndFileNameERK7QStringP11QStringViewS6_@Base 1.19.0
 _ZN3qbs8Internal8FileInfo29splitIntoDirectoryAndFileNameERK7QStringPS2_S5_@Base 1.10.0
 _ZN3qbs8Internal8FileInfo4pathERK7QStringNS0_10HostOsInfo6HostOsE@Base 1.10.0
 _ZN3qbs8Internal8FileInfo6existsERK7QString@Base 1.10.0
 _ZN3qbs8Internal8FileInfo6suffixERK7QString@Base 1.12.0
 _ZN3qbs8Internal8FileInfo8baseNameERK7QString@Base 1.10.0
 _ZN3qbs8Internal8FileInfo8fileNameERK7QString@Base 1.10.0
 _ZN3qbs8Internal8FileInfo9isPatternE11QStringView@Base 1.19.0
 _ZN3qbs8Internal8FileInfoC1ERK7QString@Base 1.10.0
 _ZN3qbs8Internal8FileInfoC2ERK7QString@Base 1.10.0
 _ZN3qbs8Internal8FileTags14fromStringListERK11QStringList@Base 1.22.0
 _ZN3qbs8Internal8FileTagsD1Ev@Base 1.22.0
 _ZN3qbs8Internal8FileTagsD2Ev@Base 1.22.0
 _ZN3qbs8Internal8FileTime10oldestTimeEv@Base 1.10.0
 _ZN3qbs8Internal8FileTime11currentTimeEv@Base 1.10.0
 _ZN3qbs8Internal8FileTime5clearEv@Base 1.10.0
 _ZN3qbs8Internal8FileTimeC1ERK8timespec@Base 1.10.0
 _ZN3qbs8Internal8FileTimeC1Ev@Base 1.10.0
 _ZN3qbs8Internal8FileTimeC2ERK8timespec@Base 1.10.0
 _ZN3qbs8Internal8FileTimeC2Ev@Base 1.10.0
 _ZN3qbs8Internal8ItemPool12allocateItemERKNS0_8ItemTypeE@Base 1.10.0
 _ZN3qbs8Internal8ItemPoolC1Ev@Base 1.10.0
 _ZN3qbs8Internal8ItemPoolC2Ev@Base 1.10.0
 _ZN3qbs8Internal8ItemPoolD1Ev@Base 1.10.0
 _ZN3qbs8Internal8ItemPoolD2Ev@Base 1.10.0
 _ZN3qbs8Internal8JsImportD1Ev@Base 1.22.0
 _ZN3qbs8Internal8JsImportD2Ev@Base 1.22.0
 (optional=templinst)_ZN3qbs8Internal8PPHelperI4QMapI7QString8QVariantEvE4loadERS5_PNS0_14PersistentPoolE@Base 1.22.0
 (optional=templinst)_ZN3qbs8Internal8PPHelperI4QMapI7QString8QVariantEvE5storeERKS5_PNS0_14PersistentPoolE@Base 1.22.0
 (optional=templinst)_ZN3qbs8Internal8PPHelperI4QMapISt10shared_ptrIKNS0_15ResolvedProductEES2_I7QString8QVariantEEvE4loadERSA_PNS0_14PersistentPoolE@Base 1.22.0
 (optional=templinst)_ZN3qbs8Internal8PPHelperI5QHashI7QStringNS0_21RescuableArtifactDataEEvE4loadERS5_PNS0_14PersistentPoolE@Base 1.22.0
 (optional=templinst)_ZN3qbs8Internal8PPHelperI5QHashI7QStringNS0_21RescuableArtifactDataEEvE5storeERKS5_PNS0_14PersistentPoolE@Base 1.22.0
 (optional=templinst)_ZN3qbs8Internal8PPHelperI5QHashI7QStringNS0_3SetINS0_8PropertyEEEEvE4loadERS7_PNS0_14PersistentPoolE@Base 1.22.0
 (optional=templinst)_ZN3qbs8Internal8PPHelperI5QHashI7QStringNS0_8FileTimeEEvE4loadERS5_PNS0_14PersistentPoolE@Base 1.22.0
 (optional=templinst)_ZN3qbs8Internal8PPHelperI5QHashI7QStringSt6vectorINS0_14RawScanResults8ScanDataESaIS6_EEEvE4loadERS9_PNS0_14PersistentPoolE@Base 1.22.0
 (optional=templinst)_ZN3qbs8Internal8PPHelperI5QHashI7QStringSt6vectorINS0_14RawScanResults8ScanDataESaIS6_EEEvE5storeERKS9_PNS0_14PersistentPoolE@Base 1.22.0
 (optional=templinst)_ZN3qbs8Internal8PPHelperI5QHashI7QStringbEvE4loadERS4_PNS0_14PersistentPoolE@Base 1.22.0
 (optional=templinst)_ZN3qbs8Internal8PPHelperI5QHashINS0_7FileTagENS0_3SetIPNS0_8ArtifactEEEEvE4loadERS8_PNS0_14PersistentPoolE@Base 1.22.0
 (optional=templinst)_ZN3qbs8Internal8PPHelperI5QHashISt10shared_ptrIKNS0_14ResolvedModuleEE4QMapI7QString8QVariantEEvE4loadERSB_PNS0_14PersistentPoolE@Base 1.22.0
 (optional=templinst)_ZN3qbs8Internal8PPHelperI5QHashISt10shared_ptrIKNS0_15ResolvedProductEE4QMapI7QString8QVariantEEvE4loadERSB_PNS0_14PersistentPoolE@Base 1.22.0
 (optional=templinst)_ZN3qbs8Internal8PPHelperI5QHashISt4pairI7QStringjE11QStringListEvE4loadERS7_PNS0_14PersistentPoolE@Base 1.22.0
 (optional=templinst)_ZN3qbs8Internal8PPHelperI5QHashISt5tupleIJ7QString4QMapIS4_8QVariantEiEENS0_18ModuleProviderInfoEEvE4loadERSA_PNS0_14PersistentPoolE@Base 1.22.0
 (optional=templinst)_ZN3qbs8Internal8PPHelperI7QStringvE4loadERS2_PNS0_14PersistentPoolE@Base 1.22.0
 (optional=templinst)_ZN3qbs8Internal8PPHelperISt13unordered_mapI7QStringNS0_14ExportedModuleESt4hashIS3_ESt8equal_toIS3_ESaISt4pairIKS3_S4_EEEvE4loadERSD_PNS0_14PersistentPoolE@Base 1.22.0
 (optional=templinst)_ZN3qbs8Internal8PPHelperISt13unordered_mapI7QStringNS0_14ExportedModuleESt4hashIS3_ESt8equal_toIS3_ESaISt4pairIKS3_S4_EEEvE5storeERKSD_PNS0_14PersistentPoolE@Base 1.22.0
 (optional=templinst)_ZN3qbs8Internal8PPHelperISt13unordered_mapI7QStringNS0_18RequestedArtifacts28RequestedArtifactsPerProductESt4hashIS3_ESt8equal_toIS3_ESaISt4pairIKS3_S5_EEEvE4loadERSE_PNS0_14PersistentPoolE@Base 1.22.0
 (optional=templinst)_ZN3qbs8Internal8PPHelperISt13unordered_mapI7QStringNS0_3SetIS3_EENS0_21RequestedDependencies11QStringHashESt8equal_toIS3_ESaISt4pairIKS3_S5_EEEvE4loadERSE_PNS0_14PersistentPoolE@Base 1.22.0
 (optional=templinst|arch=armel armhf i386 mips64el mipsel powerpc ppc64 ppc64el riscv64 s390x)_ZN3qbs8Internal8PPHelperISt13unordered_mapI7QStringNS0_3SetIS3_EESt4hashIS3_ESt8equal_toIS3_ESaISt4pairIKS3_S5_EEEvE4loadERSE_PNS0_14PersistentPoolE@Base 1.22.0
 (optional=templinst)_ZN3qbs8Internal8PPHelperISt6vectorI7QStringSaIS3_EEvE4loadERS5_PNS0_14PersistentPoolE@Base 1.22.0
 (optional=templinst)_ZN3qbs8Internal8PPHelperISt6vectorINS0_12RuleArtifact7BindingESaIS4_EEvE4loadERS6_PNS0_14PersistentPoolE@Base 1.22.0
 (optional=templinst)_ZN3qbs8Internal8PPHelperISt6vectorINS0_14RawScanResults8ScanDataESaIS4_EEvE4loadERS6_PNS0_14PersistentPoolE@Base 1.22.0
 (optional=templinst)_ZN3qbs8Internal8PPHelperISt6vectorINS0_16ExportedPropertyESaIS3_EEvE4loadERS5_PNS0_14PersistentPoolE@Base 1.22.0
 (optional=templinst)_ZN3qbs8Internal8PPHelperISt6vectorINS0_8JsImportESaIS3_EEvE4loadERS5_PNS0_14PersistentPoolE@Base 1.22.0
 (optional=templinst)_ZN3qbs8Internal8PPHelperISt6vectorISt10shared_ptrIKNS0_10FileTaggerEESaIS6_EEvE4loadERS8_PNS0_14PersistentPoolE@Base 1.22.0
 (optional=templinst)_ZN3qbs8Internal8PPHelperISt6vectorISt10shared_ptrIKNS0_10FileTaggerEESaIS6_EEvE5storeERKS8_PNS0_14PersistentPoolE@Base 1.22.0
 (optional=templinst)_ZN3qbs8Internal8PPHelperISt6vectorISt10shared_ptrIKNS0_15ResolvedScannerEESaIS6_EEvE4loadERS8_PNS0_14PersistentPoolE@Base 1.22.0
 (optional=templinst)_ZN3qbs8Internal8PPHelperISt6vectorISt10shared_ptrIKNS0_5ProbeEESaIS6_EEvE4loadERS8_PNS0_14PersistentPoolE@Base 1.22.0
 (optional=templinst)_ZN3qbs8Internal8PPHelperISt6vectorISt10shared_ptrINS0_12ExportedItemEESaIS5_EEvE4loadERS7_PNS0_14PersistentPoolE@Base 1.22.0
 (optional=templinst)_ZN3qbs8Internal8PPHelperISt6vectorISt10shared_ptrINS0_12ExportedItemEESaIS5_EEvE5storeERKS7_PNS0_14PersistentPoolE@Base 1.22.0
 (optional=templinst)_ZN3qbs8Internal8PPHelperISt6vectorISt10shared_ptrINS0_12RuleArtifactEESaIS5_EEvE4loadERS7_PNS0_14PersistentPoolE@Base 1.22.0
 (optional=templinst)_ZN3qbs8Internal8PPHelperISt6vectorISt10shared_ptrINS0_12RuleArtifactEESaIS5_EEvE5storeERKS7_PNS0_14PersistentPoolE@Base 1.22.0
 (optional=templinst)_ZN3qbs8Internal8PPHelperISt6vectorISt10shared_ptrINS0_13ResolvedGroupEESaIS5_EEvE4loadERS7_PNS0_14PersistentPoolE@Base 1.22.0
 (optional=templinst)_ZN3qbs8Internal8PPHelperISt6vectorISt10shared_ptrINS0_14ResolvedModuleEESaIS5_EEvE4loadERS7_PNS0_14PersistentPoolE@Base 1.22.0
 (optional=templinst)_ZN3qbs8Internal8PPHelperISt6vectorISt10shared_ptrINS0_15ResolvedProductEESaIS5_EEvE4loadERS7_PNS0_14PersistentPoolE@Base 1.22.0
 (optional=templinst)_ZN3qbs8Internal8PPHelperISt6vectorISt10shared_ptrINS0_15ResolvedProjectEESaIS5_EEvE4loadERS7_PNS0_14PersistentPoolE@Base 1.22.0
 (optional=templinst)_ZN3qbs8Internal8PPHelperISt6vectorISt10shared_ptrINS0_18ArtifactPropertiesEESaIS5_EEvE4loadERS7_PNS0_14PersistentPoolE@Base 1.22.0
 (optional=templinst)_ZN3qbs8Internal8PPHelperISt6vectorISt10shared_ptrINS0_22SourceArtifactInternalEESaIS5_EEvE4loadERS7_PNS0_14PersistentPoolE@Base 1.22.0
 (optional=templinst)_ZN3qbs8Internal8PPHelperISt6vectorISt10shared_ptrINS0_4RuleEESaIS5_EEvE4loadERS7_PNS0_14PersistentPoolE@Base 1.22.0
 (optional=templinst)_ZN3qbs8Internal8PPHelperISt6vectorISt10shared_ptrINS0_4RuleEESaIS5_EEvE5storeERKS7_PNS0_14PersistentPoolE@Base 1.22.0
 _ZN3qbs8Internal8PropertyD1Ev@Base 1.22.0
 _ZN3qbs8Internal8PropertyD2Ev@Base 1.22.0
 _ZN3qbs8Internal8RuleNode22removeOldInputArtifactEPNS0_8ArtifactE@Base 1.22.0
 _ZN3qbs8Internal8RuleNode4loadERNS0_14PersistentPoolE@Base 1.22.0
 _ZN3qbs8Internal8RuleNode5applyERKNS0_6LoggerERKSt13unordered_mapI7QStringPKNS0_15ResolvedProductESt4hashIS6_ESt8equal_toIS6_ESaISt4pairIKS6_S9_EEERKS5_IS6_PKNS0_15ResolvedProjectESB_SD_SaISE_ISF_SN_EEEPNS1_17ApplicationResultE@Base 1.22.0
 _ZN3qbs8Internal8RuleNode5storeERNS0_14PersistentPoolE@Base 1.22.0
 _ZN3qbs8Internal8RuleNode6acceptEPNS0_17BuildGraphVisitorE@Base 1.22.0
 _ZN3qbs8Internal8RuleNodeC1Ev@Base 1.22.0
 _ZN3qbs8Internal8RuleNodeC2Ev@Base 1.22.0
 _ZN3qbs8Internal8RuleNodeD0Ev@Base 1.22.0
 _ZN3qbs8Internal8RuleNodeD1Ev@Base 1.22.0
 _ZN3qbs8Internal8RuleNodeD2Ev@Base 1.22.0
 _ZN3qbs8Internal8TextFile11qt_metacallEN11QMetaObject4CallEiPPv@Base 1.22.0
 _ZN3qbs8Internal8TextFile11qt_metacastEPKc@Base 1.22.0
 _ZN3qbs8Internal8TextFile16releaseResourcesEv@Base 1.22.0
 _ZN3qbs8Internal8TextFile16staticMetaObjectE@Base 1.22.0
 _ZN3qbs8Internal8TextFile4ctorEP14QScriptContextP13QScriptEngine@Base 1.22.0
 _ZN3qbs8Internal8TextFile5closeEv@Base 1.22.0
 _ZN3qbs8Internal8TextFile5writeERK7QString@Base 1.22.0
 _ZN3qbs8Internal8TextFile7readAllEv@Base 1.22.0
 _ZN3qbs8Internal8TextFile8filePathEv@Base 1.22.0
 _ZN3qbs8Internal8TextFile8readLineEv@Base 1.22.0
 _ZN3qbs8Internal8TextFile8setCodecERK7QString@Base 1.22.0
 _ZN3qbs8Internal8TextFile8truncateEv@Base 1.22.0
 _ZN3qbs8Internal8TextFile9writeLineERK7QString@Base 1.22.0
 _ZN3qbs8Internal8TextFileC1EP14QScriptContextRK7QStringNS1_8OpenModeES6_@Base 1.22.0
 _ZN3qbs8Internal8TextFileC2EP14QScriptContextRK7QStringNS1_8OpenModeES6_@Base 1.22.0
 _ZN3qbs8Internal8TextFileD0Ev@Base 1.22.0
 _ZN3qbs8Internal8TextFileD1Ev@Base 1.22.0
 _ZN3qbs8Internal8TextFileD2Ev@Base 1.22.0
 (optional=templinst)_ZN3qbs8Internal8containsISt6vectorI7QStringSaIS3_EES3_EEbRKT_RKT0_@Base 1.22.0
 (optional=templinst)_ZN3qbs8Internal8containsISt6vectorIPNS0_16FileResourceBaseESaIS4_EES4_EEbRKT_RKT0_@Base 1.22.0
 (optional=templinst)_ZN3qbs8Internal8containsISt6vectorISt10shared_ptrINS0_15ResolvedProductEESaIS5_EES5_EEbRKT_RKT0_@Base 1.22.0
 (optional=templinst)_ZN3qbs8Internal8containsISt6vectorISt10shared_ptrINS0_4RuleEESaIS5_EES5_EEbRKT_RKT0_@Base 1.22.0
 _ZN3qbs8Internal8findPathEPNS0_14BuildGraphNodeES2_R5QListIS2_E@Base 1.22.0
 (optional=templinst)_ZN3qbs8Internal8fromJsonINS_15CommandEchoModeEEET_RK10QJsonValue@Base 1.16.0
 (optional=templinst)_ZN3qbs8Internal8fromJsonINS_17ErrorHandlingModeEEET_RK10QJsonValue@Base 1.16.0
 (optional=templinst)_ZN3qbs8Internal8fromJsonINS_22SetupProjectParameters15RestoreBehaviorEEET_RK10QJsonValue@Base 1.16.0
 (optional=templinst)_ZN3qbs8Internal8fromJsonINS_9JobLimitsEEET_RK10QJsonValue@Base 1.16.0
 _ZN3qbs8Internal9Evaluator11scriptValueEPKNS0_4ItemE@Base 1.10.0
 _ZN3qbs8Internal9Evaluator11stringValueEPKNS0_4ItemERK7QStringS7_Pb@Base 1.10.0
 _ZN3qbs8Internal9Evaluator13fileTagsValueEPKNS0_4ItemERK7QStringPb@Base 1.10.0
 _ZN3qbs8Internal9Evaluator15stringListValueEPKNS0_4ItemERK7QStringPb@Base 1.10.0
 _ZN3qbs8Internal9Evaluator16evaluatePropertyEP12QScriptValuePKNS0_4ItemERK7QStringPb@Base 1.10.0
 _ZN3qbs8Internal9Evaluator17fileContextScopesERKSt10shared_ptrIKNS0_11FileContextEE@Base 1.10.0
 _ZN3qbs8Internal9Evaluator17setCachingEnabledEb@Base 1.10.0
 _ZN3qbs8Internal9Evaluator21convertToPropertyTypeERKNS0_19PropertyDeclarationERKNS_12CodeLocationER12QScriptValue@Base 1.11.0
 _ZN3qbs8Internal9Evaluator21handleEvaluationErrorEPKNS0_4ItemERK7QStringRK12QScriptValue@Base 1.10.0
 _ZN3qbs8Internal9Evaluator21onItemPropertyChangedEPNS0_4ItemE@Base 1.10.0
 _ZN3qbs8Internal9Evaluator23optionalStringListValueEPKNS0_4ItemERK7QStringPb@Base 1.22.0
 _ZN3qbs8Internal9Evaluator24setPathPropertiesBaseDirERK7QString@Base 1.10.0
 _ZN3qbs8Internal9Evaluator25clearPropertyDependenciesEv@Base 1.10.0
 _ZN3qbs8Internal9Evaluator26clearPathPropertiesBaseDirEv@Base 1.10.0
 _ZN3qbs8Internal9Evaluator5valueEPKNS0_4ItemERK7QStringPb@Base 1.10.0
 _ZN3qbs8Internal9Evaluator8intValueEPKNS0_4ItemERK7QStringiPb@Base 1.10.0
 _ZN3qbs8Internal9Evaluator8propertyEPKNS0_4ItemERK7QString@Base 1.10.0
 _ZN3qbs8Internal9Evaluator9boolValueEPKNS0_4ItemERK7QStringPb@Base 1.11.0
 _ZN3qbs8Internal9EvaluatorC1EPNS0_12ScriptEngineE@Base 1.10.0
 _ZN3qbs8Internal9EvaluatorC2EPNS0_12ScriptEngineE@Base 1.10.0
 _ZN3qbs8Internal9EvaluatorD0Ev@Base 1.10.0
 _ZN3qbs8Internal9EvaluatorD1Ev@Base 1.10.0
 _ZN3qbs8Internal9EvaluatorD2Ev@Base 1.10.0
 _ZN3qbs8Internal9FileSaver4openEv@Base 1.10.0
 _ZN3qbs8Internal9FileSaver5writeESt17basic_string_viewIcSt11char_traitsIcEE@Base 1.18.0
 _ZN3qbs8Internal9FileSaver6commitEv@Base 1.10.0
 _ZN3qbs8Internal9FileSaver6deviceEv@Base 1.10.0
 _ZN3qbs8Internal9FileSaverC1ENSt7__cxx1112basic_stringIcSt11char_traitsIcESaIcEEEb@Base 1.14.1
 _ZN3qbs8Internal9FileSaverC2ENSt7__cxx1112basic_stringIcSt11char_traitsIcESaIcEEEb@Base 1.14.1
 _ZN3qbs8Internal9ItemValue5applyEPNS0_12ValueHandlerE@Base 1.22.0
 _ZN3qbs8Internal9ItemValue6createEPNS0_4ItemEb@Base 1.22.0
 _ZN3qbs8Internal9ItemValueC1EPNS0_4ItemEb@Base 1.22.0
 _ZN3qbs8Internal9ItemValueC2EPNS0_4ItemEb@Base 1.22.0
 _ZN3qbs8Internal9ItemValueD0Ev@Base 1.22.0
 _ZN3qbs8Internal9ItemValueD1Ev@Base 1.22.0
 _ZN3qbs8Internal9ItemValueD2Ev@Base 1.22.0
 _ZN3qbs8Internal9LogWriter13setMessageTagERK7QString@Base 1.2.1
 _ZN3qbs8Internal9LogWriter5writeEPKc@Base 1.2.1
 _ZN3qbs8Internal9LogWriter5writeERK5QChar@Base 1.2.1
 _ZN3qbs8Internal9LogWriter5writeERK7QString@Base 1.2.1
 _ZN3qbs8Internal9LogWriter5writeEc@Base 1.2.1
 _ZN3qbs8Internal9LogWriterC1EPNS_8ILogSinkENS_11LoggerLevelEb@Base 1.2.1
 _ZN3qbs8Internal9LogWriterC1ERKS1_@Base 1.2.1
 _ZN3qbs8Internal9LogWriterC2EPNS_8ILogSinkENS_11LoggerLevelEb@Base 1.2.1
 _ZN3qbs8Internal9LogWriterC2ERKS1_@Base 1.2.1
 _ZN3qbs8Internal9LogWriterD1Ev@Base 1.2.1
 _ZN3qbs8Internal9LogWriterD2Ev@Base 1.2.1
 _ZN3qbs8Internal9LogWriteraSERKS1_@Base 1.2.1
 _ZN3qbs8Internal9QtScanner18collectSearchPathsEPNS0_8ArtifactE@Base 1.22.0
 _ZN3qbs8Internal9QtScanner19collectDependenciesEPNS0_8ArtifactEPNS0_16FileResourceBaseEPKc@Base 1.22.0
 _ZN3qbs8Internal9QtScannerD0Ev@Base 1.22.0
 _ZN3qbs8Internal9QtScannerD1Ev@Base 1.22.0
 _ZN3qbs8Internal9QtScannerD2Ev@Base 1.22.0
 _ZN3qbs8Internal9RuleGraph5buildERKSt6vectorISt10shared_ptrINS0_4RuleEESaIS5_EERKNS0_8FileTagsE@Base 1.22.0
 _ZN3qbs8Internal9RuleGraph6insertERKSt10shared_ptrINS0_4RuleEE@Base 1.22.0
 _ZN3qbs8Internal9RuleGraph7connectEPKNS0_4RuleES4_@Base 1.22.0
 _ZN3qbs8Internal9RuleGraphC1Ev@Base 1.22.0
 _ZN3qbs8Internal9RuleGraphC2Ev@Base 1.22.0
 _ZN3qbs8Internal9RuleGraphD1Ev@Base 1.22.0
 _ZN3qbs8Internal9RuleGraphD2Ev@Base 1.22.0
 (optional=templinst|arch=i386)_ZN3qbs8Internal9hashRangeIRK5QHashI7QString8QVariantEEEjOT_@Base 1.22.0
 _ZN3qbs8Internal9lcDepScanEv@Base 1.22.0
 _ZN3qbs8Internal9lcMocScanEv@Base 1.22.0
 (optional=templinst)_ZN3qbs8Internal9listToMapISt6vectorISt10shared_ptrINS0_18ArtifactPropertiesEESaIS5_EEEE4QMapI7QStringNT_10value_typeEERKSA_@Base 1.22.0
 (optional=templinst)_ZN3qbs8Internal9listToMapISt6vectorISt10shared_ptrINS0_4RuleEESaIS5_EEEE4QMapI7QStringNT_10value_typeEERKSA_@Base 1.22.0
 _ZN3qbs8InternaleqERKNS0_11CommandListES3_@Base 1.22.0
 _ZN3qbs8InternaleqERKNS0_12ExportedItemES3_@Base 1.22.0
 _ZN3qbs8InternaleqERKNS0_12RuleArtifact7BindingES4_@Base 1.22.0
 _ZN3qbs8InternaleqERKNS0_12RuleArtifactES3_@Base 1.22.0
 _ZN3qbs8InternaleqERKNS0_12ScriptEngine16PropertyCacheKeyES4_@Base 1.22.0
 _ZN3qbs8InternaleqERKNS0_14ExportedModuleES3_@Base 1.22.0
 _ZN3qbs8InternaleqERKNS0_14ResolvedModuleES3_@Base 1.22.0
 _ZN3qbs8InternaleqERKNS0_14ScriptFunctionES3_@Base 1.22.0
 _ZN3qbs8InternaleqERKNS0_16ExportedPropertyES3_@Base 1.22.0
 _ZN3qbs8InternaleqERKNS0_18ArtifactPropertiesES3_@Base 1.22.0
 _ZN3qbs8InternaleqERKNS0_19ResolvedFileContextES3_@Base 1.22.0
 _ZN3qbs8InternaleqERKNS0_20RawScannedDependencyES3_@Base 1.22.0
 _ZN3qbs8InternaleqERKNS0_21PrivateScriptFunctionES3_@Base 1.22.0
 _ZN3qbs8InternaleqERKNS0_22SourceArtifactInternalES3_@Base 1.22.0
 _ZN3qbs8InternaleqERKNS0_24ExportedModuleDependencyES3_@Base 1.22.0
 _ZN3qbs8InternaleqERKNS0_4RuleES3_@Base 1.22.0
 (optional=templinst|arch=armel riscv64)_ZN3qbs8InternaleqINS0_15ResolvedProductEKS2_EEbRKNS0_11WeakPointerIT_EERKSt10shared_ptrIT0_E@Base 1.22.0
 (optional=templinst|arch=armel riscv64)_ZN3qbs8InternaleqINS0_15ResolvedProductES2_EEbRKNS0_11WeakPointerIT_EERKSt10shared_ptrIT0_E@Base 1.22.0
 (optional=templinst|arch=armel riscv64)_ZN3qbs8InternaleqINS0_15ResolvedProjectES2_EEbRKNS0_11WeakPointerIT_EERKSt10shared_ptrIT0_E@Base 1.22.0
 _ZN3qbs8InternallsE6QDebugRKNS0_7FileTagE@Base 1.22.0
 _ZN3qbs8InternallsE6QDebugRKNS0_8FileTagsE@Base 1.22.0
 _ZN3qbs8InternallsENS0_9LogWriterEPKc@Base 1.2.1
 _ZN3qbs8InternallsENS0_9LogWriterERK10QByteArray@Base 1.2.1
 _ZN3qbs8InternallsENS0_9LogWriterERK11QStringList@Base 1.2.1
 _ZN3qbs8InternallsENS0_9LogWriterERK7QString@Base 1.2.1
 _ZN3qbs8InternallsENS0_9LogWriterERK8QVariant@Base 1.2.1
 _ZN3qbs8InternallsENS0_9LogWriterERKNS0_10MessageTagE@Base 1.2.1
 _ZN3qbs8InternallsENS0_9LogWriterERKNS0_3SetI7QStringEE@Base 1.8.0
 _ZN3qbs8InternallsENS0_9LogWriterERKNS0_8FileTagsE@Base 1.22.0
 _ZN3qbs8InternallsENS0_9LogWriterEb@Base 1.2.1
 _ZN3qbs8InternallsENS0_9LogWriterEi@Base 1.2.1
 _ZN3qbs8InternallsENS0_9LogWriterEx@Base 1.2.1
 _ZN3qbs8InternalltERKNS0_8PropertyES3_@Base 1.22.0
 (optional=templinst)_ZN3qbs8InternalmiI7QStringEENS0_3SetIT_EERKS5_S7_@Base 1.22.0
 (optional=templinst)_ZN3qbs8InternalmiINS0_7FileTagEEENS0_3SetIT_EERKS5_S7_@Base 1.22.0
 (optional=templinst)_ZN3qbs8InternalmiIPNS0_12ModuleLoader14ProductContextEEENS0_3SetIT_EERKS7_S9_@Base 1.22.0
 (optional=templinst)_ZN3qbs8InternalmiIPNS0_8ArtifactEEENS0_3SetIT_EERKS6_S8_@Base 1.22.0
 (optional=templinst)_ZN3qbs8InternalmiISt10shared_ptrINS0_15ResolvedProductEEEENS0_3SetIT_EERKS7_S9_@Base 1.22.0
 (optional=templinst|arch=armel riscv64)_ZN3qbs8InternalneINS0_15ResolvedProductEKS2_EEbRKNS0_11WeakPointerIT_EERKSt10shared_ptrIT0_E@Base 1.22.0
 _ZN3qbs8JobLimit4loadERNS_8Internal14PersistentPoolE@Base 1.13.0
 _ZN3qbs8JobLimit5storeERNS_8Internal14PersistentPoolE@Base 1.13.0
 _ZN3qbs8JobLimitC1ERK7QStringi@Base 1.13.0
 _ZN3qbs8JobLimitC1ERKS0_@Base 1.13.0
 _ZN3qbs8JobLimitC1Ev@Base 1.13.0
 _ZN3qbs8JobLimitC2ERK7QStringi@Base 1.13.0
 _ZN3qbs8JobLimitC2ERKS0_@Base 1.13.0
 _ZN3qbs8JobLimitC2Ev@Base 1.13.0
 _ZN3qbs8JobLimitD1Ev@Base 1.13.0
 _ZN3qbs8JobLimitD2Ev@Base 1.13.0
 _ZN3qbs8JobLimitaSERKS0_@Base 1.13.0
 _ZN3qbs8PcParser11doParseLibsERKSt6vectorINSt7__cxx1112basic_stringIcSt11char_traitsIcESaIcEEESaIS7_EE@Base 1.22.0
 _ZN3qbs8PcParser11parseCFlagsERNS_9PcPackageESt17basic_string_viewIcSt11char_traitsIcEE@Base 1.22.0
 _ZN3qbs8PcParser15parseModuleListERNS_9PcPackageESt17basic_string_viewIcSt11char_traitsIcEE@Base 1.22.0
 _ZN3qbs8PcParser16parsePackageFileERKNSt7__cxx1112basic_stringIcSt11char_traitsIcESaIcEEE@Base 1.22.0
 _ZN3qbs8PcParser16parseStringFieldERNS_9PcPackageERNSt7__cxx1112basic_stringIcSt11char_traitsIcESaIcEEESt17basic_string_viewIcS6_ESB_@Base 1.22.0
 _ZN3qbs8PcParser18parseVersionsFieldERNS_9PcPackageERSt6vectorINS1_15RequiredVersionESaIS4_EESt17basic_string_viewIcSt11char_traitsIcEESB_@Base 1.22.0
 _ZN3qbs8PcParser9parseLibsERNS_9PcPackageERSt6vectorINS1_4FlagESaIS4_EESt17basic_string_viewIcSt11char_traitsIcEESB_@Base 1.22.0
 _ZN3qbs8PcParser9parseLineERNS_9PcPackageESt17basic_string_viewIcSt11char_traitsIcEE@Base 1.22.0
 _ZN3qbs8PcParserC1ERKNS_9PkgConfigE@Base 1.22.0
 _ZN3qbs8PcParserC2ERKNS_9PkgConfigE@Base 1.22.0
 _ZN3qbs8Settings18checkForWriteErrorEv@Base 1.12.0
 _ZN3qbs8Settings28defaultSystemSettingsBaseDirEv@Base 1.13.1
 _ZN3qbs8Settings4syncEv@Base 1.3.1
 _ZN3qbs8Settings5clearEv@Base 1.2.1
 _ZN3qbs8Settings6removeERK7QString@Base 1.2.1
 _ZN3qbs8Settings8setValueERK7QStringRK8QVariant@Base 1.2.1
 _ZN3qbs8SettingsC1ERK7QString@Base 1.2.1
 _ZN3qbs8SettingsC1ERK7QStringS3_@Base 1.12.0
 _ZN3qbs8SettingsC2ERK7QString@Base 1.2.1
 _ZN3qbs8SettingsC2ERK7QStringS3_@Base 1.12.0
 _ZN3qbs8SettingsD1Ev@Base 1.2.1
 _ZN3qbs8SettingsD2Ev@Base 1.2.1
 _ZN3qbs9ErrorInfo15appendBacktraceERK7QStringRKNS_12CodeLocationE@Base 1.5.0
 _ZN3qbs9ErrorInfo4loadERNS_8Internal14PersistentPoolE@Base 1.7.0
 _ZN3qbs9ErrorInfo5clearEv@Base 1.2.1
 _ZN3qbs9ErrorInfo6appendERK7QStringRKNS_12CodeLocationE@Base 1.2.1
 _ZN3qbs9ErrorInfo6appendERKNS_9ErrorItemE@Base 1.8.0
 _ZN3qbs9ErrorInfo7prependERK7QStringRKNS_12CodeLocationE@Base 1.2.1
 _ZN3qbs9ErrorInfoC1EOS0_@Base 1.16.0
 _ZN3qbs9ErrorInfoC1ERK7QStringRK11QStringList@Base 1.5.0
 _ZN3qbs9ErrorInfoC1ERK7QStringRKNS_12CodeLocationEb@Base 1.2.1
 _ZN3qbs9ErrorInfoC1ERKS0_@Base 1.2.1
 _ZN3qbs9ErrorInfoC1Ev@Base 1.2.1
 _ZN3qbs9ErrorInfoC2EOS0_@Base 1.16.0
 _ZN3qbs9ErrorInfoC2ERK7QStringRK11QStringList@Base 1.5.0
 _ZN3qbs9ErrorInfoC2ERK7QStringRKNS_12CodeLocationEb@Base 1.2.1
 _ZN3qbs9ErrorInfoC2ERKS0_@Base 1.2.1
 _ZN3qbs9ErrorInfoC2Ev@Base 1.2.1
 _ZN3qbs9ErrorInfoD1Ev@Base 1.2.1
 _ZN3qbs9ErrorInfoD2Ev@Base 1.2.1
 _ZN3qbs9ErrorInfoaSEOS0_@Base 1.16.0
 _ZN3qbs9ErrorInfoaSERKS0_@Base 1.2.1
 _ZN3qbs9ErrorItem4loadERNS_8Internal14PersistentPoolE@Base 1.7.0
 _ZN3qbs9ErrorItemC1EOS0_@Base 1.16.0
 _ZN3qbs9ErrorItemC1ERK7QStringRKNS_12CodeLocationEb@Base 1.5.0
 _ZN3qbs9ErrorItemC1ERKS0_@Base 1.2.1
 _ZN3qbs9ErrorItemC1Ev@Base 1.2.1
 _ZN3qbs9ErrorItemC2EOS0_@Base 1.16.0
 _ZN3qbs9ErrorItemC2ERK7QStringRKNS_12CodeLocationEb@Base 1.5.0
 _ZN3qbs9ErrorItemC2ERKS0_@Base 1.2.1
 _ZN3qbs9ErrorItemC2Ev@Base 1.2.1
 _ZN3qbs9ErrorItemD1Ev@Base 1.2.1
 _ZN3qbs9ErrorItemD2Ev@Base 1.2.1
 _ZN3qbs9ErrorItemaSEOS0_@Base 1.16.0
 _ZN3qbs9ErrorItemaSERKS0_@Base 1.2.1
 _ZN3qbs9GroupDataC1EOS0_@Base 1.14.1
 _ZN3qbs9GroupDataC1ERKS0_@Base 1.2.1
 _ZN3qbs9GroupDataC1Ev@Base 1.2.1
 _ZN3qbs9GroupDataC2EOS0_@Base 1.14.1
 _ZN3qbs9GroupDataC2ERKS0_@Base 1.2.1
 _ZN3qbs9GroupDataC2Ev@Base 1.2.1
 _ZN3qbs9GroupDataD1Ev@Base 1.2.1
 _ZN3qbs9GroupDataD2Ev@Base 1.2.1
 _ZN3qbs9GroupDataaSEOS0_@Base 1.14.1
 _ZN3qbs9GroupDataaSERKS0_@Base 1.2.1
 _ZN3qbs9JobLimits11setJobLimitERK7QStringi@Base 1.13.0
 _ZN3qbs9JobLimits11setJobLimitERKNS_8JobLimitE@Base 1.13.0
 _ZN3qbs9JobLimits4loadERNS_8Internal14PersistentPoolE@Base 1.13.0
 _ZN3qbs9JobLimits5storeERNS_8Internal14PersistentPoolE@Base 1.13.0
 _ZN3qbs9JobLimits6updateERKS0_@Base 1.13.0
 _ZN3qbs9JobLimitsC1ERKS0_@Base 1.13.0
 _ZN3qbs9JobLimitsC1Ev@Base 1.13.0
 _ZN3qbs9JobLimitsC2ERKS0_@Base 1.13.0
 _ZN3qbs9JobLimitsC2Ev@Base 1.13.0
 _ZN3qbs9JobLimitsD1Ev@Base 1.13.0
 _ZN3qbs9JobLimitsD2Ev@Base 1.13.0
 _ZN3qbs9JobLimitsaSERKS0_@Base 1.13.0
 _ZN3qbs9PcPackage15RequiredVersion18comparisonToStringENS1_14ComparisonTypeE@Base 1.22.0
 _ZN3qbs9PcPackage15RequiredVersion20comparisonFromStringESt17basic_string_viewIcSt11char_traitsIcEE@Base 1.22.0
 _ZN3qbs9PcPackage4Flag12typeToStringENS1_4TypeE@Base 1.22.0
 _ZN3qbs9PcPackage4Flag14typeFromStringESt17basic_string_viewIcSt11char_traitsIcEE@Base 1.22.0
 (arch=amd64 arm64 armel armhf s390x)_ZN3qbs9PcPackageC1EOS0_@Base 1.22.0
 (optional=implicit)_ZN3qbs9PcPackageC1ERKS0_@Base 1.22.0
 (arch=amd64 arm64 armel armhf s390x)_ZN3qbs9PcPackageC2EOS0_@Base 1.22.0
 (optional=implicit)_ZN3qbs9PcPackageC2ERKS0_@Base 1.22.0
 _ZN3qbs9PcPackageD1Ev@Base 1.22.0
 _ZN3qbs9PcPackageD2Ev@Base 1.22.0
 _ZN3qbs9PkgConfig7OptionsD1Ev@Base 1.22.0
 _ZN3qbs9PkgConfig7OptionsD2Ev@Base 1.22.0
 _ZN3qbs9PkgConfigC1ENS0_7OptionsE@Base 1.22.0
 _ZN3qbs9PkgConfigC1Ev@Base 1.22.0
 _ZN3qbs9PkgConfigC2ENS0_7OptionsE@Base 1.22.0
 _ZN3qbs9PkgConfigC2Ev@Base 1.22.0
 _ZN3qbseqERKNS_11ProductDataES2_@Base 1.2.1
 _ZN3qbseqERKNS_11ProjectDataES2_@Base 1.2.1
 _ZN3qbseqERKNS_11PropertyMapES2_@Base 1.10.0
 _ZN3qbseqERKNS_12ArtifactDataES2_@Base 1.7.0
 _ZN3qbseqERKNS_12BuildOptionsES2_@Base 1.22.0
 _ZN3qbseqERKNS_12CodeLocationES2_@Base 1.2.1
 _ZN3qbseqERKNS_9GroupDataES2_@Base 1.2.1
 _ZN3qbslsE6QDebugRKNS_12CodeLocationE@Base 1.22.0
 _ZN3qbsltERKNS_11ProductDataES2_@Base 1.2.1
 _ZN3qbsltERKNS_11ProjectDataES2_@Base 1.2.1
 _ZN3qbsltERKNS_12ArtifactDataES2_@Base 1.7.0
 _ZN3qbsltERKNS_12CodeLocationES2_@Base 1.8.0
 _ZN3qbsltERKNS_9GroupDataES2_@Base 1.2.1
 _ZN3qbsneERKNS_11ProductDataES2_@Base 1.2.1
 _ZN3qbsneERKNS_11ProjectDataES2_@Base 1.2.1
 _ZN3qbsneERKNS_11PropertyMapES2_@Base 1.10.0
 _ZN3qbsneERKNS_12ArtifactDataES2_@Base 1.7.0
 _ZN3qbsneERKNS_12CodeLocationES2_@Base 1.2.1
 _ZN3qbsneERKNS_9GroupDataES2_@Base 1.2.1
 (optional=templinst)_ZN4QMapI7QString11QStringListE13detach_helperEv@Base 1.22.0
 (optional=templinst)_ZN4QMapI7QString11QStringListE6insertERKS0_RKS1_@Base 1.22.0
 (optional=templinst)_ZN4QMapI7QString11QStringListED1Ev@Base 1.22.0
 (optional=templinst)_ZN4QMapI7QString11QStringListED2Ev@Base 1.22.0
 (optional=templinst)_ZN4QMapI7QString5QListIPN3qbs8Internal8ArtifactEEE13detach_helperEv@Base 1.22.0
 (optional=templinst)_ZN4QMapI7QString5QListIPN3qbs8Internal8ArtifactEEED1Ev@Base 1.22.0
 (optional=templinst)_ZN4QMapI7QString5QListIPN3qbs8Internal8ArtifactEEED2Ev@Base 1.22.0
 (optional=templinst)_ZN4QMapI7QString8QVariantE13detach_helperEv@Base 1.22.0
 (optional=templinst)_ZN4QMapI7QString8QVariantE4takeERKS0_@Base 1.22.0
 (optional=templinst)_ZN4QMapI7QString8QVariantE6insertERKS0_RKS1_@Base 1.22.0
 (optional=templinst)_ZN4QMapI7QString8QVariantEC1ERKS2_@Base 1.22.0
 (optional=templinst)_ZN4QMapI7QString8QVariantEC2ERKS2_@Base 1.22.0
 (optional=templinst)_ZN4QMapI7QString8QVariantED1Ev@Base 1.22.0
 (optional=templinst)_ZN4QMapI7QString8QVariantED2Ev@Base 1.22.0
 (optional=templinst)_ZN4QMapI7QString8QVariantEixERKS0_@Base 1.22.0
 (optional=templinst)_ZN4QMapI7QStringN3qbs11ProductDataEED1Ev@Base 1.22.0
 (optional=templinst)_ZN4QMapI7QStringN3qbs11ProductDataEED2Ev@Base 1.22.0
 (optional=templinst)_ZN4QMapI7QStringN3qbs11ProjectDataEE6insertERKS0_RKS2_@Base 1.22.0
 (optional=templinst)_ZN4QMapI7QStringN3qbs11ProjectDataEED1Ev@Base 1.22.0
 (optional=templinst)_ZN4QMapI7QStringN3qbs11ProjectDataEED2Ev@Base 1.22.0
 (optional=templinst)_ZN4QMapI7QStringN3qbs7ProjectEED1Ev@Base 1.22.0
 (optional=templinst)_ZN4QMapI7QStringN3qbs7ProjectEED2Ev@Base 1.22.0
 (optional=templinst)_ZN4QMapI7QStringN3qbs8Internal19PropertyDeclarationEE13detach_helperEv@Base 1.22.0
 (optional=templinst)_ZN4QMapI7QStringN3qbs8Internal19PropertyDeclarationEE6insertERKS0_RKS3_@Base 1.22.0
 (optional=templinst)_ZN4QMapI7QStringN3qbs8Internal19PropertyDeclarationEED1Ev@Base 1.22.0
 (optional=templinst)_ZN4QMapI7QStringN3qbs8Internal19PropertyDeclarationEED2Ev@Base 1.22.0
 (optional=templinst)_ZN4QMapI7QStringPFv12QScriptValueEE6insertERKS0_RKS3_@Base 1.22.0
 (optional=templinst)_ZN4QMapI7QStringPFv12QScriptValueEED1Ev@Base 1.22.0
 (optional=templinst)_ZN4QMapI7QStringPFv12QScriptValueEED2Ev@Base 1.22.0
 (optional=templinst)_ZN4QMapI7QStringS_IS0_8QVariantEED1Ev@Base 1.22.0
 (optional=templinst)_ZN4QMapI7QStringS_IS0_8QVariantEED2Ev@Base 1.22.0
 (optional=templinst)_ZN4QMapI7QStringSt10shared_ptrIN3qbs16ProjectGeneratorEEE13detach_helperEv@Base 1.22.0
 (optional=templinst)_ZN4QMapI7QStringSt10shared_ptrIN3qbs8Internal15ResolvedProductEEE13detach_helperEv@Base 1.22.0
 (optional=templinst)_ZN4QMapI7QStringSt10shared_ptrIN3qbs8Internal15ResolvedProductEEED1Ev@Base 1.22.0
 (optional=templinst)_ZN4QMapI7QStringSt10shared_ptrIN3qbs8Internal15ResolvedProductEEED2Ev@Base 1.22.0
 (optional=templinst)_ZN4QMapI7QStringSt10shared_ptrIN3qbs8Internal18ArtifactPropertiesEEED1Ev@Base 1.22.0
 (optional=templinst)_ZN4QMapI7QStringSt10shared_ptrIN3qbs8Internal18ArtifactPropertiesEEED2Ev@Base 1.22.0
 (optional=templinst)_ZN4QMapI7QStringSt10shared_ptrIN3qbs8Internal4RuleEEED1Ev@Base 1.22.0
 (optional=templinst)_ZN4QMapI7QStringSt10shared_ptrIN3qbs8Internal4RuleEEED2Ev@Base 1.22.0
 (optional=templinst)_ZN4QMapI7QStringSt10shared_ptrIN3qbs8Internal5ValueEEE13detach_helperEv@Base 1.22.0
 (optional=templinst)_ZN4QMapI7QStringSt10shared_ptrIN3qbs8Internal5ValueEEE6insertERKS0_RKS5_@Base 1.22.0
 (optional=templinst)_ZN4QMapI7QStringSt10shared_ptrIN3qbs8Internal5ValueEEED1Ev@Base 1.22.0
 (optional=templinst)_ZN4QMapI7QStringSt10shared_ptrIN3qbs8Internal5ValueEEED2Ev@Base 1.22.0
 (optional=templinst)_ZN4QMapI7QStringSt10shared_ptrIN3qbs8Internal5ValueEEEixERKS0_@Base 1.22.0
 (optional=templinst)_ZN4QMapIN3qbs8Internal7FileTagE5QListIPKNS1_4RuleEEE13detach_helperEv@Base 1.22.0
 (optional=templinst)_ZN4QMapIN3qbs8Internal7FileTagE5QListIPKNS1_4RuleEEEixERKS2_@Base 1.22.0
 (optional=templinst)_ZN4QMapIN3qbs8Internal8ItemTypeEMNS1_15ProjectResolverEFvPNS1_4ItemEPNS3_14ProjectContextEEEC1ESt16initializer_listISt4pairIS2_S9_EE@Base 1.22.0
 (optional=templinst)_ZN4QMapIN3qbs8Internal8ItemTypeEMNS1_15ProjectResolverEFvPNS1_4ItemEPNS3_14ProjectContextEEEC2ESt16initializer_listISt4pairIS2_S9_EE@Base 1.22.0
 (optional=templinst)_ZN4QMapIN3qbs8Internal8ItemTypeEMNS1_15ProjectResolverEFvPNS1_4ItemEPNS3_14ProjectContextEEED1Ev@Base 1.22.0
 (optional=templinst)_ZN4QMapIN3qbs8Internal8ItemTypeEMNS1_15ProjectResolverEFvPNS1_4ItemEPNS3_14ProjectContextEEED2Ev@Base 1.22.0
 (optional=templinst)_ZN4QMapISt10shared_ptrIKN3qbs8Internal15ResolvedProductEES_I7QString8QVariantEE13detach_helperEv@Base 1.22.0
 (optional=templinst)_ZN4QMapISt10shared_ptrIKN3qbs8Internal15ResolvedProductEES_I7QString8QVariantEED1Ev@Base 1.22.0
 (optional=templinst)_ZN4QMapISt10shared_ptrIKN3qbs8Internal15ResolvedProductEES_I7QString8QVariantEED2Ev@Base 1.22.0
 (optional=templinst)_ZN4QSetI7QStringEC1IN5QListIS0_E14const_iteratorELb1EEET_S6_@Base 1.22.0
 (optional=templinst)_ZN4QSetI7QStringEC2IN5QListIS0_E14const_iteratorELb1EEET_S6_@Base 1.22.0
 (optional=templinst)_ZN5QHashI11QStringList7QStringE11deleteNode2EPN9QHashData4NodeE@Base 1.22.0
 (optional=templinst)_ZN5QHashI11QStringList7QStringE13duplicateNodeEPN9QHashData4NodeEPv@Base 1.22.0
 (optional=templinst)_ZN5QHashI11QStringList7QStringE6insertERKS0_RKS1_@Base 1.22.0
 (optional=templinst)_ZN5QHashI11QStringListSt4pairISt10shared_ptrIN3qbs8Internal18ArtifactPropertiesEESt6vectorINS3_12CodeLocationESaIS8_EEEE10createNodeEjRKS0_RKSB_PP9QHashNodeIS0_SB_E@Base 1.22.0
 (optional=templinst)_ZN5QHashI11QStringListSt4pairISt10shared_ptrIN3qbs8Internal18ArtifactPropertiesEESt6vectorINS3_12CodeLocationESaIS8_EEEE11deleteNode2EPN9QHashData4NodeE@Base 1.22.0
 (optional=templinst)_ZN5QHashI11QStringListSt4pairISt10shared_ptrIN3qbs8Internal18ArtifactPropertiesEESt6vectorINS3_12CodeLocationESaIS8_EEEE13duplicateNodeEPN9QHashData4NodeEPv@Base 1.22.0
 (optional=templinst)_ZN5QHashI11QStringListSt4pairISt10shared_ptrIN3qbs8Internal18ArtifactPropertiesEESt6vectorINS3_12CodeLocationESaIS8_EEEEixERKS0_@Base 1.22.0
 (optional=templinst)_ZN5QHashI11QStringListiE11deleteNode2EPN9QHashData4NodeE@Base 1.22.0
 (optional=templinst)_ZN5QHashI11QStringListiE13duplicateNodeEPN9QHashData4NodeEPv@Base 1.22.0
 (optional=templinst)_ZN5QHashI11QStringView7QStringE11deleteNode2EPN9QHashData4NodeE@Base 1.22.0
 (optional=templinst)_ZN5QHashI11QStringView7QStringE13duplicateNodeEPN9QHashData4NodeEPv@Base 1.22.0
 (optional=templinst)_ZN5QHashI11QStringView7QStringEixERKS0_@Base 1.22.0
 (optional=templinst)_ZN5QHashI13QScriptString12QScriptValueE11deleteNode2EPN9QHashData4NodeE@Base 1.22.0
 (optional=templinst)_ZN5QHashI13QScriptString12QScriptValueE13detach_helperEv@Base 1.22.0
 (optional=templinst)_ZN5QHashI13QScriptString12QScriptValueE13duplicateNodeEPN9QHashData4NodeEPv@Base 1.22.0
 (optional=templinst)_ZN5QHashI19QProcessEnvironmentiE11deleteNode2EPN9QHashData4NodeE@Base 1.22.0
 (optional=templinst)_ZN5QHashI19QProcessEnvironmentiE13duplicateNodeEPN9QHashData4NodeEPv@Base 1.22.0
 (optional=templinst)_ZN5QHashI7QString11QStringListE11deleteNode2EPN9QHashData4NodeE@Base 1.22.0
 (optional=templinst)_ZN5QHashI7QString11QStringListE13detach_helperEv@Base 1.22.0
 (optional=templinst)_ZN5QHashI7QString11QStringListE13duplicateNodeEPN9QHashData4NodeEPv@Base 1.22.0
 (optional=templinst)_ZN5QHashI7QString11QStringListE4takeERKS0_@Base 1.22.0
 (optional=templinst)_ZN5QHashI7QString15QHashDummyValueE11deleteNode2EPN9QHashData4NodeE@Base 1.22.0
 (optional=templinst)_ZN5QHashI7QString15QHashDummyValueE13detach_helperEv@Base 1.22.0
 (optional=templinst)_ZN5QHashI7QString15QHashDummyValueE13duplicateNodeEPN9QHashData4NodeEPv@Base 1.22.0
 (optional=templinst)_ZN5QHashI7QString15QHashDummyValueED1Ev@Base 1.22.0
 (optional=templinst)_ZN5QHashI7QString15QHashDummyValueED2Ev@Base 1.22.0
 (optional=templinst)_ZN5QHashI7QString4QMapIS0_8QVariantEE11deleteNode2EPN9QHashData4NodeE@Base 1.22.0
 (optional=templinst)_ZN5QHashI7QString4QMapIS0_8QVariantEE13duplicateNodeEPN9QHashData4NodeEPv@Base 1.22.0
 (optional=templinst)_ZN5QHashI7QString8QVariantE11deleteNode2EPN9QHashData4NodeE@Base 1.22.0
 (optional=templinst)_ZN5QHashI7QStringN3qbs8Internal12ModuleLoader17ProductModuleInfoEE11deleteNode2EPN9QHashData4NodeE@Base 1.22.0
 (optional=templinst)_ZN5QHashI7QStringN3qbs8Internal12ModuleLoader17ProductModuleInfoEE13detach_helperEv@Base 1.22.0
 (optional=templinst)_ZN5QHashI7QStringN3qbs8Internal12ModuleLoader17ProductModuleInfoEE13duplicateNodeEPN9QHashData4NodeEPv@Base 1.22.0
 (optional=templinst)_ZN5QHashI7QStringN3qbs8Internal21RescuableArtifactDataEE11deleteNode2EPN9QHashData4NodeE@Base 1.22.0
 (optional=templinst)_ZN5QHashI7QStringN3qbs8Internal21RescuableArtifactDataEE13detach_helperEv@Base 1.22.0
 (optional=templinst)_ZN5QHashI7QStringN3qbs8Internal21RescuableArtifactDataEE13duplicateNodeEPN9QHashData4NodeEPv@Base 1.22.0
 (optional=templinst)_ZN5QHashI7QStringN3qbs8Internal21RescuableArtifactDataEE4takeERKS0_@Base 1.22.0
 (optional=templinst)_ZN5QHashI7QStringN3qbs8Internal21RescuableArtifactDataEED1Ev@Base 1.22.0
 (optional=templinst)_ZN5QHashI7QStringN3qbs8Internal21RescuableArtifactDataEED2Ev@Base 1.22.0
 (optional=templinst)_ZN5QHashI7QStringN3qbs8Internal27InputArtifactScannerContext27ResolvedDependencyCacheItemEE11deleteNode2EPN9QHashData4NodeE@Base 1.22.0
 (optional=templinst)_ZN5QHashI7QStringN3qbs8Internal27InputArtifactScannerContext27ResolvedDependencyCacheItemEE13detach_helperEv@Base 1.22.0
 (optional=templinst)_ZN5QHashI7QStringN3qbs8Internal27InputArtifactScannerContext27ResolvedDependencyCacheItemEE13duplicateNodeEPN9QHashData4NodeEPv@Base 1.22.0
 (optional=templinst)_ZN5QHashI7QStringN3qbs8Internal3SetINS2_8PropertyEEEE11deleteNode2EPN9QHashData4NodeE@Base 1.22.0
 (optional=templinst)_ZN5QHashI7QStringN3qbs8Internal3SetINS2_8PropertyEEEE13detach_helperEv@Base 1.22.0
 (optional=templinst)_ZN5QHashI7QStringN3qbs8Internal3SetINS2_8PropertyEEEE13duplicateNodeEPN9QHashData4NodeEPv@Base 1.22.0
 (optional=templinst)_ZN5QHashI7QStringN3qbs8Internal3SetINS2_8PropertyEEEE6insertERKS6_@Base 1.22.0
 (optional=templinst)_ZN5QHashI7QStringN3qbs8Internal3SetINS2_8PropertyEEEED1Ev@Base 1.22.0
 (optional=templinst)_ZN5QHashI7QStringN3qbs8Internal3SetINS2_8PropertyEEEED2Ev@Base 1.22.0
 (optional=templinst)_ZN5QHashI7QStringN3qbs8Internal3SetINS2_8PropertyEEEEixERKS0_@Base 1.22.0
 (optional=templinst)_ZN5QHashI7QStringN3qbs8Internal8FileTimeEE11deleteNode2EPN9QHashData4NodeE@Base 1.22.0
 (optional=templinst)_ZN5QHashI7QStringN3qbs8Internal8FileTimeEE13duplicateNodeEPN9QHashData4NodeEPv@Base 1.22.0
 (optional=templinst|arch=armel armhf mips64el ppc64el riscv64)_ZN5QHashI7QStringN3qbs8Internal8FileTimeEE6insertERKS0_RKS3_@Base 1.22.0
 (optional=templinst)_ZN5QHashI7QStringN3qbs8Internal8ItemTypeEE11deleteNode2EPN9QHashData4NodeE@Base 1.22.0
 (optional=templinst)_ZN5QHashI7QStringN3qbs8Internal8ItemTypeEE13detach_helperEv@Base 1.22.0
 (optional=templinst)_ZN5QHashI7QStringN3qbs8Internal8ItemTypeEE13duplicateNodeEPN9QHashData4NodeEPv@Base 1.22.0
 (optional=templinst)_ZN5QHashI7QStringN3qbs8Internal8JsImportEE11deleteNode2EPN9QHashData4NodeE@Base 1.22.0
 (optional=templinst)_ZN5QHashI7QStringN3qbs8Internal8JsImportEE13duplicateNodeEPN9QHashData4NodeEPv@Base 1.22.0
 (optional=templinst)_ZN5QHashI7QStringN3qbs8Internal8JsImportEEixERKS0_@Base 1.22.0
 (optional=templinst)_ZN5QHashI7QStringPN8QbsQmlJS3AST18UiObjectMemberListEE11deleteNode2EPN9QHashData4NodeE@Base 1.22.0
 (optional=templinst)_ZN5QHashI7QStringPN8QbsQmlJS3AST18UiObjectMemberListEE13duplicateNodeEPN9QHashData4NodeEPv@Base 1.22.0
 (optional=templinst)_ZN5QHashI7QStringPN8QbsQmlJS3AST18UiObjectMemberListEEixERKS0_@Base 1.22.0
 (optional=templinst)_ZN5QHashI7QStringS0_E11deleteNode2EPN9QHashData4NodeE@Base 1.22.0
 (optional=templinst)_ZN5QHashI7QStringS0_E13detach_helperEv@Base 1.22.0
 (optional=templinst)_ZN5QHashI7QStringS0_E13duplicateNodeEPN9QHashData4NodeEPv@Base 1.22.0
 (optional=templinst)_ZN5QHashI7QStringS0_E6insertERKS0_S3_@Base 1.22.0
 (optional=templinst)_ZN5QHashI7QStringS0_EixERKS0_@Base 1.22.0
 (optional=templinst)_ZN5QHashI7QStringS_IS0_N3qbs8Internal21RescuableArtifactDataEEE11deleteNode2EPN9QHashData4NodeE@Base 1.22.0
 (optional=templinst)_ZN5QHashI7QStringS_IS0_N3qbs8Internal21RescuableArtifactDataEEE13duplicateNodeEPN9QHashData4NodeEPv@Base 1.22.0
 (optional=templinst)_ZN5QHashI7QStringS_IS0_N3qbs8Internal21RescuableArtifactDataEEE6insertERKS0_RKS4_@Base 1.22.0
 (optional=templinst)_ZN5QHashI7QStringS_IS0_N3qbs8Internal27InputArtifactScannerContext27ResolvedDependencyCacheItemEEE11deleteNode2EPN9QHashData4NodeE@Base 1.22.0
 (optional=templinst)_ZN5QHashI7QStringS_IS0_N3qbs8Internal27InputArtifactScannerContext27ResolvedDependencyCacheItemEEE13detach_helperEv@Base 1.22.0
 (optional=templinst)_ZN5QHashI7QStringS_IS0_N3qbs8Internal27InputArtifactScannerContext27ResolvedDependencyCacheItemEEE13duplicateNodeEPN9QHashData4NodeEPv@Base 1.22.0
 (optional=templinst)_ZN5QHashI7QStringSt6vectorIN3qbs8Internal14RawScanResults8ScanDataESaIS5_EEE11deleteNode2EPN9QHashData4NodeE@Base 1.22.0
 (optional=templinst)_ZN5QHashI7QStringSt6vectorIN3qbs8Internal14RawScanResults8ScanDataESaIS5_EEE13detach_helperEv@Base 1.22.0
 (optional=templinst)_ZN5QHashI7QStringSt6vectorIN3qbs8Internal14RawScanResults8ScanDataESaIS5_EEE13duplicateNodeEPN9QHashData4NodeEPv@Base 1.22.0
 (optional=templinst)_ZN5QHashI7QStringSt6vectorIN3qbs8Internal14RawScanResults8ScanDataESaIS5_EEEixERKS0_@Base 1.22.0
 (optional=templinst)_ZN5QHashI7QStringSt6vectorIPN3qbs8Internal12ModuleLoader14ProductContextESaIS6_EEE11deleteNode2EPN9QHashData4NodeE@Base 1.22.0
 (optional=templinst)_ZN5QHashI7QStringSt6vectorIPN3qbs8Internal12ModuleLoader14ProductContextESaIS6_EEE13duplicateNodeEPN9QHashData4NodeEPv@Base 1.22.0
 (optional=templinst)_ZN5QHashI7QStringSt6vectorISt10shared_ptrIKN3qbs8Internal5ProbeEESaIS7_EEE11deleteNode2EPN9QHashData4NodeE@Base 1.22.0
 (optional=templinst)_ZN5QHashI7QStringSt6vectorISt10shared_ptrIKN3qbs8Internal5ProbeEESaIS7_EEE13detach_helperEv@Base 1.22.0
 (optional=templinst)_ZN5QHashI7QStringSt6vectorISt10shared_ptrIKN3qbs8Internal5ProbeEESaIS7_EEE13duplicateNodeEPN9QHashData4NodeEPv@Base 1.22.0
 (optional=templinst)_ZN5QHashI7QStringSt6vectorISt10shared_ptrIKN3qbs8Internal5ProbeEESaIS7_EEE6insertERKS0_RKS9_@Base 1.22.0
 (optional=templinst)_ZN5QHashI7QStringSt6vectorISt10shared_ptrIKN3qbs8Internal5ProbeEESaIS7_EEED1Ev@Base 1.22.0
 (optional=templinst)_ZN5QHashI7QStringSt6vectorISt10shared_ptrIKN3qbs8Internal5ProbeEESaIS7_EEED2Ev@Base 1.22.0
 (optional=templinst)_ZN5QHashI7QStringbE11deleteNode2EPN9QHashData4NodeE@Base 1.22.0
 (optional=templinst)_ZN5QHashI7QStringbE13duplicateNodeEPN9QHashData4NodeEPv@Base 1.22.0
 (optional=templinst)_ZN5QHashI7QStringiE11deleteNode2EPN9QHashData4NodeE@Base 1.22.0
 (optional=templinst)_ZN5QHashI7QStringiE13duplicateNodeEPN9QHashData4NodeEPv@Base 1.22.0
 (optional=templinst)_ZN5QHashIN3qbs12CodeLocationESt10shared_ptrINS0_8Internal14ScriptFunctionEEE11deleteNode2EPN9QHashData4NodeE@Base 1.22.0
 (optional=templinst)_ZN5QHashIN3qbs12CodeLocationESt10shared_ptrINS0_8Internal14ScriptFunctionEEE13duplicateNodeEPN9QHashData4NodeEPv@Base 1.22.0
 (optional=templinst)_ZN5QHashIN3qbs12CodeLocationESt10shared_ptrINS0_8Internal14ScriptFunctionEEEixERKS1_@Base 1.22.0
 (optional=templinst)_ZN5QHashIN3qbs12CodeLocationESt6vectorISt10shared_ptrIKNS0_8Internal5ProbeEESaIS7_EEE11deleteNode2EPN9QHashData4NodeE@Base 1.22.0
 (optional=templinst)_ZN5QHashIN3qbs12CodeLocationESt6vectorISt10shared_ptrIKNS0_8Internal5ProbeEESaIS7_EEE13duplicateNodeEPN9QHashData4NodeEPv@Base 1.22.0
 (optional=templinst)_ZN5QHashIN3qbs12CodeLocationESt6vectorISt10shared_ptrIKNS0_8Internal5ProbeEESaIS7_EEEixERKS1_@Base 1.22.0
 (optional=templinst)_ZN5QHashIN3qbs8Internal11QualifiedIdENS1_3SetIS2_EEE11deleteNode2EPN9QHashData4NodeE@Base 1.22.0
 (optional=templinst)_ZN5QHashIN3qbs8Internal11QualifiedIdENS1_3SetIS2_EEE13duplicateNodeEPN9QHashData4NodeEPv@Base 1.22.0
 (optional=templinst)_ZN5QHashIN3qbs8Internal11QualifiedIdENS1_3SetIS2_EEED1Ev@Base 1.22.0
 (optional=templinst)_ZN5QHashIN3qbs8Internal11QualifiedIdENS1_3SetIS2_EEED2Ev@Base 1.22.0
 (optional=templinst)_ZN5QHashIN3qbs8Internal11QualifiedIdENS1_3SetIS2_EEEixERKS2_@Base 1.22.0
 (optional=templinst)_ZN5QHashIN3qbs8Internal11QualifiedIdEPNS1_4ItemEE11deleteNode2EPN9QHashData4NodeE@Base 1.22.0
 (optional=templinst)_ZN5QHashIN3qbs8Internal11QualifiedIdEPNS1_4ItemEE13duplicateNodeEPN9QHashData4NodeEPv@Base 1.22.0
 (optional=templinst|arch=!riscv64)_ZN5QHashIN3qbs8Internal11QualifiedIdEPNS1_4ItemEED1Ev@Base 1.22.0
 (optional=templinst|arch=!riscv64)_ZN5QHashIN3qbs8Internal11QualifiedIdEPNS1_4ItemEED2Ev@Base 1.22.0
 (optional=templinst)_ZN5QHashIN3qbs8Internal12ScriptEngine16PropertyCacheKeyE8QVariantE11deleteNode2EPN9QHashData4NodeE@Base 1.22.0
 (optional=templinst)_ZN5QHashIN3qbs8Internal12ScriptEngine16PropertyCacheKeyE8QVariantE13duplicateNodeEPN9QHashData4NodeEPv@Base 1.22.0
 (optional=templinst)_ZN5QHashIN3qbs8Internal12ScriptEngine16PropertyCacheKeyE8QVariantE6insertERKS3_RKS4_@Base 1.22.0
 (optional=templinst)_ZN5QHashIN3qbs8Internal12StringHolderEiE11deleteNode2EPN9QHashData4NodeE@Base 1.22.0
 (optional=templinst)_ZN5QHashIN3qbs8Internal12StringHolderEiE13detach_helperEv@Base 1.22.0
 (optional=templinst)_ZN5QHashIN3qbs8Internal12StringHolderEiE13duplicateNodeEPN9QHashData4NodeEPv@Base 1.22.0
 (optional=templinst)_ZN5QHashIN3qbs8Internal7FileTagE5QListISt10shared_ptrINS1_15ResolvedProductEEEE11deleteNode2EPN9QHashData4NodeE@Base 1.22.0
 (optional=templinst)_ZN5QHashIN3qbs8Internal7FileTagE5QListISt10shared_ptrINS1_15ResolvedProductEEEE13duplicateNodeEPN9QHashData4NodeEPv@Base 1.22.0
 (optional=templinst)_ZN5QHashIN3qbs8Internal7FileTagE5QListISt10shared_ptrINS1_15ResolvedProductEEEEixERKS2_@Base 1.22.0
 (optional=templinst)_ZN5QHashIN3qbs8Internal7FileTagENS1_27InputArtifactScannerContext26DependencyScannerCacheItemEE11deleteNode2EPN9QHashData4NodeE@Base 1.22.0
 (optional=templinst)_ZN5QHashIN3qbs8Internal7FileTagENS1_27InputArtifactScannerContext26DependencyScannerCacheItemEE13detach_helperEv@Base 1.22.0
 (optional=templinst)_ZN5QHashIN3qbs8Internal7FileTagENS1_27InputArtifactScannerContext26DependencyScannerCacheItemEE13duplicateNodeEPN9QHashData4NodeEPv@Base 1.22.0
 (optional=templinst)_ZN5QHashIN3qbs8Internal7FileTagENS1_3SetIPNS1_8ArtifactEEEE11deleteNode2EPN9QHashData4NodeE@Base 1.22.0
 (optional=templinst)_ZN5QHashIN3qbs8Internal7FileTagENS1_3SetIPNS1_8ArtifactEEEE13detach_helperEv@Base 1.22.0
 (optional=templinst)_ZN5QHashIN3qbs8Internal7FileTagENS1_3SetIPNS1_8ArtifactEEEE13duplicateNodeEPN9QHashData4NodeEPv@Base 1.22.0
 (optional=templinst)_ZN5QHashIN3qbs8Internal7FileTagENS1_3SetIPNS1_8ArtifactEEEE5eraseENS7_14const_iteratorE@Base 1.22.0
 (optional=templinst)_ZN5QHashIN3qbs8Internal7FileTagENS1_3SetIPNS1_8ArtifactEEEED1Ev@Base 1.22.0
 (optional=templinst)_ZN5QHashIN3qbs8Internal7FileTagENS1_3SetIPNS1_8ArtifactEEEED2Ev@Base 1.22.0
 (optional=templinst)_ZN5QHashIN3qbs8Internal7FileTagENS1_3SetIPNS1_8ArtifactEEEEixERKS2_@Base 1.22.0
 (optional=templinst)_ZN5QHashIN3qbs8Internal8JsImportE12QScriptValueE11deleteNode2EPN9QHashData4NodeE@Base 1.22.0
 (optional=templinst)_ZN5QHashIN3qbs8Internal8JsImportE12QScriptValueE13duplicateNodeEPN9QHashData4NodeEPv@Base 1.22.0
 (optional=templinst)_ZN5QHashIN3qbs8Internal8JsImportE12QScriptValueE6insertERKS2_RKS3_@Base 1.22.0
 (optional=templinst)_ZN5QHashIPKN3qbs8Internal14ResolvedModuleE5QListIS4_EE11deleteNode2EPN9QHashData4NodeE@Base 1.22.0
 (optional=templinst)_ZN5QHashIPKN3qbs8Internal14ResolvedModuleE5QListIS4_EE13duplicateNodeEPN9QHashData4NodeEPv@Base 1.22.0
 (optional=templinst)_ZN5QHashIPKN3qbs8Internal14ResolvedModuleE5QListIS4_EED1Ev@Base 1.22.0
 (optional=templinst)_ZN5QHashIPKN3qbs8Internal14ResolvedModuleE5QListIS4_EED2Ev@Base 1.22.0
 (optional=templinst)_ZN5QHashIPKN3qbs8Internal14ResolvedModuleE5QListIS4_EEixERKS4_@Base 1.22.0
 (optional=templinst)_ZN5QHashIPKN3qbs8Internal4ItemE12QScriptValueE11deleteNode2EPN9QHashData4NodeE@Base 1.22.0
 (optional=templinst)_ZN5QHashIPKN3qbs8Internal4ItemE12QScriptValueE13duplicateNodeEPN9QHashData4NodeEPv@Base 1.22.0
 (optional=templinst)_ZN5QHashIPKN3qbs8Internal4ItemE12QScriptValueEixERKS4_@Base 1.22.0
 (optional=templinst)_ZN5QHashIPKN3qbs8Internal4ItemE4QMapI7QStringNS1_19PropertyDeclarationEEE11deleteNode2EPN9QHashData4NodeE@Base 1.22.0
 (optional=templinst)_ZN5QHashIPKN3qbs8Internal4ItemE4QMapI7QStringNS1_19PropertyDeclarationEEE13duplicateNodeEPN9QHashData4NodeEPv@Base 1.22.0
 (optional=templinst)_ZN5QHashIPKN3qbs8Internal8ArtifactENS1_16BuildGraphLoader12ChildrenInfoEE11deleteNode2EPN9QHashData4NodeE@Base 1.22.0
 (optional=templinst)_ZN5QHashIPKN3qbs8Internal8ArtifactENS1_16BuildGraphLoader12ChildrenInfoEE13duplicateNodeEPN9QHashData4NodeEPv@Base 1.22.0
 (optional=templinst)_ZN5QHashIPKvN3qbs8Internal27InputArtifactScannerContext32ScannerResolvedDependenciesCacheEE11deleteNode2EPN9QHashData4NodeE@Base 1.22.0
 (optional=templinst)_ZN5QHashIPKvN3qbs8Internal27InputArtifactScannerContext32ScannerResolvedDependenciesCacheEE13detach_helperEv@Base 1.22.0
 (optional=templinst)_ZN5QHashIPKvN3qbs8Internal27InputArtifactScannerContext32ScannerResolvedDependenciesCacheEE13duplicateNodeEPN9QHashData4NodeEPv@Base 1.22.0
 (optional=templinst)_ZN5QHashIPKvN3qbs8Internal27InputArtifactScannerContext32ScannerResolvedDependenciesCacheEED1Ev@Base 1.22.0
 (optional=templinst)_ZN5QHashIPKvN3qbs8Internal27InputArtifactScannerContext32ScannerResolvedDependenciesCacheEED2Ev@Base 1.22.0
 (optional=templinst)_ZN5QHashIPN3qbs8Internal11ExecutorJobESt10shared_ptrINS1_11TransformerEEE11deleteNode2EPN9QHashData4NodeE@Base 1.22.0
 (optional=templinst)_ZN5QHashIPN3qbs8Internal11ExecutorJobESt10shared_ptrINS1_11TransformerEEE13detach_helperEv@Base 1.22.0
 (optional=templinst)_ZN5QHashIPN3qbs8Internal11ExecutorJobESt10shared_ptrINS1_11TransformerEEE13duplicateNodeEPN9QHashData4NodeEPv@Base 1.22.0
 (optional=templinst)_ZN5QHashIPN3qbs8Internal11ExecutorJobESt10shared_ptrINS1_11TransformerEEE5eraseENS7_14const_iteratorE@Base 1.22.0
 (optional=templinst)_ZN5QHashIPN3qbs8Internal12ModuleLoader14ProductContextESt6vectorIS4_SaIS4_EEE11deleteNode2EPN9QHashData4NodeE@Base 1.22.0
 (optional=templinst)_ZN5QHashIPN3qbs8Internal12ModuleLoader14ProductContextESt6vectorIS4_SaIS4_EEE13duplicateNodeEPN9QHashData4NodeEPv@Base 1.22.0
 (optional=templinst)_ZN5QHashIPN3qbs8Internal12ModuleLoader14ProductContextESt6vectorIS4_SaIS4_EEEixERKS4_@Base 1.22.0
 (optional=templinst)_ZN5QHashIPN3qbs8Internal15ResolvedProductENS1_3SetIS3_EEE11deleteNode2EPN9QHashData4NodeE@Base 1.22.0
 (optional=templinst)_ZN5QHashIPN3qbs8Internal15ResolvedProductENS1_3SetIS3_EEE13duplicateNodeEPN9QHashData4NodeEPv@Base 1.22.0
 (optional=templinst)_ZN5QHashIPN3qbs8Internal15ResolvedProductENS1_3SetIS3_EEED1Ev@Base 1.22.0
 (optional=templinst)_ZN5QHashIPN3qbs8Internal15ResolvedProductENS1_3SetIS3_EEED2Ev@Base 1.22.0
 (optional=templinst)_ZN5QHashIPN3qbs8Internal15ResolvedProductENS1_3SetIS3_EEEixERKS3_@Base 1.22.0
 (optional=templinst)_ZN5QHashIPN3qbs8Internal15ResolvedProductES_INS1_7FileTagENS1_27InputArtifactScannerContext26DependencyScannerCacheItemEEE11deleteNode2EPN9QHashData4NodeE@Base 1.22.0
 (optional=templinst)_ZN5QHashIPN3qbs8Internal15ResolvedProductES_INS1_7FileTagENS1_27InputArtifactScannerContext26DependencyScannerCacheItemEEE13duplicateNodeEPN9QHashData4NodeEPv@Base 1.22.0
 (optional=templinst)_ZN5QHashIPN3qbs8Internal15ResolvedProductES_INS1_7FileTagENS1_27InputArtifactScannerContext26DependencyScannerCacheItemEEEixERKS3_@Base 1.22.0
 (optional=templinst)_ZN5QHashIPN3qbs8Internal4ItemES3_E11deleteNode2EPN9QHashData4NodeE@Base 1.22.0
 (optional=templinst)_ZN5QHashIPN3qbs8Internal4ItemES3_E13detach_helperEv@Base 1.22.0
 (optional=templinst)_ZN5QHashIPN3qbs8Internal4ItemES3_E13duplicateNodeEPN9QHashData4NodeEPv@Base 1.22.0
 (optional=templinst)_ZN5QHashIPN3qbs8Internal8ArtifactES_IPKvNS1_27InputArtifactScannerContext32ScannerResolvedDependenciesCacheEEE11deleteNode2EPN9QHashData4NodeE@Base 1.22.0
 (optional=templinst)_ZN5QHashIPN3qbs8Internal8ArtifactES_IPKvNS1_27InputArtifactScannerContext32ScannerResolvedDependenciesCacheEEE13duplicateNodeEPN9QHashData4NodeEPv@Base 1.22.0
 (optional=templinst)_ZN5QHashIPN3qbs8Internal8ArtifactES_IPKvNS1_27InputArtifactScannerContext32ScannerResolvedDependenciesCacheEEEixERKS3_@Base 1.22.0
 (optional=templinst)_ZN5QHashISt10shared_ptrIKN3qbs8Internal11FileContextEENS2_9Evaluator17FileContextScopesEE11deleteNode2EPN9QHashData4NodeE@Base 1.22.0
 (optional=templinst)_ZN5QHashISt10shared_ptrIKN3qbs8Internal11FileContextEENS2_9Evaluator17FileContextScopesEE13duplicateNodeEPN9QHashData4NodeEPv@Base 1.22.0
 (optional=templinst)_ZN5QHashISt10shared_ptrIKN3qbs8Internal11FileContextEENS2_9Evaluator17FileContextScopesEEixERKS5_@Base 1.22.0
 (optional=templinst)_ZN5QHashISt10shared_ptrIKN3qbs8Internal11FileContextEES0_INS2_19ResolvedFileContextEEE11deleteNode2EPN9QHashData4NodeE@Base 1.22.0
 (optional=templinst)_ZN5QHashISt10shared_ptrIKN3qbs8Internal11FileContextEES0_INS2_19ResolvedFileContextEEE13duplicateNodeEPN9QHashData4NodeEPv@Base 1.22.0
 (optional=templinst)_ZN5QHashISt10shared_ptrIKN3qbs8Internal11FileContextEES0_INS2_19ResolvedFileContextEEEixERKS5_@Base 1.22.0
 (optional=templinst)_ZN5QHashISt10shared_ptrIKN3qbs8Internal14ResolvedModuleEE4QMapI7QString8QVariantEE11deleteNode2EPN9QHashData4NodeE@Base 1.22.0
 (optional=templinst)_ZN5QHashISt10shared_ptrIKN3qbs8Internal14ResolvedModuleEE4QMapI7QString8QVariantEE13duplicateNodeEPN9QHashData4NodeEPv@Base 1.22.0
 (optional=templinst)_ZN5QHashISt10shared_ptrIKN3qbs8Internal14ResolvedModuleEE4QMapI7QString8QVariantEEixERKS5_@Base 1.22.0
 (optional=templinst)_ZN5QHashISt10shared_ptrIKN3qbs8Internal15ResolvedProductEE4QMapI7QString8QVariantEE11deleteNode2EPN9QHashData4NodeE@Base 1.22.0
 (optional=templinst)_ZN5QHashISt10shared_ptrIKN3qbs8Internal15ResolvedProductEE4QMapI7QString8QVariantEE13duplicateNodeEPN9QHashData4NodeEPv@Base 1.22.0
 (optional=templinst)_ZN5QHashISt10shared_ptrIKN3qbs8Internal19PropertyMapInternalEES_IPKvNS2_27InputArtifactScannerContext32ScannerResolvedDependenciesCacheEEE11deleteNode2EPN9QHashData4NodeE@Base 1.22.0
 (optional=templinst)_ZN5QHashISt10shared_ptrIKN3qbs8Internal19PropertyMapInternalEES_IPKvNS2_27InputArtifactScannerContext32ScannerResolvedDependenciesCacheEEE13duplicateNodeEPN9QHashData4NodeEPv@Base 1.22.0
 (optional=templinst)_ZN5QHashISt10shared_ptrIKN3qbs8Internal19PropertyMapInternalEES_IPKvNS2_27InputArtifactScannerContext32ScannerResolvedDependenciesCacheEEEixERKS5_@Base 1.22.0
 (optional=templinst)_ZN5QHashISt10shared_ptrIKN3qbs8Internal4RuleEEPNS2_8RuleNodeEE11deleteNode2EPN9QHashData4NodeE@Base 1.22.0
 (optional=templinst)_ZN5QHashISt10shared_ptrIKN3qbs8Internal4RuleEEPNS2_8RuleNodeEE13duplicateNodeEPN9QHashData4NodeEPv@Base 1.22.0
 (optional=templinst)_ZN5QHashISt10shared_ptrIKN3qbs8Internal4RuleEEPNS2_8RuleNodeEE6insertERKS5_RKS7_@Base 1.22.0
 (optional=templinst)_ZN5QHashISt10shared_ptrIN3qbs8Internal15ResolvedProductEEPNS2_4ItemEE11deleteNode2EPN9QHashData4NodeE@Base 1.22.0
 (optional=templinst)_ZN5QHashISt10shared_ptrIN3qbs8Internal15ResolvedProductEEPNS2_4ItemEE13duplicateNodeEPN9QHashData4NodeEPv@Base 1.22.0
 (optional=templinst)_ZN5QHashISt10shared_ptrIN3qbs8Internal15ResolvedProductEEPNS2_4ItemEE6insertERKS4_RKS6_@Base 1.22.0
 (optional=templinst)_ZN5QHashISt10shared_ptrIN3qbs8Internal15ResolvedProductEESt6vectorIS4_SaIS4_EEE11deleteNode2EPN9QHashData4NodeE@Base 1.22.0
 (optional=templinst)_ZN5QHashISt10shared_ptrIN3qbs8Internal15ResolvedProductEESt6vectorIS4_SaIS4_EEE13duplicateNodeEPN9QHashData4NodeEPv@Base 1.22.0
 (optional=templinst)_ZN5QHashISt10shared_ptrIN3qbs8Internal15ResolvedProductEESt6vectorIS4_SaIS4_EEEixERKS4_@Base 1.22.0
 (optional=templinst)_ZN5QHashISt4pairI11QStringView11QStringListE7QStringE11deleteNode2EPN9QHashData4NodeE@Base 1.22.0
 (optional=templinst)_ZN5QHashISt4pairI11QStringView11QStringListE7QStringE13duplicateNodeEPN9QHashData4NodeEPv@Base 1.22.0
 (optional=templinst)_ZN5QHashISt4pairI11QStringView11QStringListE7QStringEixERKS3_@Base 1.22.0
 (optional=templinst)_ZN5QHashISt4pairI7QStringN3qbs8Internal11QualifiedIdEESt8optionalIS1_EE11deleteNode2EPN9QHashData4NodeE@Base 1.22.0
 (optional=templinst)_ZN5QHashISt4pairI7QStringN3qbs8Internal11QualifiedIdEESt8optionalIS1_EE13duplicateNodeEPN9QHashData4NodeEPv@Base 1.22.0
 (optional=templinst)_ZN5QHashISt4pairI7QStringN3qbs8Internal11QualifiedIdEESt8optionalIS1_EEixERKS5_@Base 1.22.0
 (optional=templinst)_ZN5QHashISt4pairI7QStringS1_EN3qbs12CodeLocationEE11deleteNode2EPN9QHashData4NodeE@Base 1.22.0
 (optional=templinst)_ZN5QHashISt4pairI7QStringS1_EN3qbs12CodeLocationEE13duplicateNodeEPN9QHashData4NodeEPv@Base 1.22.0
 (optional=templinst)_ZN5QHashISt4pairI7QStringS1_EN3qbs12CodeLocationEEixERKS2_@Base 1.22.0
 (optional=templinst)_ZN5QHashISt4pairI7QStringjE11QStringListE11deleteNode2EPN9QHashData4NodeE@Base 1.22.0
 (optional=templinst)_ZN5QHashISt4pairI7QStringjE11QStringListE13duplicateNodeEPN9QHashData4NodeEPv@Base 1.22.0
 (optional=templinst)_ZN5QHashISt4pairI7QStringjE11QStringListE6insertERKS2_RKS3_@Base 1.22.0
 (optional=templinst)_ZN5QHashISt4pairIPN3qbs8Internal4ItemEPNS2_12ModuleLoader14ProductContextEEbE11deleteNode2EPN9QHashData4NodeE@Base 1.22.0
 (optional=templinst)_ZN5QHashISt4pairIPN3qbs8Internal4ItemEPNS2_12ModuleLoader14ProductContextEEbE13detach_helperEv@Base 1.22.0
 (optional=templinst)_ZN5QHashISt4pairIPN3qbs8Internal4ItemEPNS2_12ModuleLoader14ProductContextEEbE13duplicateNodeEPN9QHashData4NodeEPv@Base 1.22.0
 (optional=templinst)_ZN5QHashISt4pairIPN3qbs8Internal4ItemEPNS2_12ModuleLoader14ProductContextEEbE6insertERKS8_RKb@Base 1.22.0
 (optional=templinst)_ZN5QHashISt5tupleIJ7QString4QMapIS1_8QVariantEiEEN3qbs8Internal18ModuleProviderInfoEE11deleteNode2EPN9QHashData4NodeE@Base 1.22.0
 (optional=templinst)_ZN5QHashISt5tupleIJ7QString4QMapIS1_8QVariantEiEEN3qbs8Internal18ModuleProviderInfoEE13detach_helperEv@Base 1.22.0
 (optional=templinst)_ZN5QHashISt5tupleIJ7QString4QMapIS1_8QVariantEiEEN3qbs8Internal18ModuleProviderInfoEE13duplicateNodeEPN9QHashData4NodeEPv@Base 1.22.0
 (optional=templinst)_ZN5QHashISt5tupleIJ7QString4QMapIS1_8QVariantEiEEN3qbs8Internal18ModuleProviderInfoEED1Ev@Base 1.22.0
 (optional=templinst)_ZN5QHashISt5tupleIJ7QString4QMapIS1_8QVariantEiEEN3qbs8Internal18ModuleProviderInfoEED2Ev@Base 1.22.0
 (optional=templinst)_ZN5QHashISt5tupleIJ7QString4QMapIS1_8QVariantEiEEN3qbs8Internal18ModuleProviderInfoEEixERKS5_@Base 1.22.0
 (optional=templinst)_ZN5QHashIiN3qbs8Internal12StringHolderEE11deleteNode2EPN9QHashData4NodeE@Base 1.22.0
 (optional=templinst)_ZN5QHashIiN3qbs8Internal12StringHolderEE13duplicateNodeEPN9QHashData4NodeEPv@Base 1.22.0
 (optional=templinst)_ZN5QHashIiN3qbs8Internal12StringHolderEED1Ev@Base 1.22.0
 (optional=templinst)_ZN5QHashIiN3qbs8Internal12StringHolderEED2Ev@Base 1.22.0
 (optional=templinst)_ZN5QHashIiN3qbs8Internal12StringHolderEEixERKi@Base 1.22.0
 (optional=templinst)_ZN5QListI10QByteArrayED1Ev@Base 1.22.0
 (optional=templinst)_ZN5QListI10QByteArrayED2Ev@Base 1.22.0
 (optional=templinst)_ZN5QListI12QScriptValueE13detach_helperEi@Base 1.22.0
 (optional=templinst)_ZN5QListI12QScriptValueE18detach_helper_growEii@Base 1.22.0
 (optional=templinst)_ZN5QListI12QScriptValueE6appendERKS0_@Base 1.22.0
 (optional=templinst)_ZN5QListI12QScriptValueEC1ERKS1_@Base 1.22.0
 (optional=templinst)_ZN5QListI12QScriptValueEC2ERKS1_@Base 1.22.0
 (optional=templinst)_ZN5QListI12QScriptValueED1Ev@Base 1.22.0
 (optional=templinst)_ZN5QListI12QScriptValueED2Ev@Base 1.22.0
 (optional=templinst)_ZN5QListI18QRegularExpressionE13detach_helperEi@Base 1.22.0
 (optional=templinst)_ZN5QListI18QRegularExpressionE18detach_helper_growEii@Base 1.22.0
 (optional=templinst)_ZN5QListI18QRegularExpressionE6appendERKS0_@Base 1.22.0
 (optional=templinst)_ZN5QListI18QRegularExpressionED1Ev@Base 1.22.0
 (optional=templinst)_ZN5QListI18QRegularExpressionED2Ev@Base 1.22.0
 (optional=templinst)_ZN5QListI4QMapI7QString8QVariantEE13detach_helperEi@Base 1.22.0
 (optional=templinst)_ZN5QListI4QMapI7QString8QVariantEEC1ERKS4_@Base 1.22.0
 (optional=templinst)_ZN5QListI4QMapI7QString8QVariantEEC2ERKS4_@Base 1.22.0
 (optional=templinst)_ZN5QListI5QPairIN3qbs11ProductDataES_INS1_15TransformerDataEEEE18detach_helper_growEii@Base 1.22.0
 (optional=templinst)_ZN5QListI5QPairIN3qbs11ProductDataES_INS1_15TransformerDataEEEE6appendERKS5_@Base 1.22.0
 (optional=templinst)_ZN5QListI7QStringE13detach_helperEi@Base 1.22.0
 (optional=templinst)_ZN5QListI7QStringE18detach_helper_growEii@Base 1.22.0
 (optional=templinst)_ZN5QListI7QStringE6appendERKS0_@Base 1.22.0
 (optional=templinst)_ZN5QListI7QStringE6detachEv@Base 1.22.0
 (optional=templinst)_ZN5QListI7QStringE7prependERKS0_@Base 1.22.0
 (optional=templinst)_ZN5QListI7QStringE7reserveEi@Base 1.22.0
 (optional=templinst)_ZN5QListI7QStringE9removeOneERKS0_@Base 1.22.0
 (optional=templinst)_ZN5QListI7QStringE9takeFirstEv@Base 1.22.0
 (optional=templinst)_ZN5QListI7QStringEC1ERKS1_@Base 1.22.0
 (optional=templinst|arch=amd64 arm64 armel armhf mips64el ppc64el riscv64)_ZN5QListI7QStringEC1IN9__gnu_cxx17__normal_iteratorIPS0_St6vectorIS0_SaIS0_EEEELb1EEET_SA_@Base 1.22.0
 (optional=templinst)_ZN5QListI7QStringEC1IPKS0_Lb1EEET_S5_@Base 1.22.0
 (optional=templinst)_ZN5QListI7QStringEC2ERKS1_@Base 1.22.0
 (optional=templinst|arch=amd64 arm64 armel armhf mips64el ppc64el riscv64)_ZN5QListI7QStringEC2IN9__gnu_cxx17__normal_iteratorIPS0_St6vectorIS0_SaIS0_EEEELb1EEET_SA_@Base 1.22.0
 (optional=templinst)_ZN5QListI7QStringEC2IPKS0_Lb1EEET_S5_@Base 1.22.0
 (optional=templinst)_ZN5QListI7QStringED1Ev@Base 1.22.0
 (optional=templinst)_ZN5QListI7QStringED2Ev@Base 1.22.0
 (optional=templinst)_ZN5QListI8QVariantE13detach_helperEi@Base 1.22.0
 (optional=templinst)_ZN5QListI8QVariantE18detach_helper_growEii@Base 1.22.0
 (optional=templinst)_ZN5QListI8QVariantE6appendERKS0_@Base 1.22.0
 (optional=templinst)_ZN5QListI8QVariantEC1ERKS1_@Base 1.22.0
 (optional=templinst)_ZN5QListI8QVariantEC2ERKS1_@Base 1.22.0
 (optional=templinst)_ZN5QListI8QVariantED1Ev@Base 1.22.0
 (optional=templinst)_ZN5QListI8QVariantED2Ev@Base 1.22.0
 (optional=templinst)_ZN5QListI9QFileInfoED1Ev@Base 1.22.0
 (optional=templinst)_ZN5QListI9QFileInfoED2Ev@Base 1.22.0
 (optional=templinst)_ZN5QListIN3qbs11ProductDataEE13detach_helperEi@Base 1.22.0
 (optional=templinst)_ZN5QListIN3qbs11ProductDataEE18detach_helper_growEii@Base 1.22.0
 (optional=templinst)_ZN5QListIN3qbs11ProductDataEE6appendERKS1_@Base 1.22.0
 (optional=templinst)_ZN5QListIN3qbs11ProductDataEEC1ERKS2_@Base 1.22.0
 (optional=templinst)_ZN5QListIN3qbs11ProductDataEEC2ERKS2_@Base 1.22.0
 (optional=templinst)_ZN5QListIN3qbs11ProductDataEED1Ev@Base 1.22.0
 (optional=templinst)_ZN5QListIN3qbs11ProductDataEED2Ev@Base 1.22.0
 (optional=templinst)_ZN5QListIN3qbs11ProjectDataEE13detach_helperEi@Base 1.22.0
 (optional=templinst)_ZN5QListIN3qbs11ProjectDataEE18detach_helper_growEii@Base 1.22.0
 (optional=templinst)_ZN5QListIN3qbs11ProjectDataEE6appendERKS1_@Base 1.22.0
 (optional=templinst)_ZN5QListIN3qbs11ProjectDataEED1Ev@Base 1.22.0
 (optional=templinst)_ZN5QListIN3qbs11ProjectDataEED2Ev@Base 1.22.0
 (optional=templinst)_ZN5QListIN3qbs11RuleCommandEE18detach_helper_growEii@Base 1.22.0
 (optional=templinst)_ZN5QListIN3qbs11RuleCommandEE6appendERKS1_@Base 1.22.0
 (optional=templinst)_ZN5QListIN3qbs11RuleCommandEEC1ERKS2_@Base 1.22.0
 (optional=templinst)_ZN5QListIN3qbs11RuleCommandEEC2ERKS2_@Base 1.22.0
 (optional=templinst)_ZN5QListIN3qbs12ArtifactDataEE13detach_helperEi@Base 1.22.0
 (optional=templinst)_ZN5QListIN3qbs12ArtifactDataEE18detach_helper_growEii@Base 1.22.0
 (optional=templinst)_ZN5QListIN3qbs12ArtifactDataEE6appendERKS1_@Base 1.22.0
 (optional=templinst)_ZN5QListIN3qbs12ArtifactDataEEC1ERKS2_@Base 1.22.0
 (optional=templinst)_ZN5QListIN3qbs12ArtifactDataEEC2ERKS2_@Base 1.22.0
 (optional=templinst)_ZN5QListIN3qbs12ArtifactDataEED1Ev@Base 1.22.0
 (optional=templinst)_ZN5QListIN3qbs12ArtifactDataEED2Ev@Base 1.22.0
 (optional=templinst)_ZN5QListIN3qbs15TransformerDataEE18detach_helper_growEii@Base 1.22.0
 (optional=templinst)_ZN5QListIN3qbs15TransformerDataEE6appendERKS1_@Base 1.22.0
 (optional=templinst)_ZN5QListIN3qbs15TransformerDataEEC1ERKS2_@Base 1.22.0
 (optional=templinst)_ZN5QListIN3qbs15TransformerDataEEC2ERKS2_@Base 1.22.0
 (optional=templinst)_ZN5QListIN3qbs15TransformerDataEED1Ev@Base 1.22.0
 (optional=templinst)_ZN5QListIN3qbs15TransformerDataEED2Ev@Base 1.22.0
 (optional=templinst)_ZN5QListIN3qbs22GeneratableProductDataEE18detach_helper_growEii@Base 1.22.0
 (optional=templinst)_ZN5QListIN3qbs22GeneratableProductDataEE6appendERKS1_@Base 1.22.0
 (optional=templinst)_ZN5QListIN3qbs22GeneratableProductDataEEC1ERKS2_@Base 1.22.0
 (optional=templinst)_ZN5QListIN3qbs22GeneratableProductDataEEC2ERKS2_@Base 1.22.0
 (optional=templinst)_ZN5QListIN3qbs22GeneratableProjectDataEE18detach_helper_growEii@Base 1.22.0
 (optional=templinst)_ZN5QListIN3qbs22GeneratableProjectDataEE6appendERKS1_@Base 1.22.0
 (optional=templinst)_ZN5QListIN3qbs22GeneratableProjectDataEEC1ERKS2_@Base 1.22.0
 (optional=templinst)_ZN5QListIN3qbs22GeneratableProjectDataEEC2ERKS2_@Base 1.22.0
 (optional=templinst)_ZN5QListIN3qbs22GeneratableProjectDataEED1Ev@Base 1.22.0
 (optional=templinst)_ZN5QListIN3qbs22GeneratableProjectDataEED2Ev@Base 1.22.0
 (optional=templinst)_ZN5QListIN3qbs7ProjectEE13detach_helperEi@Base 1.22.0
 (optional=templinst)_ZN5QListIN3qbs7ProjectEEC1ERKS2_@Base 1.22.0
 (optional=templinst)_ZN5QListIN3qbs7ProjectEEC2ERKS2_@Base 1.22.0
 (optional=templinst)_ZN5QListIN3qbs8Internal11QualifiedIdEE18detach_helper_growEii@Base 1.22.0
 (optional=templinst)_ZN5QListIN3qbs8Internal11QualifiedIdEE6appendERKS2_@Base 1.22.0
 (optional=templinst)_ZN5QListIN3qbs8Internal11QualifiedIdEED1Ev@Base 1.22.0
 (optional=templinst)_ZN5QListIN3qbs8Internal11QualifiedIdEED2Ev@Base 1.22.0
 (optional=templinst)_ZN5QListIN3qbs8Internal18ModuleLoaderResult11ProductInfo10DependencyEE18detach_helper_growEii@Base 1.22.0
 (optional=templinst)_ZN5QListIN3qbs8Internal18ModuleLoaderResult11ProductInfo10DependencyEE6appendERKS4_@Base 1.22.0
 (optional=templinst)_ZN5QListIN3qbs8Internal19PropertyDeclarationEE13detach_helperEi@Base 1.22.0
 (optional=templinst)_ZN5QListIN3qbs8Internal19PropertyDeclarationEE18detach_helper_growEii@Base 1.22.0
 (optional=templinst)_ZN5QListIN3qbs8Internal19PropertyDeclarationEE6appendERKS2_@Base 1.22.0
 (optional=templinst)_ZN5QListIN3qbs8Internal19PropertyDeclarationEEC1ERKS3_@Base 1.22.0
 (optional=templinst)_ZN5QListIN3qbs8Internal19PropertyDeclarationEEC2ERKS3_@Base 1.22.0
 (optional=templinst)_ZN5QListIN3qbs8Internal19PropertyDeclarationEED1Ev@Base 1.22.0
 (optional=templinst)_ZN5QListIN3qbs8Internal19PropertyDeclarationEED2Ev@Base 1.22.0
 (optional=templinst)_ZN5QListIN3qbs8Internal4Item6ModuleEE13detach_helperEi@Base 1.22.0
 (optional=templinst)_ZN5QListIN3qbs8Internal4Item6ModuleEE18detach_helper_growEii@Base 1.22.0
 (optional=templinst)_ZN5QListIN3qbs8Internal4Item6ModuleEE6appendERKS3_@Base 1.22.0
 (optional=templinst)_ZN5QListIN3qbs9ErrorInfoEE13detach_helperEi@Base 1.22.0
 (optional=templinst)_ZN5QListIN3qbs9ErrorInfoEE18detach_helper_growEii@Base 1.22.0
 (optional=templinst)_ZN5QListIN3qbs9ErrorInfoEE6appendERKS1_@Base 1.22.0
 (optional=templinst)_ZN5QListIN3qbs9ErrorInfoEEC1ERKS2_@Base 1.22.0
 (optional=templinst)_ZN5QListIN3qbs9ErrorInfoEEC2ERKS2_@Base 1.22.0
 (optional=templinst)_ZN5QListIN3qbs9ErrorInfoEED1Ev@Base 1.22.0
 (optional=templinst)_ZN5QListIN3qbs9ErrorInfoEED2Ev@Base 1.22.0
 (optional=templinst)_ZN5QListIN3qbs9ErrorItemEE13detach_helperEi@Base 1.22.0
 (optional=templinst)_ZN5QListIN3qbs9ErrorItemEE18detach_helper_growEii@Base 1.22.0
 (optional=templinst)_ZN5QListIN3qbs9ErrorItemEE6appendERKS1_@Base 1.22.0
 (optional=templinst)_ZN5QListIN3qbs9ErrorItemEEC1ERKS2_@Base 1.22.0
 (optional=templinst)_ZN5QListIN3qbs9ErrorItemEEC2ERKS2_@Base 1.22.0
 (optional=templinst)_ZN5QListIN3qbs9ErrorItemEED1Ev@Base 1.22.0
 (optional=templinst)_ZN5QListIN3qbs9ErrorItemEED2Ev@Base 1.22.0
 (optional=templinst)_ZN5QListIN3qbs9GroupDataEE13detach_helperEi@Base 1.22.0
 (optional=templinst)_ZN5QListIN3qbs9GroupDataEE18detach_helper_growEii@Base 1.22.0
 (optional=templinst)_ZN5QListIN3qbs9GroupDataEE6appendERKS1_@Base 1.22.0
 (optional=templinst|arch=!armel !armhf)_ZN5QListIN3qbs9GroupDataEED1Ev@Base 1.22.0
 (optional=templinst|arch=!armel !armhf)_ZN5QListIN3qbs9GroupDataEED2Ev@Base 1.22.0
 (optional=templinst)_ZN5QListIN8QbsQmlJS17DiagnosticMessageEE18detach_helper_growEii@Base 1.22.0
 (optional=templinst)_ZN5QListIN8QbsQmlJS17DiagnosticMessageEE6appendERKS1_@Base 1.22.0
 (optional=templinst)_ZN5QListIN8QbsQmlJS17DiagnosticMessageEEC1ERKS2_@Base 1.22.0
 (optional=templinst)_ZN5QListIN8QbsQmlJS17DiagnosticMessageEEC2ERKS2_@Base 1.22.0
 (optional=templinst)_ZN5QListIN8QbsQmlJS17DiagnosticMessageEED1Ev@Base 1.22.0
 (optional=templinst)_ZN5QListIN8QbsQmlJS17DiagnosticMessageEED2Ev@Base 1.22.0
 (optional=templinst)_ZN5QListIN8QbsQmlJS3AST14SourceLocationEE18detach_helper_growEii@Base 1.22.0
 (optional=templinst)_ZN5QListIN8QbsQmlJS3AST14SourceLocationEE6appendERKS2_@Base 1.22.0
 (optional=templinst)_ZN5QListIN8QbsQmlJS3AST14SourceLocationEEC1ERKS3_@Base 1.22.0
 (optional=templinst)_ZN5QListIN8QbsQmlJS3AST14SourceLocationEEC2ERKS3_@Base 1.22.0
 (optional=templinst)_ZN5QListIN8QbsQmlJS9ChangeSet6EditOpEE13detach_helperEi@Base 1.22.0
 (optional=templinst)_ZN5QListIN8QbsQmlJS9ChangeSet6EditOpEE18detach_helper_growEii@Base 1.22.0
 (optional=templinst)_ZN5QListIN8QbsQmlJS9ChangeSet6EditOpEE6appendERKS2_@Base 1.22.0
 (optional=templinst)_ZN5QListIN8QbsQmlJS9ChangeSet6EditOpEEC1ERKS3_@Base 1.22.0
 (optional=templinst)_ZN5QListIN8QbsQmlJS9ChangeSet6EditOpEEC2ERKS3_@Base 1.22.0
 (optional=templinst)_ZN5QListIN8QbsQmlJS9ChangeSet6EditOpEED1Ev@Base 1.22.0
 (optional=templinst)_ZN5QListIN8QbsQmlJS9ChangeSet6EditOpEED2Ev@Base 1.22.0
 (optional=templinst)_ZN5QListIPKN3qbs8Internal14ResolvedModuleEE18detach_helper_growEii@Base 1.22.0
 (optional=templinst)_ZN5QListIPKN3qbs8Internal14ResolvedModuleEE6appendERKS4_@Base 1.22.0
 (optional=templinst)_ZN5QListIPKN3qbs8Internal14ResolvedModuleEEC1ERKS5_@Base 1.22.0
 (optional=templinst)_ZN5QListIPKN3qbs8Internal14ResolvedModuleEEC2ERKS5_@Base 1.22.0
 (optional=templinst)_ZN5QListIPKN3qbs8Internal14ResolvedModuleEED1Ev@Base 1.22.0
 (optional=templinst)_ZN5QListIPKN3qbs8Internal14ResolvedModuleEED2Ev@Base 1.22.0
 (optional=templinst)_ZN5QListIPKN3qbs8Internal4RuleEE18detach_helper_growEii@Base 1.22.0
 (optional=templinst)_ZN5QListIPKN3qbs8Internal4RuleEE6appendERKS4_@Base 1.22.0
 (optional=templinst)_ZN5QListIPKN3qbs8Internal4RuleEEC1ERKS5_@Base 1.22.0
 (optional=templinst)_ZN5QListIPKN3qbs8Internal4RuleEEC2ERKS5_@Base 1.22.0
 (optional=templinst)_ZN5QListIPKN3qbs8Internal4RuleEED1Ev@Base 1.22.0
 (optional=templinst)_ZN5QListIPKN3qbs8Internal4RuleEED2Ev@Base 1.22.0
 (optional=templinst)_ZN5QListIPKN3qbs8Internal8ArtifactEE18detach_helper_growEii@Base 1.22.0
 (optional=templinst)_ZN5QListIPKN3qbs8Internal8ArtifactEE6appendERKS4_@Base 1.22.0
 (optional=templinst)_ZN5QListIPN3qbs8Internal11ExecutorJobEE13detach_helperEi@Base 1.22.0
 (optional=templinst)_ZN5QListIPN3qbs8Internal11ExecutorJobEE18detach_helper_growEii@Base 1.22.0
 (optional=templinst)_ZN5QListIPN3qbs8Internal11ExecutorJobEE6appendERKS3_@Base 1.22.0
 (optional=templinst)_ZN5QListIPN3qbs8Internal11ExecutorJobEED1Ev@Base 1.22.0
 (optional=templinst)_ZN5QListIPN3qbs8Internal11ExecutorJobEED2Ev@Base 1.22.0
 (optional=templinst)_ZN5QListIPN3qbs8Internal12ModuleLoader14ProductContextEE18detach_helper_growEii@Base 1.22.0
 (optional=templinst)_ZN5QListIPN3qbs8Internal12ModuleLoader14ProductContextEE6appendERKS4_@Base 1.22.0
 (optional=templinst)_ZN5QListIPN3qbs8Internal12ModuleLoader14ProductContextEED1Ev@Base 1.22.0
 (optional=templinst)_ZN5QListIPN3qbs8Internal12ModuleLoader14ProductContextEED2Ev@Base 1.22.0
 (optional=templinst)_ZN5QListIPN3qbs8Internal14BuildGraphNodeEE18detach_helper_growEii@Base 1.22.0
 (optional=templinst)_ZN5QListIPN3qbs8Internal14BuildGraphNodeEE6appendERKS3_@Base 1.22.0
 (optional=templinst)_ZN5QListIPN3qbs8Internal14BuildGraphNodeEED1Ev@Base 1.22.0
 (optional=templinst)_ZN5QListIPN3qbs8Internal14BuildGraphNodeEED2Ev@Base 1.22.0
 (optional=templinst)_ZN5QListIPN3qbs8Internal16FileResourceBaseEE18detach_helper_growEii@Base 1.22.0
 (optional=templinst)_ZN5QListIPN3qbs8Internal16FileResourceBaseEE6appendERKS3_@Base 1.22.0
 (optional=templinst)_ZN5QListIPN3qbs8Internal4ItemEE13detach_helperEi@Base 1.22.0
 (optional=templinst)_ZN5QListIPN3qbs8Internal4ItemEE18detach_helper_growEii@Base 1.22.0
 (optional=templinst)_ZN5QListIPN3qbs8Internal4ItemEE6appendERKS3_@Base 1.22.0
 (optional=templinst)_ZN5QListIPN3qbs8Internal4ItemEEC1ERKS4_@Base 1.22.0
 (optional=templinst)_ZN5QListIPN3qbs8Internal4ItemEEC2ERKS4_@Base 1.22.0
 (optional=templinst)_ZN5QListIPN3qbs8Internal4ItemEED1Ev@Base 1.22.0
 (optional=templinst)_ZN5QListIPN3qbs8Internal4ItemEED2Ev@Base 1.22.0
 (optional=templinst)_ZN5QListIPN3qbs8Internal4NodeEE18detach_helper_growEii@Base 1.22.0
 (optional=templinst)_ZN5QListIPN3qbs8Internal4NodeEE6appendERKS3_@Base 1.22.0
 (optional=templinst)_ZN5QListIPN3qbs8Internal8ArtifactEE13detach_helperEi@Base 1.22.0
 (optional=templinst)_ZN5QListIPN3qbs8Internal8ArtifactEE18detach_helper_growEii@Base 1.22.0
 (optional=templinst)_ZN5QListIPN3qbs8Internal8ArtifactEE6appendERKS3_@Base 1.22.0
 (optional=templinst)_ZN5QListIPN3qbs8Internal8ArtifactEEC1ERKS4_@Base 1.22.0
 (optional=templinst)_ZN5QListIPN3qbs8Internal8ArtifactEEC2ERKS4_@Base 1.22.0
 (optional=templinst)_ZN5QListIPN3qbs8Internal8ArtifactEED1Ev@Base 1.22.0
 (optional=templinst)_ZN5QListIPN3qbs8Internal8ArtifactEED2Ev@Base 1.22.0
 (optional=templinst)_ZN5QListISt10shared_ptrIN3qbs8Internal13ResolvedGroupEEE13detach_helperEi@Base 1.22.0
 (optional=templinst)_ZN5QListISt10shared_ptrIN3qbs8Internal13ResolvedGroupEEE18detach_helper_growEii@Base 1.22.0
 (optional=templinst)_ZN5QListISt10shared_ptrIN3qbs8Internal13ResolvedGroupEEE6appendERKS4_@Base 1.22.0
 (optional=templinst)_ZN5QListISt10shared_ptrIN3qbs8Internal15AbstractCommandEEE13detach_helperEi@Base 1.22.0
 (optional=templinst)_ZN5QListISt10shared_ptrIN3qbs8Internal15AbstractCommandEEE18detach_helper_growEii@Base 1.22.0
 (optional=templinst)_ZN5QListISt10shared_ptrIN3qbs8Internal15AbstractCommandEEE6appendERKS4_@Base 1.22.0
 (optional=templinst)_ZN5QListISt10shared_ptrIN3qbs8Internal15AbstractCommandEEEC1ERKS5_@Base 1.22.0
 (optional=templinst)_ZN5QListISt10shared_ptrIN3qbs8Internal15AbstractCommandEEEC2ERKS5_@Base 1.22.0
 (optional=templinst)_ZN5QListISt10shared_ptrIN3qbs8Internal15AbstractCommandEEED1Ev@Base 1.22.0
 (optional=templinst)_ZN5QListISt10shared_ptrIN3qbs8Internal15AbstractCommandEEED2Ev@Base 1.22.0
 (optional=templinst)_ZN5QListISt10shared_ptrIN3qbs8Internal15ResolvedProductEEE18detach_helper_growEii@Base 1.22.0
 (optional=templinst)_ZN5QListISt10shared_ptrIN3qbs8Internal15ResolvedProductEEE6appendERKS4_@Base 1.22.0
 (optional=templinst)_ZN5QListISt10shared_ptrIN3qbs8Internal15ResolvedProductEEEC1ERKS5_@Base 1.22.0
 (optional=templinst)_ZN5QListISt10shared_ptrIN3qbs8Internal15ResolvedProductEEEC2ERKS5_@Base 1.22.0
 (optional=templinst)_ZN5QListISt10shared_ptrIN3qbs8Internal15ResolvedProductEEED1Ev@Base 1.22.0
 (optional=templinst)_ZN5QListISt10shared_ptrIN3qbs8Internal15ResolvedProductEEED2Ev@Base 1.22.0
 (optional=templinst)_ZN5QListISt10shared_ptrIN3qbs8Internal17DependencyScannerEEE18detach_helper_growEii@Base 1.22.0
 (optional=templinst)_ZN5QListISt10shared_ptrIN3qbs8Internal17DependencyScannerEEE6appendERKS4_@Base 1.22.0
 (optional=templinst)_ZN5QListISt10shared_ptrIN3qbs8Internal17DependencyScannerEEEC1ERKS5_@Base 1.22.0
 (optional=templinst)_ZN5QListISt10shared_ptrIN3qbs8Internal17DependencyScannerEEEC2ERKS5_@Base 1.22.0
 _ZN6QDebuglsEPKc@Base 1.22.0
 (optional=inline|arch=!riscv64)_ZN6QDebuglsERK7QString@Base 1.22.0
 _ZN7QStringD1Ev@Base 1.22.0
 _ZN7QStringD2Ev@Base 1.22.0
 (optional=templinst)_ZN7QVectorISt10shared_ptrIN3qbs8Internal15ResolvedProductEEE6appendERKS4_@Base 1.22.0
 (optional=templinst)_ZN7QVectorISt10shared_ptrIN3qbs8Internal15ResolvedProductEEE7reallocEi6QFlagsIN10QArrayData16AllocationOptionEE@Base 1.22.0
 (optional=templinst)_ZN7QVectorISt10shared_ptrIN3qbs8Internal15ResolvedProductEEEC1ERKS5_@Base 1.22.0
 (optional=templinst)_ZN7QVectorISt10shared_ptrIN3qbs8Internal15ResolvedProductEEEC2ERKS5_@Base 1.22.0
 (optional=templinst)_ZN7QVectorISt10shared_ptrIN3qbs8Internal15ResolvedProductEEED1Ev@Base 1.22.0
 (optional=templinst)_ZN7QVectorISt10shared_ptrIN3qbs8Internal15ResolvedProductEEED2Ev@Base 1.22.0
 (optional=templinst)_ZN8QMapDataI7QString11QStringListE7destroyEv@Base 1.22.0
 (optional=templinst)_ZN8QMapDataI7QString5QListIPN3qbs8Internal8ArtifactEEE7destroyEv@Base 1.22.0
 (optional=templinst)_ZN8QMapDataI7QString8QVariantE7destroyEv@Base 1.22.0
 (optional=templinst)_ZN8QMapDataI7QStringN3qbs11ProjectDataEE7destroyEv@Base 1.22.0
 (optional=templinst)_ZN8QMapDataI7QStringN3qbs8Internal19PropertyDeclarationEE7destroyEv@Base 1.22.0
 (optional=templinst)_ZN8QMapDataI7QStringPFv12QScriptValueEE7destroyEv@Base 1.22.0
 (optional=templinst)_ZN8QMapDataI7QStringPKN3qbs8Internal14ResolvedModuleEE7destroyEv@Base 1.22.0
 (optional=templinst)_ZN8QMapDataI7QStringPbE7destroyEv@Base 1.22.0
 (optional=templinst)_ZN8QMapDataIN3qbs8Internal7FileTagE5QListIPKNS1_4RuleEEE7destroyEv@Base 1.22.0
 (optional=templinst)_ZN8QMapDataIN3qbs8Internal8ItemTypeENS1_15ItemDeclarationEE10createNodeERKS2_RKS3_P8QMapNodeIS2_S3_Eb@Base 1.22.0
 (optional=templinst)_ZN8QMapDataIN3qbs8Internal8ItemTypeENS1_15ItemDeclarationEE7destroyEv@Base 1.22.0
 (optional=templinst)_ZN8QMapDataISt10shared_ptrIKN3qbs8Internal15ResolvedProductEE4QMapI7QString8QVariantEE10createNodeERKS5_RKS9_P8QMapNodeIS5_S9_Eb@Base 1.22.0
 (optional=templinst)_ZN8QMapNodeI7QString11QStringListE14destroySubTreeEv@Base 1.22.0
 (optional=templinst)_ZN8QMapNodeI7QString4QMapIS0_8QVariantEE14destroySubTreeEv@Base 1.22.0
 (optional=templinst)_ZN8QMapNodeI7QString5QListIPN3qbs8Internal8ArtifactEEE14destroySubTreeEv@Base 1.22.0
 (optional=templinst)_ZN8QMapNodeI7QString8QVariantE14destroySubTreeEv@Base 1.22.0
 (optional=templinst)_ZN8QMapNodeI7QStringN3qbs11ProductDataEE14destroySubTreeEv@Base 1.22.0
 (optional=templinst)_ZN8QMapNodeI7QStringN3qbs11ProjectDataEE14destroySubTreeEv@Base 1.22.0
 (optional=templinst)_ZN8QMapNodeI7QStringN3qbs7ProjectEE14destroySubTreeEv@Base 1.22.0
 (optional=templinst)_ZN8QMapNodeI7QStringN3qbs8Internal19PropertyDeclarationEE14destroySubTreeEv@Base 1.22.0
 (optional=templinst)_ZN8QMapNodeI7QStringPFv12QScriptValueEE14destroySubTreeEv@Base 1.22.0
 (optional=templinst)_ZN8QMapNodeI7QStringPKN3qbs8Internal14ResolvedModuleEE14destroySubTreeEv@Base 1.22.0
 (optional=templinst)_ZN8QMapNodeI7QStringPbE14destroySubTreeEv@Base 1.22.0
 (optional=templinst)_ZN8QMapNodeI7QStringSt10shared_ptrIN3qbs16ProjectGeneratorEEE14destroySubTreeEv@Base 1.22.0
 (optional=templinst)_ZN8QMapNodeI7QStringSt10shared_ptrIN3qbs8Internal15ResolvedProductEEE14destroySubTreeEv@Base 1.22.0
 (optional=templinst)_ZN8QMapNodeI7QStringSt10shared_ptrIN3qbs8Internal18ArtifactPropertiesEEE14destroySubTreeEv@Base 1.22.0
 (optional=templinst)_ZN8QMapNodeI7QStringSt10shared_ptrIN3qbs8Internal4RuleEEE14destroySubTreeEv@Base 1.22.0
 (optional=templinst)_ZN8QMapNodeI7QStringSt10shared_ptrIN3qbs8Internal5ValueEEE14destroySubTreeEv@Base 1.22.0
 (optional=templinst)_ZN8QMapNodeIN3qbs8Internal7FileTagE5QListIPKNS1_4RuleEEE14destroySubTreeEv@Base 1.22.0
 (optional=templinst)_ZN8QMapNodeIN3qbs8Internal8ItemTypeENS1_15ItemDeclarationEE14destroySubTreeEv@Base 1.22.0
 (optional=templinst)_ZN8QMapNodeISt10shared_ptrIKN3qbs8Internal15ResolvedProductEE4QMapI7QString8QVariantEE14destroySubTreeEv@Base 1.22.0
 _ZN8QbsQmlJS10Directives10importFileERK7QStringS3_@Base 1.22.0
 _ZN8QbsQmlJS10Directives12importModuleERK7QStringS3_S3_@Base 1.22.0
 _ZN8QbsQmlJS10Directives13pragmaLibraryEv@Base 1.22.0
 _ZN8QbsQmlJS10DirectivesD0Ev@Base 1.22.0
 _ZN8QbsQmlJS10DirectivesD1Ev@Base 1.22.0
 _ZN8QbsQmlJS10DirectivesD2Ev@Base 1.22.0
 (subst)_ZN8QbsQmlJS10MemoryPool8allocateE{size_t}@Base 1.22.0
 _ZN8QbsQmlJS12QmlJSGrammar11action_infoE@Base 1.22.0
 _ZN8QbsQmlJS12QmlJSGrammar12action_checkE@Base 1.22.0
 _ZN8QbsQmlJS12QmlJSGrammar12action_indexE@Base 1.22.0
 _ZN8QbsQmlJS12QmlJSGrammar12goto_defaultE@Base 1.22.0
 _ZN8QbsQmlJS12QmlJSGrammar14action_defaultE@Base 1.22.0
 _ZN8QbsQmlJS12QmlJSGrammar3lhsE@Base 1.22.0
 _ZN8QbsQmlJS12QmlJSGrammar3rhsE@Base 1.22.0
 _ZN8QbsQmlJS12QmlJSGrammar5spellE@Base 1.22.0
 _ZN8QbsQmlJS15QmlErrorPrivateC1Ev@Base 1.22.0
 _ZN8QbsQmlJS15QmlErrorPrivateC2Ev@Base 1.22.0
 _ZN8QbsQmlJS17integerFromStringEPKcii@Base 1.22.0
 _ZN8QbsQmlJS17integerFromStringERK7QStringi@Base 1.22.0
 _ZN8QbsQmlJS3AST10CaseClause7accept0EPNS0_7VisitorE@Base 1.22.0
 _ZN8QbsQmlJS3AST10CaseClauseD0Ev@Base 1.22.0
 _ZN8QbsQmlJS3AST10CaseClauseD1Ev@Base 1.22.0
 _ZN8QbsQmlJS3AST10CaseClauseD2Ev@Base 1.22.0
 _ZN8QbsQmlJS3AST10Expression7accept0EPNS0_7VisitorE@Base 1.22.0
 _ZN8QbsQmlJS3AST10ExpressionD0Ev@Base 1.22.0
 _ZN8QbsQmlJS3AST10ExpressionD1Ev@Base 1.22.0
 _ZN8QbsQmlJS3AST10ExpressionD2Ev@Base 1.22.0
 _ZN8QbsQmlJS3AST11CaseClauses7accept0EPNS0_7VisitorE@Base 1.22.0
 _ZN8QbsQmlJS3AST11CaseClausesD0Ev@Base 1.22.0
 _ZN8QbsQmlJS3AST11CaseClausesD1Ev@Base 1.22.0
 _ZN8QbsQmlJS3AST11CaseClausesD2Ev@Base 1.22.0
 _ZN8QbsQmlJS3AST11ElementList7accept0EPNS0_7VisitorE@Base 1.22.0
 _ZN8QbsQmlJS3AST11ElementListD0Ev@Base 1.22.0
 _ZN8QbsQmlJS3AST11ElementListD1Ev@Base 1.22.0
 _ZN8QbsQmlJS3AST11ElementListD2Ev@Base 1.22.0
 _ZN8QbsQmlJS3AST11IfStatement7accept0EPNS0_7VisitorE@Base 1.22.0
 _ZN8QbsQmlJS3AST11IfStatementD0Ev@Base 1.22.0
 _ZN8QbsQmlJS3AST11IfStatementD1Ev@Base 1.22.0
 _ZN8QbsQmlJS3AST11IfStatementD2Ev@Base 1.22.0
 _ZN8QbsQmlJS3AST11TrueLiteral7accept0EPNS0_7VisitorE@Base 1.22.0
 _ZN8QbsQmlJS3AST11TrueLiteralD0Ev@Base 1.22.0
 _ZN8QbsQmlJS3AST11TrueLiteralD1Ev@Base 1.22.0
 _ZN8QbsQmlJS3AST11TrueLiteralD2Ev@Base 1.22.0
 _ZN8QbsQmlJS3AST12ArgumentList7accept0EPNS0_7VisitorE@Base 1.22.0
 _ZN8QbsQmlJS3AST12ArgumentListD0Ev@Base 1.22.0
 _ZN8QbsQmlJS3AST12ArgumentListD1Ev@Base 1.22.0
 _ZN8QbsQmlJS3AST12ArgumentListD2Ev@Base 1.22.0
 _ZN8QbsQmlJS3AST12ArrayLiteral7accept0EPNS0_7VisitorE@Base 1.22.0
 _ZN8QbsQmlJS3AST12ArrayLiteralD0Ev@Base 1.22.0
 _ZN8QbsQmlJS3AST12ArrayLiteralD1Ev@Base 1.22.0
 _ZN8QbsQmlJS3AST12ArrayLiteralD2Ev@Base 1.22.0
 _ZN8QbsQmlJS3AST12FalseLiteral7accept0EPNS0_7VisitorE@Base 1.22.0
 _ZN8QbsQmlJS3AST12FalseLiteralD0Ev@Base 1.22.0
 _ZN8QbsQmlJS3AST12FalseLiteralD1Ev@Base 1.22.0
 _ZN8QbsQmlJS3AST12FalseLiteralD2Ev@Base 1.22.0
 _ZN8QbsQmlJS3AST12ForStatement7accept0EPNS0_7VisitorE@Base 1.22.0
 _ZN8QbsQmlJS3AST12ForStatementD0Ev@Base 1.22.0
 _ZN8QbsQmlJS3AST12ForStatementD1Ev@Base 1.22.0
 _ZN8QbsQmlJS3AST12ForStatementD2Ev@Base 1.22.0
 _ZN8QbsQmlJS3AST12FunctionBody7accept0EPNS0_7VisitorE@Base 1.22.0
 _ZN8QbsQmlJS3AST12FunctionBodyD0Ev@Base 1.22.0
 _ZN8QbsQmlJS3AST12FunctionBodyD1Ev@Base 1.22.0
 _ZN8QbsQmlJS3AST12FunctionBodyD2Ev@Base 1.22.0
 _ZN8QbsQmlJS3AST12TryStatement7accept0EPNS0_7VisitorE@Base 1.22.0
 _ZN8QbsQmlJS3AST12TryStatementD0Ev@Base 1.22.0
 _ZN8QbsQmlJS3AST12TryStatementD1Ev@Base 1.22.0
 _ZN8QbsQmlJS3AST12TryStatementD2Ev@Base 1.22.0
 _ZN8QbsQmlJS3AST12UiImportList7accept0EPNS0_7VisitorE@Base 1.22.0
 _ZN8QbsQmlJS3AST12UiImportListD0Ev@Base 1.22.0
 _ZN8QbsQmlJS3AST12UiImportListD1Ev@Base 1.22.0
 _ZN8QbsQmlJS3AST12UiImportListD2Ev@Base 1.22.0
 _ZN8QbsQmlJS3AST13DefaultClause7accept0EPNS0_7VisitorE@Base 1.22.0
 _ZN8QbsQmlJS3AST13DefaultClauseD0Ev@Base 1.22.0
 _ZN8QbsQmlJS3AST13DefaultClauseD1Ev@Base 1.22.0
 _ZN8QbsQmlJS3AST13DefaultClauseD2Ev@Base 1.22.0
 _ZN8QbsQmlJS3AST13NewExpression7accept0EPNS0_7VisitorE@Base 1.22.0
 _ZN8QbsQmlJS3AST13NewExpressionD0Ev@Base 1.22.0
 _ZN8QbsQmlJS3AST13NewExpressionD1Ev@Base 1.22.0
 _ZN8QbsQmlJS3AST13NewExpressionD2Ev@Base 1.22.0
 _ZN8QbsQmlJS3AST13NotExpression7accept0EPNS0_7VisitorE@Base 1.22.0
 _ZN8QbsQmlJS3AST13NotExpressionD0Ev@Base 1.22.0
 _ZN8QbsQmlJS3AST13NotExpressionD1Ev@Base 1.22.0
 _ZN8QbsQmlJS3AST13NotExpressionD2Ev@Base 1.22.0
 _ZN8QbsQmlJS3AST13ObjectLiteral7accept0EPNS0_7VisitorE@Base 1.22.0
 _ZN8QbsQmlJS3AST13ObjectLiteralD0Ev@Base 1.22.0
 _ZN8QbsQmlJS3AST13ObjectLiteralD1Ev@Base 1.22.0
 _ZN8QbsQmlJS3AST13ObjectLiteralD2Ev@Base 1.22.0
 _ZN8QbsQmlJS3AST13RegExpLiteral7accept0EPNS0_7VisitorE@Base 1.22.0
 _ZN8QbsQmlJS3AST13RegExpLiteralD0Ev@Base 1.22.0
 _ZN8QbsQmlJS3AST13RegExpLiteralD1Ev@Base 1.22.0
 _ZN8QbsQmlJS3AST13RegExpLiteralD2Ev@Base 1.22.0
 _ZN8QbsQmlJS3AST13StatementList7accept0EPNS0_7VisitorE@Base 1.22.0
 _ZN8QbsQmlJS3AST13StatementListD0Ev@Base 1.22.0
 _ZN8QbsQmlJS3AST13StatementListD1Ev@Base 1.22.0
 _ZN8QbsQmlJS3AST13StatementListD2Ev@Base 1.22.0
 _ZN8QbsQmlJS3AST13StringLiteral7accept0EPNS0_7VisitorE@Base 1.22.0
 _ZN8QbsQmlJS3AST13StringLiteralD0Ev@Base 1.22.0
 _ZN8QbsQmlJS3AST13StringLiteralD1Ev@Base 1.22.0
 _ZN8QbsQmlJS3AST13StringLiteralD2Ev@Base 1.22.0
 _ZN8QbsQmlJS3AST13UiQualifiedId7accept0EPNS0_7VisitorE@Base 1.22.0
 _ZN8QbsQmlJS3AST13UiQualifiedIdD0Ev@Base 1.22.0
 _ZN8QbsQmlJS3AST13UiQualifiedIdD1Ev@Base 1.22.0
 _ZN8QbsQmlJS3AST13UiQualifiedIdD2Ev@Base 1.22.0
 _ZN8QbsQmlJS3AST13WithStatement7accept0EPNS0_7VisitorE@Base 1.22.0
 _ZN8QbsQmlJS3AST13WithStatementD0Ev@Base 1.22.0
 _ZN8QbsQmlJS3AST13WithStatementD1Ev@Base 1.22.0
 _ZN8QbsQmlJS3AST13WithStatementD2Ev@Base 1.22.0
 _ZN8QbsQmlJS3AST14BreakStatement7accept0EPNS0_7VisitorE@Base 1.22.0
 _ZN8QbsQmlJS3AST14BreakStatementD0Ev@Base 1.22.0
 _ZN8QbsQmlJS3AST14BreakStatementD1Ev@Base 1.22.0
 _ZN8QbsQmlJS3AST14BreakStatementD2Ev@Base 1.22.0
 _ZN8QbsQmlJS3AST14CallExpression7accept0EPNS0_7VisitorE@Base 1.22.0
 _ZN8QbsQmlJS3AST14CallExpressionD0Ev@Base 1.22.0
 _ZN8QbsQmlJS3AST14CallExpressionD1Ev@Base 1.22.0
 _ZN8QbsQmlJS3AST14CallExpressionD2Ev@Base 1.22.0
 _ZN8QbsQmlJS3AST14EmptyStatement7accept0EPNS0_7VisitorE@Base 1.22.0
 _ZN8QbsQmlJS3AST14EmptyStatementD0Ev@Base 1.22.0
 _ZN8QbsQmlJS3AST14EmptyStatementD1Ev@Base 1.22.0
 _ZN8QbsQmlJS3AST14EmptyStatementD2Ev@Base 1.22.0
 _ZN8QbsQmlJS3AST14ExpressionNode14expressionCastEv@Base 1.22.0
 _ZN8QbsQmlJS3AST14NullExpression7accept0EPNS0_7VisitorE@Base 1.22.0
 _ZN8QbsQmlJS3AST14NullExpressionD0Ev@Base 1.22.0
 _ZN8QbsQmlJS3AST14NullExpressionD1Ev@Base 1.22.0
 _ZN8QbsQmlJS3AST14NullExpressionD2Ev@Base 1.22.0
 _ZN8QbsQmlJS3AST14NumericLiteral7accept0EPNS0_7VisitorE@Base 1.22.0
 _ZN8QbsQmlJS3AST14NumericLiteralD0Ev@Base 1.22.0
 _ZN8QbsQmlJS3AST14NumericLiteralD1Ev@Base 1.22.0
 _ZN8QbsQmlJS3AST14NumericLiteralD2Ev@Base 1.22.0
 _ZN8QbsQmlJS3AST14SourceElements7accept0EPNS0_7VisitorE@Base 1.22.0
 _ZN8QbsQmlJS3AST14SourceElementsD0Ev@Base 1.22.0
 _ZN8QbsQmlJS3AST14SourceElementsD1Ev@Base 1.22.0
 _ZN8QbsQmlJS3AST14SourceElementsD2Ev@Base 1.22.0
 _ZN8QbsQmlJS3AST14ThisExpression7accept0EPNS0_7VisitorE@Base 1.22.0
 _ZN8QbsQmlJS3AST14ThisExpressionD0Ev@Base 1.22.0
 _ZN8QbsQmlJS3AST14ThisExpressionD1Ev@Base 1.22.0
 _ZN8QbsQmlJS3AST14ThisExpressionD2Ev@Base 1.22.0
 _ZN8QbsQmlJS3AST14ThrowStatement7accept0EPNS0_7VisitorE@Base 1.22.0
 _ZN8QbsQmlJS3AST14ThrowStatementD0Ev@Base 1.22.0
 _ZN8QbsQmlJS3AST14ThrowStatementD1Ev@Base 1.22.0
 _ZN8QbsQmlJS3AST14ThrowStatementD2Ev@Base 1.22.0
 _ZN8QbsQmlJS3AST14UiArrayBinding7accept0EPNS0_7VisitorE@Base 1.22.0
 _ZN8QbsQmlJS3AST14UiArrayBindingD0Ev@Base 1.22.0
 _ZN8QbsQmlJS3AST14UiArrayBindingD1Ev@Base 1.22.0
 _ZN8QbsQmlJS3AST14UiArrayBindingD2Ev@Base 1.22.0
 _ZN8QbsQmlJS3AST14UiObjectMember18uiObjectMemberCastEv@Base 1.22.0
 _ZN8QbsQmlJS3AST14UiPublicMember7accept0EPNS0_7VisitorE@Base 1.22.0
 _ZN8QbsQmlJS3AST14UiPublicMemberD0Ev@Base 1.22.0
 _ZN8QbsQmlJS3AST14UiPublicMemberD1Ev@Base 1.22.0
 _ZN8QbsQmlJS3AST14UiPublicMemberD2Ev@Base 1.22.0
 _ZN8QbsQmlJS3AST14VoidExpression7accept0EPNS0_7VisitorE@Base 1.22.0
 _ZN8QbsQmlJS3AST14VoidExpressionD0Ev@Base 1.22.0
 _ZN8QbsQmlJS3AST14VoidExpressionD1Ev@Base 1.22.0
 _ZN8QbsQmlJS3AST14VoidExpressionD2Ev@Base 1.22.0
 _ZN8QbsQmlJS3AST14WhileStatement7accept0EPNS0_7VisitorE@Base 1.22.0
 _ZN8QbsQmlJS3AST14WhileStatementD0Ev@Base 1.22.0
 _ZN8QbsQmlJS3AST14WhileStatementD1Ev@Base 1.22.0
 _ZN8QbsQmlJS3AST14WhileStatementD2Ev@Base 1.22.0
 _ZN8QbsQmlJS3AST15ReturnStatement7accept0EPNS0_7VisitorE@Base 1.22.0
 _ZN8QbsQmlJS3AST15ReturnStatementD0Ev@Base 1.22.0
 _ZN8QbsQmlJS3AST15ReturnStatementD1Ev@Base 1.22.0
 _ZN8QbsQmlJS3AST15ReturnStatementD2Ev@Base 1.22.0
 _ZN8QbsQmlJS3AST15SwitchStatement7accept0EPNS0_7VisitorE@Base 1.22.0
 _ZN8QbsQmlJS3AST15SwitchStatementD0Ev@Base 1.22.0
 _ZN8QbsQmlJS3AST15SwitchStatementD1Ev@Base 1.22.0
 _ZN8QbsQmlJS3AST15SwitchStatementD2Ev@Base 1.22.0
 _ZN8QbsQmlJS3AST15TildeExpression7accept0EPNS0_7VisitorE@Base 1.22.0
 _ZN8QbsQmlJS3AST15TildeExpressionD0Ev@Base 1.22.0
 _ZN8QbsQmlJS3AST15TildeExpressionD1Ev@Base 1.22.0
 _ZN8QbsQmlJS3AST15TildeExpressionD2Ev@Base 1.22.0
 _ZN8QbsQmlJS3AST15UiObjectBinding7accept0EPNS0_7VisitorE@Base 1.22.0
 _ZN8QbsQmlJS3AST15UiObjectBindingD0Ev@Base 1.22.0
 _ZN8QbsQmlJS3AST15UiObjectBindingD1Ev@Base 1.22.0
 _ZN8QbsQmlJS3AST15UiObjectBindingD2Ev@Base 1.22.0
 _ZN8QbsQmlJS3AST15UiParameterList7accept0EPNS0_7VisitorE@Base 1.22.0
 _ZN8QbsQmlJS3AST15UiParameterListD0Ev@Base 1.22.0
 _ZN8QbsQmlJS3AST15UiParameterListD1Ev@Base 1.22.0
 _ZN8QbsQmlJS3AST15UiParameterListD2Ev@Base 1.22.0
 _ZN8QbsQmlJS3AST15UiScriptBinding7accept0EPNS0_7VisitorE@Base 1.22.0
 _ZN8QbsQmlJS3AST15UiScriptBindingD0Ev@Base 1.22.0
 _ZN8QbsQmlJS3AST15UiScriptBindingD1Ev@Base 1.22.0
 _ZN8QbsQmlJS3AST15UiScriptBindingD2Ev@Base 1.22.0
 _ZN8QbsQmlJS3AST15UiSourceElement7accept0EPNS0_7VisitorE@Base 1.22.0
 _ZN8QbsQmlJS3AST15UiSourceElementD0Ev@Base 1.22.0
 _ZN8QbsQmlJS3AST15UiSourceElementD1Ev@Base 1.22.0
 _ZN8QbsQmlJS3AST15UiSourceElementD2Ev@Base 1.22.0
 _ZN8QbsQmlJS3AST16BinaryExpression20binaryExpressionCastEv@Base 1.22.0
 _ZN8QbsQmlJS3AST16BinaryExpression7accept0EPNS0_7VisitorE@Base 1.22.0
 _ZN8QbsQmlJS3AST16BinaryExpressionD0Ev@Base 1.22.0
 _ZN8QbsQmlJS3AST16BinaryExpressionD1Ev@Base 1.22.0
 _ZN8QbsQmlJS3AST16BinaryExpressionD2Ev@Base 1.22.0
 _ZN8QbsQmlJS3AST16DeleteExpression7accept0EPNS0_7VisitorE@Base 1.22.0
 _ZN8QbsQmlJS3AST16DeleteExpressionD0Ev@Base 1.22.0
 _ZN8QbsQmlJS3AST16DeleteExpressionD1Ev@Base 1.22.0
 _ZN8QbsQmlJS3AST16DeleteExpressionD2Ev@Base 1.22.0
 _ZN8QbsQmlJS3AST16DoWhileStatement7accept0EPNS0_7VisitorE@Base 1.22.0
 _ZN8QbsQmlJS3AST16DoWhileStatementD0Ev@Base 1.22.0
 _ZN8QbsQmlJS3AST16DoWhileStatementD1Ev@Base 1.22.0
 _ZN8QbsQmlJS3AST16DoWhileStatementD2Ev@Base 1.22.0
 _ZN8QbsQmlJS3AST16ForEachStatement7accept0EPNS0_7VisitorE@Base 1.22.0
 _ZN8QbsQmlJS3AST16ForEachStatementD0Ev@Base 1.22.0
 _ZN8QbsQmlJS3AST16ForEachStatementD1Ev@Base 1.22.0
 _ZN8QbsQmlJS3AST16ForEachStatementD2Ev@Base 1.22.0
 _ZN8QbsQmlJS3AST16NestedExpression7accept0EPNS0_7VisitorE@Base 1.22.0
 _ZN8QbsQmlJS3AST16NestedExpressionD0Ev@Base 1.22.0
 _ZN8QbsQmlJS3AST16NestedExpressionD1Ev@Base 1.22.0
 _ZN8QbsQmlJS3AST16NestedExpressionD2Ev@Base 1.22.0
 _ZN8QbsQmlJS3AST16TypeOfExpression7accept0EPNS0_7VisitorE@Base 1.22.0
 _ZN8QbsQmlJS3AST16TypeOfExpressionD0Ev@Base 1.22.0
 _ZN8QbsQmlJS3AST16TypeOfExpressionD1Ev@Base 1.22.0
 _ZN8QbsQmlJS3AST16TypeOfExpressionD2Ev@Base 1.22.0
 _ZN8QbsQmlJS3AST17ContinueStatement7accept0EPNS0_7VisitorE@Base 1.22.0
 _ZN8QbsQmlJS3AST17ContinueStatementD0Ev@Base 1.22.0
 _ZN8QbsQmlJS3AST17ContinueStatementD1Ev@Base 1.22.0
 _ZN8QbsQmlJS3AST17ContinueStatementD2Ev@Base 1.22.0
 _ZN8QbsQmlJS3AST17DebuggerStatement7accept0EPNS0_7VisitorE@Base 1.22.0
 _ZN8QbsQmlJS3AST17DebuggerStatementD0Ev@Base 1.22.0
 _ZN8QbsQmlJS3AST17DebuggerStatementD1Ev@Base 1.22.0
 _ZN8QbsQmlJS3AST17DebuggerStatementD2Ev@Base 1.22.0
 _ZN8QbsQmlJS3AST17LabelledStatement7accept0EPNS0_7VisitorE@Base 1.22.0
 _ZN8QbsQmlJS3AST17LabelledStatementD0Ev@Base 1.22.0
 _ZN8QbsQmlJS3AST17LabelledStatementD1Ev@Base 1.22.0
 _ZN8QbsQmlJS3AST17LabelledStatementD2Ev@Base 1.22.0
 _ZN8QbsQmlJS3AST17LocalForStatement7accept0EPNS0_7VisitorE@Base 1.22.0
 _ZN8QbsQmlJS3AST17LocalForStatementD0Ev@Base 1.22.0
 _ZN8QbsQmlJS3AST17LocalForStatementD1Ev@Base 1.22.0
 _ZN8QbsQmlJS3AST17LocalForStatementD2Ev@Base 1.22.0
 _ZN8QbsQmlJS3AST17UiArrayMemberList7accept0EPNS0_7VisitorE@Base 1.22.0
 _ZN8QbsQmlJS3AST17UiArrayMemberListD0Ev@Base 1.22.0
 _ZN8QbsQmlJS3AST17UiArrayMemberListD1Ev@Base 1.22.0
 _ZN8QbsQmlJS3AST17UiArrayMemberListD2Ev@Base 1.22.0
 _ZN8QbsQmlJS3AST17VariableStatement7accept0EPNS0_7VisitorE@Base 1.22.0
 _ZN8QbsQmlJS3AST17VariableStatementD0Ev@Base 1.22.0
 _ZN8QbsQmlJS3AST17VariableStatementD1Ev@Base 1.22.0
 _ZN8QbsQmlJS3AST17VariableStatementD2Ev@Base 1.22.0
 _ZN8QbsQmlJS3AST18FunctionExpression7accept0EPNS0_7VisitorE@Base 1.22.0
 _ZN8QbsQmlJS3AST18FunctionExpressionD0Ev@Base 1.22.0
 _ZN8QbsQmlJS3AST18FunctionExpressionD1Ev@Base 1.22.0
 _ZN8QbsQmlJS3AST18FunctionExpressionD2Ev@Base 1.22.0
 _ZN8QbsQmlJS3AST18UiObjectDefinition7accept0EPNS0_7VisitorE@Base 1.22.0
 _ZN8QbsQmlJS3AST18UiObjectDefinitionD0Ev@Base 1.22.0
 _ZN8QbsQmlJS3AST18UiObjectDefinitionD1Ev@Base 1.22.0
 _ZN8QbsQmlJS3AST18UiObjectDefinitionD2Ev@Base 1.22.0
 _ZN8QbsQmlJS3AST18UiObjectMemberList7accept0EPNS0_7VisitorE@Base 1.22.0
 _ZN8QbsQmlJS3AST18UiObjectMemberListD0Ev@Base 1.22.0
 _ZN8QbsQmlJS3AST18UiObjectMemberListD1Ev@Base 1.22.0
 _ZN8QbsQmlJS3AST18UiObjectMemberListD2Ev@Base 1.22.0
 _ZN8QbsQmlJS3AST19ExpressionStatement7accept0EPNS0_7VisitorE@Base 1.22.0
 _ZN8QbsQmlJS3AST19ExpressionStatementD0Ev@Base 1.22.0
 _ZN8QbsQmlJS3AST19ExpressionStatementD1Ev@Base 1.22.0
 _ZN8QbsQmlJS3AST19ExpressionStatementD2Ev@Base 1.22.0
 _ZN8QbsQmlJS3AST19FormalParameterList7accept0EPNS0_7VisitorE@Base 1.22.0
 _ZN8QbsQmlJS3AST19FormalParameterListD0Ev@Base 1.22.0
 _ZN8QbsQmlJS3AST19FormalParameterListD1Ev@Base 1.22.0
 _ZN8QbsQmlJS3AST19FormalParameterListD2Ev@Base 1.22.0
 _ZN8QbsQmlJS3AST19FunctionDeclaration7accept0EPNS0_7VisitorE@Base 1.22.0
 _ZN8QbsQmlJS3AST19FunctionDeclarationD0Ev@Base 1.22.0
 _ZN8QbsQmlJS3AST19FunctionDeclarationD1Ev@Base 1.22.0
 _ZN8QbsQmlJS3AST19FunctionDeclarationD2Ev@Base 1.22.0
 _ZN8QbsQmlJS3AST19NewMemberExpression7accept0EPNS0_7VisitorE@Base 1.22.0
 _ZN8QbsQmlJS3AST19NewMemberExpressionD0Ev@Base 1.22.0
 _ZN8QbsQmlJS3AST19NewMemberExpressionD1Ev@Base 1.22.0
 _ZN8QbsQmlJS3AST19NewMemberExpressionD2Ev@Base 1.22.0
 _ZN8QbsQmlJS3AST19UiObjectInitializer7accept0EPNS0_7VisitorE@Base 1.22.0
 _ZN8QbsQmlJS3AST19UiObjectInitializerD0Ev@Base 1.22.0
 _ZN8QbsQmlJS3AST19UiObjectInitializerD1Ev@Base 1.22.0
 _ZN8QbsQmlJS3AST19UiObjectInitializerD2Ev@Base 1.22.0
 _ZN8QbsQmlJS3AST19UnaryPlusExpression7accept0EPNS0_7VisitorE@Base 1.22.0
 _ZN8QbsQmlJS3AST19UnaryPlusExpressionD0Ev@Base 1.22.0
 _ZN8QbsQmlJS3AST19UnaryPlusExpressionD1Ev@Base 1.22.0
 _ZN8QbsQmlJS3AST19UnaryPlusExpressionD2Ev@Base 1.22.0
 _ZN8QbsQmlJS3AST19VariableDeclaration7accept0EPNS0_7VisitorE@Base 1.22.0
 _ZN8QbsQmlJS3AST19VariableDeclarationD0Ev@Base 1.22.0
 _ZN8QbsQmlJS3AST19VariableDeclarationD1Ev@Base 1.22.0
 _ZN8QbsQmlJS3AST19VariableDeclarationD2Ev@Base 1.22.0
 _ZN8QbsQmlJS3AST20IdentifierExpression7accept0EPNS0_7VisitorE@Base 1.22.0
 _ZN8QbsQmlJS3AST20IdentifierExpressionD0Ev@Base 1.22.0
 _ZN8QbsQmlJS3AST20IdentifierExpressionD1Ev@Base 1.22.0
 _ZN8QbsQmlJS3AST20IdentifierExpressionD2Ev@Base 1.22.0
 _ZN8QbsQmlJS3AST20UnaryMinusExpression7accept0EPNS0_7VisitorE@Base 1.22.0
 _ZN8QbsQmlJS3AST20UnaryMinusExpressionD0Ev@Base 1.22.0
 _ZN8QbsQmlJS3AST20UnaryMinusExpressionD1Ev@Base 1.22.0
 _ZN8QbsQmlJS3AST20UnaryMinusExpressionD2Ev@Base 1.22.0
 _ZN8QbsQmlJS3AST21ArrayMemberExpression7accept0EPNS0_7VisitorE@Base 1.22.0
 _ZN8QbsQmlJS3AST21ArrayMemberExpressionD0Ev@Base 1.22.0
 _ZN8QbsQmlJS3AST21ArrayMemberExpressionD1Ev@Base 1.22.0
 _ZN8QbsQmlJS3AST21ArrayMemberExpressionD2Ev@Base 1.22.0
 _ZN8QbsQmlJS3AST21ConditionalExpression7accept0EPNS0_7VisitorE@Base 1.22.0
 _ZN8QbsQmlJS3AST21ConditionalExpressionD0Ev@Base 1.22.0
 _ZN8QbsQmlJS3AST21ConditionalExpressionD1Ev@Base 1.22.0
 _ZN8QbsQmlJS3AST21ConditionalExpressionD2Ev@Base 1.22.0
 _ZN8QbsQmlJS3AST21FieldMemberExpression7accept0EPNS0_7VisitorE@Base 1.22.0
 _ZN8QbsQmlJS3AST21FieldMemberExpressionD0Ev@Base 1.22.0
 _ZN8QbsQmlJS3AST21FieldMemberExpressionD1Ev@Base 1.22.0
 _ZN8QbsQmlJS3AST21FieldMemberExpressionD2Ev@Base 1.22.0
 _ZN8QbsQmlJS3AST21FunctionSourceElement7accept0EPNS0_7VisitorE@Base 1.22.0
 _ZN8QbsQmlJS3AST21FunctionSourceElementD0Ev@Base 1.22.0
 _ZN8QbsQmlJS3AST21FunctionSourceElementD1Ev@Base 1.22.0
 _ZN8QbsQmlJS3AST21FunctionSourceElementD2Ev@Base 1.22.0
 _ZN8QbsQmlJS3AST21LocalForEachStatement7accept0EPNS0_7VisitorE@Base 1.22.0
 _ZN8QbsQmlJS3AST21LocalForEachStatementD0Ev@Base 1.22.0
 _ZN8QbsQmlJS3AST21LocalForEachStatementD1Ev@Base 1.22.0
 _ZN8QbsQmlJS3AST21LocalForEachStatementD2Ev@Base 1.22.0
 _ZN8QbsQmlJS3AST22IdentifierPropertyName7accept0EPNS0_7VisitorE@Base 1.22.0
 _ZN8QbsQmlJS3AST22IdentifierPropertyNameD0Ev@Base 1.22.0
 _ZN8QbsQmlJS3AST22IdentifierPropertyNameD1Ev@Base 1.22.0
 _ZN8QbsQmlJS3AST22IdentifierPropertyNameD2Ev@Base 1.22.0
 _ZN8QbsQmlJS3AST22PreDecrementExpression7accept0EPNS0_7VisitorE@Base 1.22.0
 _ZN8QbsQmlJS3AST22PreDecrementExpressionD0Ev@Base 1.22.0
 _ZN8QbsQmlJS3AST22PreDecrementExpressionD1Ev@Base 1.22.0
 _ZN8QbsQmlJS3AST22PreDecrementExpressionD2Ev@Base 1.22.0
 _ZN8QbsQmlJS3AST22PreIncrementExpression7accept0EPNS0_7VisitorE@Base 1.22.0
 _ZN8QbsQmlJS3AST22PreIncrementExpressionD0Ev@Base 1.22.0
 _ZN8QbsQmlJS3AST22PreIncrementExpressionD1Ev@Base 1.22.0
 _ZN8QbsQmlJS3AST22PreIncrementExpressionD2Ev@Base 1.22.0
 _ZN8QbsQmlJS3AST22StatementSourceElement7accept0EPNS0_7VisitorE@Base 1.22.0
 _ZN8QbsQmlJS3AST22StatementSourceElementD0Ev@Base 1.22.0
 _ZN8QbsQmlJS3AST22StatementSourceElementD1Ev@Base 1.22.0
 _ZN8QbsQmlJS3AST22StatementSourceElementD2Ev@Base 1.22.0
 _ZN8QbsQmlJS3AST23PostDecrementExpression7accept0EPNS0_7VisitorE@Base 1.22.0
 _ZN8QbsQmlJS3AST23PostDecrementExpressionD0Ev@Base 1.22.0
 _ZN8QbsQmlJS3AST23PostDecrementExpressionD1Ev@Base 1.22.0
 _ZN8QbsQmlJS3AST23PostDecrementExpressionD2Ev@Base 1.22.0
 _ZN8QbsQmlJS3AST23PostIncrementExpression7accept0EPNS0_7VisitorE@Base 1.22.0
 _ZN8QbsQmlJS3AST23PostIncrementExpressionD0Ev@Base 1.22.0
 _ZN8QbsQmlJS3AST23PostIncrementExpressionD1Ev@Base 1.22.0
 _ZN8QbsQmlJS3AST23PostIncrementExpressionD2Ev@Base 1.22.0
 _ZN8QbsQmlJS3AST23VariableDeclarationList7accept0EPNS0_7VisitorE@Base 1.22.0
 _ZN8QbsQmlJS3AST23VariableDeclarationListD0Ev@Base 1.22.0
 _ZN8QbsQmlJS3AST23VariableDeclarationListD1Ev@Base 1.22.0
 _ZN8QbsQmlJS3AST23VariableDeclarationListD2Ev@Base 1.22.0
 _ZN8QbsQmlJS3AST24PropertyNameAndValueList7accept0EPNS0_7VisitorE@Base 1.22.0
 _ZN8QbsQmlJS3AST24PropertyNameAndValueListD0Ev@Base 1.22.0
 _ZN8QbsQmlJS3AST24PropertyNameAndValueListD1Ev@Base 1.22.0
 _ZN8QbsQmlJS3AST24PropertyNameAndValueListD2Ev@Base 1.22.0
 _ZN8QbsQmlJS3AST25StringLiteralPropertyName7accept0EPNS0_7VisitorE@Base 1.22.0
 _ZN8QbsQmlJS3AST25StringLiteralPropertyNameD0Ev@Base 1.22.0
 _ZN8QbsQmlJS3AST25StringLiteralPropertyNameD1Ev@Base 1.22.0
 _ZN8QbsQmlJS3AST25StringLiteralPropertyNameD2Ev@Base 1.22.0
 _ZN8QbsQmlJS3AST26NumericLiteralPropertyName7accept0EPNS0_7VisitorE@Base 1.22.0
 _ZN8QbsQmlJS3AST26NumericLiteralPropertyNameD0Ev@Base 1.22.0
 _ZN8QbsQmlJS3AST26NumericLiteralPropertyNameD1Ev@Base 1.22.0
 _ZN8QbsQmlJS3AST26NumericLiteralPropertyNameD2Ev@Base 1.22.0
 _ZN8QbsQmlJS3AST4Node13statementCastEv@Base 1.22.0
 _ZN8QbsQmlJS3AST4Node14expressionCastEv@Base 1.22.0
 _ZN8QbsQmlJS3AST4Node18uiObjectMemberCastEv@Base 1.22.0
 _ZN8QbsQmlJS3AST4Node20binaryExpressionCastEv@Base 1.22.0
 _ZN8QbsQmlJS3AST4Node6acceptEPNS0_7VisitorE@Base 1.22.0
 _ZN8QbsQmlJS3AST4Node6acceptEPS1_PNS0_7VisitorE@Base 1.22.0
 _ZN8QbsQmlJS3AST5Block7accept0EPNS0_7VisitorE@Base 1.22.0
 _ZN8QbsQmlJS3AST5BlockD0Ev@Base 1.22.0
 _ZN8QbsQmlJS3AST5BlockD1Ev@Base 1.22.0
 _ZN8QbsQmlJS3AST5BlockD2Ev@Base 1.22.0
 _ZN8QbsQmlJS3AST5Catch7accept0EPNS0_7VisitorE@Base 1.22.0
 _ZN8QbsQmlJS3AST5CatchD0Ev@Base 1.22.0
 _ZN8QbsQmlJS3AST5CatchD1Ev@Base 1.22.0
 _ZN8QbsQmlJS3AST5CatchD2Ev@Base 1.22.0
 _ZN8QbsQmlJS3AST7Elision7accept0EPNS0_7VisitorE@Base 1.22.0
 _ZN8QbsQmlJS3AST7ElisionD0Ev@Base 1.22.0
 _ZN8QbsQmlJS3AST7ElisionD1Ev@Base 1.22.0
 _ZN8QbsQmlJS3AST7ElisionD2Ev@Base 1.22.0
 _ZN8QbsQmlJS3AST7Finally7accept0EPNS0_7VisitorE@Base 1.22.0
 _ZN8QbsQmlJS3AST7FinallyD0Ev@Base 1.22.0
 _ZN8QbsQmlJS3AST7FinallyD1Ev@Base 1.22.0
 _ZN8QbsQmlJS3AST7FinallyD2Ev@Base 1.22.0
 _ZN8QbsQmlJS3AST7Program7accept0EPNS0_7VisitorE@Base 1.22.0
 _ZN8QbsQmlJS3AST7ProgramD0Ev@Base 1.22.0
 _ZN8QbsQmlJS3AST7ProgramD1Ev@Base 1.22.0
 _ZN8QbsQmlJS3AST7ProgramD2Ev@Base 1.22.0
 _ZN8QbsQmlJS3AST7Visitor5visitEPNS0_10CaseClauseE@Base 1.22.0
 _ZN8QbsQmlJS3AST7Visitor5visitEPNS0_10ExpressionE@Base 1.22.0
 _ZN8QbsQmlJS3AST7Visitor5visitEPNS0_11CaseClausesE@Base 1.22.0
 _ZN8QbsQmlJS3AST7Visitor5visitEPNS0_11ElementListE@Base 1.22.0
 _ZN8QbsQmlJS3AST7Visitor5visitEPNS0_11IfStatementE@Base 1.22.0
 _ZN8QbsQmlJS3AST7Visitor5visitEPNS0_11TrueLiteralE@Base 1.22.0
 _ZN8QbsQmlJS3AST7Visitor5visitEPNS0_12ArgumentListE@Base 1.22.0
 _ZN8QbsQmlJS3AST7Visitor5visitEPNS0_12ArrayLiteralE@Base 1.22.0
 _ZN8QbsQmlJS3AST7Visitor5visitEPNS0_12FalseLiteralE@Base 1.22.0
 _ZN8QbsQmlJS3AST7Visitor5visitEPNS0_12ForStatementE@Base 1.22.0
 _ZN8QbsQmlJS3AST7Visitor5visitEPNS0_12FunctionBodyE@Base 1.22.0
 _ZN8QbsQmlJS3AST7Visitor5visitEPNS0_12TryStatementE@Base 1.22.0
 _ZN8QbsQmlJS3AST7Visitor5visitEPNS0_12UiImportListE@Base 1.22.0
 _ZN8QbsQmlJS3AST7Visitor5visitEPNS0_13DefaultClauseE@Base 1.22.0
 _ZN8QbsQmlJS3AST7Visitor5visitEPNS0_13NewExpressionE@Base 1.22.0
 _ZN8QbsQmlJS3AST7Visitor5visitEPNS0_13NotExpressionE@Base 1.22.0
 _ZN8QbsQmlJS3AST7Visitor5visitEPNS0_13ObjectLiteralE@Base 1.22.0
 _ZN8QbsQmlJS3AST7Visitor5visitEPNS0_13RegExpLiteralE@Base 1.22.0
 _ZN8QbsQmlJS3AST7Visitor5visitEPNS0_13StatementListE@Base 1.22.0
 _ZN8QbsQmlJS3AST7Visitor5visitEPNS0_13StringLiteralE@Base 1.22.0
 _ZN8QbsQmlJS3AST7Visitor5visitEPNS0_13UiQualifiedIdE@Base 1.22.0
 _ZN8QbsQmlJS3AST7Visitor5visitEPNS0_13WithStatementE@Base 1.22.0
 _ZN8QbsQmlJS3AST7Visitor5visitEPNS0_14BreakStatementE@Base 1.22.0
 _ZN8QbsQmlJS3AST7Visitor5visitEPNS0_14CallExpressionE@Base 1.22.0
 _ZN8QbsQmlJS3AST7Visitor5visitEPNS0_14EmptyStatementE@Base 1.22.0
 _ZN8QbsQmlJS3AST7Visitor5visitEPNS0_14NullExpressionE@Base 1.22.0
 _ZN8QbsQmlJS3AST7Visitor5visitEPNS0_14NumericLiteralE@Base 1.22.0
 _ZN8QbsQmlJS3AST7Visitor5visitEPNS0_14SourceElementsE@Base 1.22.0
 _ZN8QbsQmlJS3AST7Visitor5visitEPNS0_14ThisExpressionE@Base 1.22.0
 _ZN8QbsQmlJS3AST7Visitor5visitEPNS0_14ThrowStatementE@Base 1.22.0
 _ZN8QbsQmlJS3AST7Visitor5visitEPNS0_14UiArrayBindingE@Base 1.22.0
 _ZN8QbsQmlJS3AST7Visitor5visitEPNS0_14UiPublicMemberE@Base 1.22.0
 _ZN8QbsQmlJS3AST7Visitor5visitEPNS0_14VoidExpressionE@Base 1.22.0
 _ZN8QbsQmlJS3AST7Visitor5visitEPNS0_14WhileStatementE@Base 1.22.0
 _ZN8QbsQmlJS3AST7Visitor5visitEPNS0_15ReturnStatementE@Base 1.22.0
 _ZN8QbsQmlJS3AST7Visitor5visitEPNS0_15SwitchStatementE@Base 1.22.0
 _ZN8QbsQmlJS3AST7Visitor5visitEPNS0_15TildeExpressionE@Base 1.22.0
 _ZN8QbsQmlJS3AST7Visitor5visitEPNS0_15UiObjectBindingE@Base 1.22.0
 _ZN8QbsQmlJS3AST7Visitor5visitEPNS0_15UiScriptBindingE@Base 1.22.0
 _ZN8QbsQmlJS3AST7Visitor5visitEPNS0_15UiSourceElementE@Base 1.22.0
 _ZN8QbsQmlJS3AST7Visitor5visitEPNS0_16BinaryExpressionE@Base 1.22.0
 _ZN8QbsQmlJS3AST7Visitor5visitEPNS0_16DeleteExpressionE@Base 1.22.0
 _ZN8QbsQmlJS3AST7Visitor5visitEPNS0_16DoWhileStatementE@Base 1.22.0
 _ZN8QbsQmlJS3AST7Visitor5visitEPNS0_16ForEachStatementE@Base 1.22.0
 _ZN8QbsQmlJS3AST7Visitor5visitEPNS0_16NestedExpressionE@Base 1.22.0
 _ZN8QbsQmlJS3AST7Visitor5visitEPNS0_16TypeOfExpressionE@Base 1.22.0
 _ZN8QbsQmlJS3AST7Visitor5visitEPNS0_17ContinueStatementE@Base 1.22.0
 _ZN8QbsQmlJS3AST7Visitor5visitEPNS0_17DebuggerStatementE@Base 1.22.0
 _ZN8QbsQmlJS3AST7Visitor5visitEPNS0_17LabelledStatementE@Base 1.22.0
 _ZN8QbsQmlJS3AST7Visitor5visitEPNS0_17LocalForStatementE@Base 1.22.0
 _ZN8QbsQmlJS3AST7Visitor5visitEPNS0_17UiArrayMemberListE@Base 1.22.0
 _ZN8QbsQmlJS3AST7Visitor5visitEPNS0_17VariableStatementE@Base 1.22.0
 _ZN8QbsQmlJS3AST7Visitor5visitEPNS0_18FunctionExpressionE@Base 1.22.0
 _ZN8QbsQmlJS3AST7Visitor5visitEPNS0_18UiObjectDefinitionE@Base 1.22.0
 _ZN8QbsQmlJS3AST7Visitor5visitEPNS0_18UiObjectMemberListE@Base 1.22.0
 _ZN8QbsQmlJS3AST7Visitor5visitEPNS0_19ExpressionStatementE@Base 1.22.0
 _ZN8QbsQmlJS3AST7Visitor5visitEPNS0_19FormalParameterListE@Base 1.22.0
 _ZN8QbsQmlJS3AST7Visitor5visitEPNS0_19FunctionDeclarationE@Base 1.22.0
 _ZN8QbsQmlJS3AST7Visitor5visitEPNS0_19NewMemberExpressionE@Base 1.22.0
 _ZN8QbsQmlJS3AST7Visitor5visitEPNS0_19UiObjectInitializerE@Base 1.22.0
 _ZN8QbsQmlJS3AST7Visitor5visitEPNS0_19UnaryPlusExpressionE@Base 1.22.0
 _ZN8QbsQmlJS3AST7Visitor5visitEPNS0_19VariableDeclarationE@Base 1.22.0
 _ZN8QbsQmlJS3AST7Visitor5visitEPNS0_20IdentifierExpressionE@Base 1.22.0
 _ZN8QbsQmlJS3AST7Visitor5visitEPNS0_20UnaryMinusExpressionE@Base 1.22.0
 _ZN8QbsQmlJS3AST7Visitor5visitEPNS0_21ArrayMemberExpressionE@Base 1.22.0
 _ZN8QbsQmlJS3AST7Visitor5visitEPNS0_21ConditionalExpressionE@Base 1.22.0
 _ZN8QbsQmlJS3AST7Visitor5visitEPNS0_21FieldMemberExpressionE@Base 1.22.0
 _ZN8QbsQmlJS3AST7Visitor5visitEPNS0_21FunctionSourceElementE@Base 1.22.0
 _ZN8QbsQmlJS3AST7Visitor5visitEPNS0_21LocalForEachStatementE@Base 1.22.0
 _ZN8QbsQmlJS3AST7Visitor5visitEPNS0_22IdentifierPropertyNameE@Base 1.22.0
 _ZN8QbsQmlJS3AST7Visitor5visitEPNS0_22PreDecrementExpressionE@Base 1.22.0
 _ZN8QbsQmlJS3AST7Visitor5visitEPNS0_22PreIncrementExpressionE@Base 1.22.0
 _ZN8QbsQmlJS3AST7Visitor5visitEPNS0_22StatementSourceElementE@Base 1.22.0
 _ZN8QbsQmlJS3AST7Visitor5visitEPNS0_23PostDecrementExpressionE@Base 1.22.0
 _ZN8QbsQmlJS3AST7Visitor5visitEPNS0_23PostIncrementExpressionE@Base 1.22.0
 _ZN8QbsQmlJS3AST7Visitor5visitEPNS0_23VariableDeclarationListE@Base 1.22.0
 _ZN8QbsQmlJS3AST7Visitor5visitEPNS0_24PropertyNameAndValueListE@Base 1.22.0
 _ZN8QbsQmlJS3AST7Visitor5visitEPNS0_25StringLiteralPropertyNameE@Base 1.22.0
 _ZN8QbsQmlJS3AST7Visitor5visitEPNS0_26NumericLiteralPropertyNameE@Base 1.22.0
 _ZN8QbsQmlJS3AST7Visitor5visitEPNS0_5BlockE@Base 1.22.0
 _ZN8QbsQmlJS3AST7Visitor5visitEPNS0_5CatchE@Base 1.22.0
 _ZN8QbsQmlJS3AST7Visitor5visitEPNS0_7ElisionE@Base 1.22.0
 _ZN8QbsQmlJS3AST7Visitor5visitEPNS0_7FinallyE@Base 1.22.0
 _ZN8QbsQmlJS3AST7Visitor5visitEPNS0_7ProgramE@Base 1.22.0
 _ZN8QbsQmlJS3AST7Visitor5visitEPNS0_8UiImportE@Base 1.22.0
 _ZN8QbsQmlJS3AST7Visitor5visitEPNS0_9CaseBlockE@Base 1.22.0
 _ZN8QbsQmlJS3AST7Visitor5visitEPNS0_9UiProgramE@Base 1.22.0
 _ZN8QbsQmlJS3AST7Visitor8endVisitEPNS0_10CaseClauseE@Base 1.22.0
 _ZN8QbsQmlJS3AST7Visitor8endVisitEPNS0_10ExpressionE@Base 1.22.0
 _ZN8QbsQmlJS3AST7Visitor8endVisitEPNS0_11CaseClausesE@Base 1.22.0
 _ZN8QbsQmlJS3AST7Visitor8endVisitEPNS0_11ElementListE@Base 1.22.0
 _ZN8QbsQmlJS3AST7Visitor8endVisitEPNS0_11IfStatementE@Base 1.22.0
 _ZN8QbsQmlJS3AST7Visitor8endVisitEPNS0_11TrueLiteralE@Base 1.22.0
 _ZN8QbsQmlJS3AST7Visitor8endVisitEPNS0_12ArgumentListE@Base 1.22.0
 _ZN8QbsQmlJS3AST7Visitor8endVisitEPNS0_12ArrayLiteralE@Base 1.22.0
 _ZN8QbsQmlJS3AST7Visitor8endVisitEPNS0_12FalseLiteralE@Base 1.22.0
 _ZN8QbsQmlJS3AST7Visitor8endVisitEPNS0_12ForStatementE@Base 1.22.0
 _ZN8QbsQmlJS3AST7Visitor8endVisitEPNS0_12FunctionBodyE@Base 1.22.0
 _ZN8QbsQmlJS3AST7Visitor8endVisitEPNS0_12TryStatementE@Base 1.22.0
 _ZN8QbsQmlJS3AST7Visitor8endVisitEPNS0_12UiImportListE@Base 1.22.0
 _ZN8QbsQmlJS3AST7Visitor8endVisitEPNS0_13DefaultClauseE@Base 1.22.0
 _ZN8QbsQmlJS3AST7Visitor8endVisitEPNS0_13NewExpressionE@Base 1.22.0
 _ZN8QbsQmlJS3AST7Visitor8endVisitEPNS0_13NotExpressionE@Base 1.22.0
 _ZN8QbsQmlJS3AST7Visitor8endVisitEPNS0_13ObjectLiteralE@Base 1.22.0
 _ZN8QbsQmlJS3AST7Visitor8endVisitEPNS0_13RegExpLiteralE@Base 1.22.0
 _ZN8QbsQmlJS3AST7Visitor8endVisitEPNS0_13StatementListE@Base 1.22.0
 _ZN8QbsQmlJS3AST7Visitor8endVisitEPNS0_13StringLiteralE@Base 1.22.0
 _ZN8QbsQmlJS3AST7Visitor8endVisitEPNS0_13UiQualifiedIdE@Base 1.22.0
 _ZN8QbsQmlJS3AST7Visitor8endVisitEPNS0_13WithStatementE@Base 1.22.0
 _ZN8QbsQmlJS3AST7Visitor8endVisitEPNS0_14BreakStatementE@Base 1.22.0
 _ZN8QbsQmlJS3AST7Visitor8endVisitEPNS0_14CallExpressionE@Base 1.22.0
 _ZN8QbsQmlJS3AST7Visitor8endVisitEPNS0_14EmptyStatementE@Base 1.22.0
 _ZN8QbsQmlJS3AST7Visitor8endVisitEPNS0_14NullExpressionE@Base 1.22.0
 _ZN8QbsQmlJS3AST7Visitor8endVisitEPNS0_14NumericLiteralE@Base 1.22.0
 _ZN8QbsQmlJS3AST7Visitor8endVisitEPNS0_14SourceElementsE@Base 1.22.0
 _ZN8QbsQmlJS3AST7Visitor8endVisitEPNS0_14ThisExpressionE@Base 1.22.0
 _ZN8QbsQmlJS3AST7Visitor8endVisitEPNS0_14ThrowStatementE@Base 1.22.0
 _ZN8QbsQmlJS3AST7Visitor8endVisitEPNS0_14UiArrayBindingE@Base 1.22.0
 _ZN8QbsQmlJS3AST7Visitor8endVisitEPNS0_14UiPublicMemberE@Base 1.22.0
 _ZN8QbsQmlJS3AST7Visitor8endVisitEPNS0_14VoidExpressionE@Base 1.22.0
 _ZN8QbsQmlJS3AST7Visitor8endVisitEPNS0_14WhileStatementE@Base 1.22.0
 _ZN8QbsQmlJS3AST7Visitor8endVisitEPNS0_15ReturnStatementE@Base 1.22.0
 _ZN8QbsQmlJS3AST7Visitor8endVisitEPNS0_15SwitchStatementE@Base 1.22.0
 _ZN8QbsQmlJS3AST7Visitor8endVisitEPNS0_15TildeExpressionE@Base 1.22.0
 _ZN8QbsQmlJS3AST7Visitor8endVisitEPNS0_15UiObjectBindingE@Base 1.22.0
 _ZN8QbsQmlJS3AST7Visitor8endVisitEPNS0_15UiScriptBindingE@Base 1.22.0
 _ZN8QbsQmlJS3AST7Visitor8endVisitEPNS0_15UiSourceElementE@Base 1.22.0
 _ZN8QbsQmlJS3AST7Visitor8endVisitEPNS0_16BinaryExpressionE@Base 1.22.0
 _ZN8QbsQmlJS3AST7Visitor8endVisitEPNS0_16DeleteExpressionE@Base 1.22.0
 _ZN8QbsQmlJS3AST7Visitor8endVisitEPNS0_16DoWhileStatementE@Base 1.22.0
 _ZN8QbsQmlJS3AST7Visitor8endVisitEPNS0_16ForEachStatementE@Base 1.22.0
 _ZN8QbsQmlJS3AST7Visitor8endVisitEPNS0_16NestedExpressionE@Base 1.22.0
 _ZN8QbsQmlJS3AST7Visitor8endVisitEPNS0_16TypeOfExpressionE@Base 1.22.0
 _ZN8QbsQmlJS3AST7Visitor8endVisitEPNS0_17ContinueStatementE@Base 1.22.0
 _ZN8QbsQmlJS3AST7Visitor8endVisitEPNS0_17DebuggerStatementE@Base 1.22.0
 _ZN8QbsQmlJS3AST7Visitor8endVisitEPNS0_17LabelledStatementE@Base 1.22.0
 _ZN8QbsQmlJS3AST7Visitor8endVisitEPNS0_17LocalForStatementE@Base 1.22.0
 _ZN8QbsQmlJS3AST7Visitor8endVisitEPNS0_17UiArrayMemberListE@Base 1.22.0
 _ZN8QbsQmlJS3AST7Visitor8endVisitEPNS0_17VariableStatementE@Base 1.22.0
 _ZN8QbsQmlJS3AST7Visitor8endVisitEPNS0_18FunctionExpressionE@Base 1.22.0
 _ZN8QbsQmlJS3AST7Visitor8endVisitEPNS0_18UiObjectDefinitionE@Base 1.22.0
 _ZN8QbsQmlJS3AST7Visitor8endVisitEPNS0_18UiObjectMemberListE@Base 1.22.0
 _ZN8QbsQmlJS3AST7Visitor8endVisitEPNS0_19ExpressionStatementE@Base 1.22.0
 _ZN8QbsQmlJS3AST7Visitor8endVisitEPNS0_19FormalParameterListE@Base 1.22.0
 _ZN8QbsQmlJS3AST7Visitor8endVisitEPNS0_19FunctionDeclarationE@Base 1.22.0
 _ZN8QbsQmlJS3AST7Visitor8endVisitEPNS0_19NewMemberExpressionE@Base 1.22.0
 _ZN8QbsQmlJS3AST7Visitor8endVisitEPNS0_19UiObjectInitializerE@Base 1.22.0
 _ZN8QbsQmlJS3AST7Visitor8endVisitEPNS0_19UnaryPlusExpressionE@Base 1.22.0
 _ZN8QbsQmlJS3AST7Visitor8endVisitEPNS0_19VariableDeclarationE@Base 1.22.0
 _ZN8QbsQmlJS3AST7Visitor8endVisitEPNS0_20IdentifierExpressionE@Base 1.22.0
 _ZN8QbsQmlJS3AST7Visitor8endVisitEPNS0_20UnaryMinusExpressionE@Base 1.22.0
 _ZN8QbsQmlJS3AST7Visitor8endVisitEPNS0_21ArrayMemberExpressionE@Base 1.22.0
 _ZN8QbsQmlJS3AST7Visitor8endVisitEPNS0_21ConditionalExpressionE@Base 1.22.0
 _ZN8QbsQmlJS3AST7Visitor8endVisitEPNS0_21FieldMemberExpressionE@Base 1.22.0
 _ZN8QbsQmlJS3AST7Visitor8endVisitEPNS0_21FunctionSourceElementE@Base 1.22.0
 _ZN8QbsQmlJS3AST7Visitor8endVisitEPNS0_21LocalForEachStatementE@Base 1.22.0
 _ZN8QbsQmlJS3AST7Visitor8endVisitEPNS0_22IdentifierPropertyNameE@Base 1.22.0
 _ZN8QbsQmlJS3AST7Visitor8endVisitEPNS0_22PreDecrementExpressionE@Base 1.22.0
 _ZN8QbsQmlJS3AST7Visitor8endVisitEPNS0_22PreIncrementExpressionE@Base 1.22.0
 _ZN8QbsQmlJS3AST7Visitor8endVisitEPNS0_22StatementSourceElementE@Base 1.22.0
 _ZN8QbsQmlJS3AST7Visitor8endVisitEPNS0_23PostDecrementExpressionE@Base 1.22.0
 _ZN8QbsQmlJS3AST7Visitor8endVisitEPNS0_23PostIncrementExpressionE@Base 1.22.0
 _ZN8QbsQmlJS3AST7Visitor8endVisitEPNS0_23VariableDeclarationListE@Base 1.22.0
 _ZN8QbsQmlJS3AST7Visitor8endVisitEPNS0_24PropertyNameAndValueListE@Base 1.22.0
 _ZN8QbsQmlJS3AST7Visitor8endVisitEPNS0_25StringLiteralPropertyNameE@Base 1.22.0
 _ZN8QbsQmlJS3AST7Visitor8endVisitEPNS0_26NumericLiteralPropertyNameE@Base 1.22.0
 _ZN8QbsQmlJS3AST7Visitor8endVisitEPNS0_5BlockE@Base 1.22.0
 _ZN8QbsQmlJS3AST7Visitor8endVisitEPNS0_5CatchE@Base 1.22.0
 _ZN8QbsQmlJS3AST7Visitor8endVisitEPNS0_7ElisionE@Base 1.22.0
 _ZN8QbsQmlJS3AST7Visitor8endVisitEPNS0_7FinallyE@Base 1.22.0
 _ZN8QbsQmlJS3AST7Visitor8endVisitEPNS0_7ProgramE@Base 1.22.0
 _ZN8QbsQmlJS3AST7Visitor8endVisitEPNS0_8UiImportE@Base 1.22.0
 _ZN8QbsQmlJS3AST7Visitor8endVisitEPNS0_9CaseBlockE@Base 1.22.0
 _ZN8QbsQmlJS3AST7Visitor8endVisitEPNS0_9UiProgramE@Base 1.22.0
 _ZN8QbsQmlJS3AST7Visitor8preVisitEPNS0_4NodeE@Base 1.22.0
 _ZN8QbsQmlJS3AST7Visitor9postVisitEPNS0_4NodeE@Base 1.22.0
 _ZN8QbsQmlJS3AST7VisitorC1Ev@Base 1.10.0
 _ZN8QbsQmlJS3AST7VisitorC2Ev@Base 1.10.0
 _ZN8QbsQmlJS3AST7VisitorD0Ev@Base 1.10.0
 _ZN8QbsQmlJS3AST7VisitorD1Ev@Base 1.10.0
 _ZN8QbsQmlJS3AST7VisitorD2Ev@Base 1.10.0
 _ZN8QbsQmlJS3AST8UiImport7accept0EPNS0_7VisitorE@Base 1.22.0
 _ZN8QbsQmlJS3AST8UiImportD0Ev@Base 1.22.0
 _ZN8QbsQmlJS3AST8UiImportD1Ev@Base 1.22.0
 _ZN8QbsQmlJS3AST8UiImportD2Ev@Base 1.22.0
 _ZN8QbsQmlJS3AST9CaseBlock7accept0EPNS0_7VisitorE@Base 1.22.0
 _ZN8QbsQmlJS3AST9CaseBlockD0Ev@Base 1.22.0
 _ZN8QbsQmlJS3AST9CaseBlockD1Ev@Base 1.22.0
 _ZN8QbsQmlJS3AST9CaseBlockD2Ev@Base 1.22.0
 _ZN8QbsQmlJS3AST9Statement13statementCastEv@Base 1.22.0
 _ZN8QbsQmlJS3AST9UiProgram7accept0EPNS0_7VisitorE@Base 1.22.0
 _ZN8QbsQmlJS3AST9UiProgramD0Ev@Base 1.22.0
 _ZN8QbsQmlJS3AST9UiProgramD1Ev@Base 1.22.0
 _ZN8QbsQmlJS3AST9UiProgramD2Ev@Base 1.22.0
 _ZN8QbsQmlJS5Lexer10isHexDigitE5QChar@Base 1.10.0
 _ZN8QbsQmlJS5Lexer10scanNumberE5QChar@Base 1.10.0
 _ZN8QbsQmlJS5Lexer10scanRegExpENS0_16RegExpBodyPrefixE@Base 1.10.0
 _ZN8QbsQmlJS5Lexer12isOctalDigitEt@Base 1.10.0
 _ZN8QbsQmlJS5Lexer13isIdentLetterE5QChar@Base 1.10.0
 _ZN8QbsQmlJS5Lexer14isDecimalDigitEt@Base 1.10.0
 _ZN8QbsQmlJS5Lexer14scanDirectivesEPNS_10DirectivesE@Base 1.10.0
 _ZN8QbsQmlJS5Lexer23isUnicodeEscapeSequenceEPK5QChar@Base 1.10.0
 _ZN8QbsQmlJS5Lexer28decodeUnicodeEscapeCharacterEPb@Base 1.10.0
 _ZN8QbsQmlJS5Lexer30syncProhibitAutomaticSemicolonEv@Base 1.10.0
 _ZN8QbsQmlJS5Lexer3lexEv@Base 1.10.0
 _ZN8QbsQmlJS5Lexer7setCodeERK7QStringib@Base 1.10.0
 _ZN8QbsQmlJS5Lexer8classifyEPK5QCharib@Base 1.10.0
 (optional=inline)_ZN8QbsQmlJS5Lexer8scanCharEv@Base 1.22.0
 _ZN8QbsQmlJS5Lexer9scanTokenEv@Base 1.10.0
 _ZN8QbsQmlJS5LexerC1EPNS_6EngineE@Base 1.10.0
 _ZN8QbsQmlJS5LexerC2EPNS_6EngineE@Base 1.10.0
 _ZN8QbsQmlJS5LexerD1Ev@Base 1.22.0
 _ZN8QbsQmlJS5LexerD2Ev@Base 1.22.0
 _ZN8QbsQmlJS6Engine10addCommentEiiii@Base 1.10.0
 _ZN8QbsQmlJS6Engine12newStringRefEPK5QChari@Base 1.10.0
 _ZN8QbsQmlJS6Engine12newStringRefERK7QString@Base 1.10.0
 _ZN8QbsQmlJS6Engine13setDirectivesEPNS_10DirectivesE@Base 1.10.0
 _ZN8QbsQmlJS6Engine4poolEv@Base 1.10.0
 _ZN8QbsQmlJS6Engine7setCodeERK7QString@Base 1.10.0
 _ZN8QbsQmlJS6Engine8setLexerEPNS_5LexerE@Base 1.10.0
 _ZN8QbsQmlJS6EngineC1Ev@Base 1.10.0
 _ZN8QbsQmlJS6EngineC2Ev@Base 1.10.0
 _ZN8QbsQmlJS6EngineD1Ev@Base 1.10.0
 _ZN8QbsQmlJS6EngineD2Ev@Base 1.10.0
 _ZN8QbsQmlJS6Parser15reallocateStackEv@Base 1.10.0
 _ZN8QbsQmlJS6Parser20reparseAsQualifiedIdEPNS_3AST14ExpressionNodeE@Base 1.10.0
 _ZN8QbsQmlJS6Parser5parseEi@Base 1.10.0
 _ZN8QbsQmlJS6ParserC1EPNS_6EngineE@Base 1.10.0
 _ZN8QbsQmlJS6ParserC2EPNS_6EngineE@Base 1.10.0
 _ZN8QbsQmlJS6ParserD1Ev@Base 1.10.0
 _ZN8QbsQmlJS6ParserD2Ev@Base 1.10.0
 _ZN8QbsQmlJS8QmlError14setDescriptionERK7QString@Base 1.22.0
 _ZN8QbsQmlJS8QmlError6setUrlERK4QUrl@Base 1.22.0
 _ZN8QbsQmlJS8QmlError7setLineEi@Base 1.22.0
 _ZN8QbsQmlJS8QmlError9setColumnEi@Base 1.22.0
 _ZN8QbsQmlJS8QmlErrorC1ERKS0_@Base 1.22.0
 _ZN8QbsQmlJS8QmlErrorC1Ev@Base 1.22.0
 _ZN8QbsQmlJS8QmlErrorC2ERKS0_@Base 1.22.0
 _ZN8QbsQmlJS8QmlErrorC2Ev@Base 1.22.0
 _ZN8QbsQmlJS8QmlErrorD1Ev@Base 1.22.0
 _ZN8QbsQmlJS8QmlErrorD2Ev@Base 1.22.0
 _ZN8QbsQmlJS8QmlErroraSERKS0_@Base 1.22.0
 _ZN8QbsQmlJS8Rewriter10addBindingEPNS_3AST19UiObjectInitializerERK7QStringS6_NS0_11BindingTypeE@Base 1.22.0
 _ZN8QbsQmlJS8Rewriter10addBindingEPNS_3AST19UiObjectInitializerERK7QStringS6_NS0_11BindingTypeEPNS1_18UiObjectMemberListE@Base 1.22.0
 _ZN8QbsQmlJS8Rewriter12removeMemberEPNS_3AST14UiObjectMemberE@Base 1.22.0
 _ZN8QbsQmlJS8Rewriter13changeBindingEPNS_3AST19UiObjectInitializerERK7QStringS6_NS0_11BindingTypeE@Base 1.22.0
 _ZN8QbsQmlJS8Rewriter15insertIntoArrayEPNS_3AST14UiArrayBindingERK7QString@Base 1.22.0
 _ZN8QbsQmlJS8Rewriter18removeObjectMemberEPNS_3AST14UiObjectMemberES3_@Base 1.22.0
 _ZN8QbsQmlJS8Rewriter18replaceMemberValueEPNS_3AST14UiObjectMemberERK7QStringb@Base 1.22.0
 _ZN8QbsQmlJS8Rewriter19removeBindingByNameEPNS_3AST19UiObjectInitializerERK7QString@Base 1.22.0
 _ZN8QbsQmlJS8Rewriter20appendToArrayBindingEPNS_3AST14UiArrayBindingERK7QString@Base 1.22.0
 _ZN8QbsQmlJS8Rewriter20nextMemberOnSameLineEPNS_3AST18UiObjectMemberListE@Base 1.22.0
 _ZN8QbsQmlJS8Rewriter21removeGroupedPropertyEPNS_3AST18UiObjectDefinitionERK7QString@Base 1.22.0
 _ZN8QbsQmlJS8Rewriter23includeLeadingEmptyLineE11QStringViewRi@Base 1.22.0
 _ZN8QbsQmlJS8Rewriter24isMatchingPropertyMemberERK7QStringPNS_3AST14UiObjectMemberE@Base 1.22.0
 _ZN8QbsQmlJS8Rewriter25searchMemberToInsertAfterEPNS_3AST17UiArrayMemberListERK11QStringList@Base 1.22.0
 _ZN8QbsQmlJS8Rewriter25searchMemberToInsertAfterEPNS_3AST18UiObjectMemberListERK11QStringList@Base 1.22.0
 _ZN8QbsQmlJS8Rewriter25searchMemberToInsertAfterEPNS_3AST18UiObjectMemberListERK7QStringRK11QStringList@Base 1.22.0
 _ZN8QbsQmlJS8Rewriter27includeEmptyGroupedPropertyEPNS_3AST18UiObjectDefinitionEPNS1_14UiObjectMemberERiS6_@Base 1.22.0
 _ZN8QbsQmlJS8Rewriter28includeSurroundingWhitespaceERK7QStringRiS4_@Base 1.22.0
 _ZN8QbsQmlJS8Rewriter9addObjectEPNS_3AST14UiArrayBindingERK7QString@Base 1.22.0
 _ZN8QbsQmlJS8Rewriter9addObjectEPNS_3AST14UiArrayBindingERK7QStringPNS1_17UiArrayMemberListE@Base 1.22.0
 _ZN8QbsQmlJS8Rewriter9addObjectEPNS_3AST19UiObjectInitializerERK7QString@Base 1.22.0
 _ZN8QbsQmlJS8Rewriter9addObjectEPNS_3AST19UiObjectInitializerERK7QStringPNS1_18UiObjectMemberListE@Base 1.22.0
 _ZN8QbsQmlJS8RewriterC1E7QStringPNS_9ChangeSetE11QStringList@Base 1.22.0
 _ZN8QbsQmlJS8RewriterC2E7QStringPNS_9ChangeSetE11QStringList@Base 1.22.0
 _ZN8QbsQmlJS9ChangeSet10hasOverlapEii@Base 1.22.0
 _ZN8QbsQmlJS9ChangeSet11copy_helperEiii@Base 1.22.0
 _ZN8QbsQmlJS9ChangeSet11flip_helperEiiii@Base 1.22.0
 _ZN8QbsQmlJS9ChangeSet11move_helperEiii@Base 1.22.0
 _ZN8QbsQmlJS9ChangeSet12apply_helperEv@Base 1.22.0
 _ZN8QbsQmlJS9ChangeSet13remove_helperEii@Base 1.22.0
 _ZN8QbsQmlJS9ChangeSet14replace_helperEiiRK7QString@Base 1.22.0
 _ZN8QbsQmlJS9ChangeSet16convertToReplaceERKNS0_6EditOpEP5QListIS1_E@Base 1.22.0
 _ZN8QbsQmlJS9ChangeSet4copyERKNS0_5RangeEi@Base 1.22.0
 _ZN8QbsQmlJS9ChangeSet4copyEiii@Base 1.22.0
 _ZN8QbsQmlJS9ChangeSet4flipERKNS0_5RangeES3_@Base 1.22.0
 _ZN8QbsQmlJS9ChangeSet4flipEiiii@Base 1.22.0
 _ZN8QbsQmlJS9ChangeSet4moveERKNS0_5RangeEi@Base 1.22.0
 _ZN8QbsQmlJS9ChangeSet4moveEiii@Base 1.22.0
 _ZN8QbsQmlJS9ChangeSet5applyEP7QString@Base 1.22.0
 _ZN8QbsQmlJS9ChangeSet5clearEv@Base 1.22.0
 _ZN8QbsQmlJS9ChangeSet6insertEiRK7QString@Base 1.22.0
 _ZN8QbsQmlJS9ChangeSet6removeERKNS0_5RangeE@Base 1.22.0
 _ZN8QbsQmlJS9ChangeSet6removeEii@Base 1.22.0
 _ZN8QbsQmlJS9ChangeSet6textAtEii@Base 1.22.0
 _ZN8QbsQmlJS9ChangeSet7replaceERKNS0_5RangeERK7QString@Base 1.22.0
 _ZN8QbsQmlJS9ChangeSet7replaceEiiRK7QString@Base 1.22.0
 _ZN8QbsQmlJS9ChangeSet9doReplaceERKNS0_6EditOpEP5QListIS1_E@Base 1.22.0
 _ZN8QbsQmlJS9ChangeSet9hadErrorsEv@Base 1.22.0
 _ZN8QbsQmlJS9ChangeSetC1E5QListINS0_6EditOpEE@Base 1.22.0
 _ZN8QbsQmlJS9ChangeSetC1Ev@Base 1.22.0
 _ZN8QbsQmlJS9ChangeSetC2E5QListINS0_6EditOpEE@Base 1.22.0
 _ZN8QbsQmlJS9ChangeSetC2Ev@Base 1.22.0
 (optional=templinst)_ZN9QtPrivate11QSlotObjectIM10QEventLoopFvvENS_4ListIJEEEvE4implEiPNS_15QSlotObjectBaseEP7QObjectPPvPb@Base 1.22.0
 (optional=templinst)_ZN9QtPrivate11QSlotObjectIM6QTimerFvvENS_4ListIJEEEvE4implEiPNS_15QSlotObjectBaseEP7QObjectPPvPb@Base 1.22.0
 (optional=templinst)_ZN9QtPrivate11QSlotObjectIM7QThreadFvvENS_4ListIJEEEvE4implEiPNS_15QSlotObjectBaseEP7QObjectPPvPb@Base 1.22.0
 (optional=templinst)_ZN9QtPrivate11QSlotObjectIMN3qbs11AbstractJobEFvRK7QStringiENS_4ListIJS5_iEEEvE4implEiPNS_15QSlotObjectBaseEP7QObjectPPvPb@Base 1.22.0
 (optional=templinst)_ZN9QtPrivate11QSlotObjectIMN3qbs11AbstractJobEFviENS_4ListIJiEEEvE4implEiPNS_15QSlotObjectBaseEP7QObjectPPvPb@Base 1.22.0
 (optional=templinst)_ZN9QtPrivate11QSlotObjectIMN3qbs11AbstractJobEFvvENS_4ListIJEEEvE4implEiPNS_15QSlotObjectBaseEP7QObjectPPvPb@Base 1.22.0
 (optional=templinst)_ZN9QtPrivate11QSlotObjectIMN3qbs8BuildJobEFvRK7QStringS5_ENS_4ListIJS5_S5_EEEvE4implEiPNS_15QSlotObjectBaseEP7QObjectPPvPb@Base 1.22.0
 (optional=templinst)_ZN9QtPrivate11QSlotObjectIMN3qbs8BuildJobEFvRKNS1_13ProcessResultEENS_4ListIJS5_EEEvE4implEiPNS_15QSlotObjectBaseEP7QObjectPPvPb@Base 1.22.0
 (optional=templinst)_ZN9QtPrivate11QSlotObjectIMN3qbs8BuildJobEFvRKNS1_9ErrorInfoEENS_4ListIJS5_EEEvE4implEiPNS_15QSlotObjectBaseEP7QObjectPPvPb@Base 1.22.0
 (optional=templinst|subst)_ZN9QtPrivate11QSlotObjectIMN3qbs8Internal10QbsProcessEFvNS2_18LauncherPacketTypeE{quintptr}RK10QByteArrayENS_4ListIJS4_{quintptr}S7_EEEvE4implEiPNS_15QSlotObjectBaseEP7QObjectPPvPb@Base 1.22.0
 (optional=templinst)_ZN9QtPrivate11QSlotObjectIMN3qbs8Internal10QbsProcessEFvRK7QStringENS_4ListIJS6_EEEvE4implEiPNS_15QSlotObjectBaseEP7QObjectPPvPb@Base 1.22.0
 (optional=templinst)_ZN9QtPrivate11QSlotObjectIMN3qbs8Internal10QbsProcessEFvvENS_4ListIJEEEvE4implEiPNS_15QSlotObjectBaseEP7QObjectPPvPb@Base 1.22.0
 (optional=templinst)_ZN9QtPrivate11QSlotObjectIMN3qbs8Internal11ExecutorJobEFvRK7QStringS6_ENS_4ListIJS6_S6_EEEvE4implEiPNS_15QSlotObjectBaseEP7QObjectPPvPb@Base 1.22.0
 (optional=templinst)_ZN9QtPrivate11QSlotObjectIMN3qbs8Internal11ExecutorJobEFvRKNS1_13ProcessResultEENS_4ListIJS6_EEEvE4implEiPNS_15QSlotObjectBaseEP7QObjectPPvPb@Base 1.22.0
 (optional=templinst)_ZN9QtPrivate11QSlotObjectIMN3qbs8Internal11ExecutorJobEFvRKNS1_9ErrorInfoEENS_4ListIJS6_EEEvE4implEiPNS_15QSlotObjectBaseEP7QObjectPPvPb@Base 1.22.0
 (optional=templinst)_ZN9QtPrivate11QSlotObjectIMN3qbs8Internal11InternalJobEFvRK7QStringiPS3_ENS_4ListIJS6_iS7_EEEvE4implEiPNS_15QSlotObjectBaseEP7QObjectPPvPb@Base 1.22.0
 (optional=templinst)_ZN9QtPrivate11QSlotObjectIMN3qbs8Internal11InternalJobEFviPS3_ENS_4ListIJiS4_EEEvE4implEiPNS_15QSlotObjectBaseEP7QObjectPPvPb@Base 1.22.0
 (optional=templinst)_ZN9QtPrivate11QSlotObjectIMN3qbs8Internal11InternalJobEFvvENS_4ListIJEEEvE4implEiPNS_15QSlotObjectBaseEP7QObjectPPvPb@Base 1.22.0
 (optional=templinst)_ZN9QtPrivate11QSlotObjectIMN3qbs8Internal14LauncherSocketEFvvENS_4ListIJEEEvE4implEiPNS_15QSlotObjectBaseEP7QObjectPPvPb@Base 1.22.0
 (optional=templinst)_ZN9QtPrivate11QSlotObjectIMN3qbs8Internal16InternalBuildJobEFvvENS_4ListIJEEEvE4implEiPNS_15QSlotObjectBaseEP7QObjectPPvPb@Base 1.22.0
 (optional=templinst)_ZN9QtPrivate11QSlotObjectIMN3qbs8Internal17JsCommandExecutorEFvvENS_4ListIJEEEvE4implEiPNS_15QSlotObjectBaseEP7QObjectPPvPb@Base 1.22.0
 (optional=templinst)_ZN9QtPrivate11QSlotObjectIMN3qbs8Internal17LauncherInterfaceEFvvENS_4ListIJEEEvE4implEiPNS_15QSlotObjectBaseEP7QObjectPPvPb@Base 1.22.0
 (optional=templinst)_ZN9QtPrivate11QSlotObjectIMN3qbs8Internal21BuildGraphTouchingJobEFvRK7QStringS6_ENS_4ListIJS6_S6_EEEvE4implEiPNS_15QSlotObjectBaseEP7QObjectPPvPb@Base 1.22.0
 (optional=templinst)_ZN9QtPrivate11QSlotObjectIMN3qbs8Internal21BuildGraphTouchingJobEFvRKNS1_13ProcessResultEENS_4ListIJS6_EEEvE4implEiPNS_15QSlotObjectBaseEP7QObjectPPvPb@Base 1.22.0
 (optional=templinst)_ZN9QtPrivate11QSlotObjectIMN3qbs8Internal22ProcessCommandExecutorEFvvENS_4ListIJEEEvE4implEiPNS_15QSlotObjectBaseEP7QObjectPPvPb@Base 1.22.0
 (optional=templinst)_ZN9QtPrivate11QSlotObjectIMN3qbs8Internal24InternalJobThreadWrapperEFvvENS_4ListIJEEEvE4implEiPNS_15QSlotObjectBaseEP7QObjectPPvPb@Base 1.22.0
 (optional=templinst)_ZN9QtPrivate11QSlotObjectIMN3qbs8Internal29JsCommandExecutorThreadObjectEFvPKNS2_17JavaScriptCommandEPNS2_11TransformerEENS_4ListIJS6_S8_EEEvE4implEiPNS_15QSlotObjectBaseEP7QObjectPPvPb@Base 1.22.0
 (optional=templinst)_ZN9QtPrivate11QSlotObjectIMN3qbs8Internal8ExecutorEFvRK7QStringS6_ENS_4ListIJS6_S6_EEEvE4implEiPNS_15QSlotObjectBaseEP7QObjectPPvPb@Base 1.22.0
 (optional=templinst)_ZN9QtPrivate11QSlotObjectIMN3qbs8Internal8ExecutorEFvRKNS1_13ProcessResultEENS_4ListIJS6_EEEvE4implEiPNS_15QSlotObjectBaseEP7QObjectPPvPb@Base 1.22.0
 (optional=templinst)_ZN9QtPrivate11QSlotObjectIMN3qbs8Internal8ExecutorEFvRKNS1_9ErrorInfoEENS_4ListIJS6_EEEvE4implEiPNS_15QSlotObjectBaseEP7QObjectPPvPb@Base 1.22.0
 (optional=templinst)_ZN9QtPrivate11QSlotObjectIMN3qbs8Internal8ExecutorEFvvENS_4ListIJEEEvE4implEiPNS_15QSlotObjectBaseEP7QObjectPPvPb@Base 1.22.0
 (optional=templinst)_ZN9QtPrivate18QFunctorSlotObjectISt5_BindIFMSt5mutexFvvEPS2_EELi1ENS_4ListIJP7QObjectEEEvE4implEiPNS_15QSlotObjectBaseESA_PPvPb@Base 1.22.0
 (optional=templinst)_ZN9QtPrivate23readArrayBasedContainerI5QListI7QStringEEER11QDataStreamS5_RT_@Base 1.22.0
 (optional=templinst)_ZN9QtPrivate24printSequentialContainerI5QListI8QVariantEEE6QDebugS4_PKcRKT_@Base 1.22.0
 (optional=templinst)_ZN9QtPrivate24writeSequentialContainerI5QListI7QStringEEER11QDataStreamS5_RKT_@Base 1.22.0
 (optional=templinst)_ZN9QtPrivate28QVariantValueHelperInterfaceI20QAssociativeIterableE6invokeERK8QVariant@Base 1.22.0
 (optional=templinst)_ZN9QtPrivate28QVariantValueHelperInterfaceI4QMapI7QString8QVariantEE6invokeERKS3_@Base 1.22.0
 (optional=templinst)_ZN9QtPrivate7indexOfI7QString13QLatin1StringEEiRK5QListIT_ERKT0_i@Base 1.22.0
 (optional=templinst)_ZN9QtPrivate7indexOfI7QStringS1_EEiRK5QListIT_ERKT0_i@Base 1.22.0
 (optional=templinst)_ZN9QtPrivate7indexOfIPN3qbs8Internal4NodeES4_EEiRK5QListIT_ERKT0_i@Base 1.22.0
 _ZN9QtPrivate8RefCount3refEv@Base 1.22.0
 _ZN9QtPrivate8RefCount5derefEv@Base 1.22.0
 (arch=armel riscv64)_ZN9__gnu_cxx24__concurrence_lock_errorD0Ev@Base 1.22.0
 (arch=armel riscv64)_ZN9__gnu_cxx24__concurrence_lock_errorD1Ev@Base 1.22.0
 (arch=armel riscv64)_ZN9__gnu_cxx24__concurrence_lock_errorD2Ev@Base 1.22.0
 (arch=armel riscv64)_ZN9__gnu_cxx26__concurrence_unlock_errorD0Ev@Base 1.22.0
 (arch=armel riscv64)_ZN9__gnu_cxx26__concurrence_unlock_errorD1Ev@Base 1.22.0
 (arch=armel riscv64)_ZN9__gnu_cxx26__concurrence_unlock_errorD2Ev@Base 1.22.0
 (arch=armel riscv64)_ZN9__gnu_cxx30__throw_concurrence_lock_errorEv@Base 1.22.0
 (arch=armel riscv64)_ZN9__gnu_cxx32__throw_concurrence_unlock_errorEv@Base 1.22.0
 (optional=templinst)_ZN9__gnu_cxx5__ops10_Iter_predIZZN3qbs8Internal20DependenciesFunction22js_productDependenciesEP14QScriptContextPNS3_12ScriptEngineEPKNS3_15ResolvedProductENS4_14DependencyTypeEENKUlRK7QStringE_clESF_EUlRKSt10shared_ptrISA_EE_EclINS_17__normal_iteratorIPKSH_IS9_ESt6vectorISP_SaISP_EEEEEEbT_@Base 1.22.0
 _ZNK3qbs10InstallJob10metaObjectEv@Base 1.2.1
 _ZNK3qbs11AbstractJob10metaObjectEv@Base 1.2.1
 _ZNK3qbs11AbstractJob5errorEv@Base 1.2.1
 _ZNK3qbs11InstallData10installDirEv@Base 1.7.0
 _ZNK3qbs11InstallData11installRootEv@Base 1.7.0
 _ZNK3qbs11InstallData13isInstallableEv@Base 1.7.0
 _ZNK3qbs11InstallData15installFilePathEv@Base 1.7.0
 _ZNK3qbs11InstallData15localInstallDirEv@Base 1.7.0
 _ZNK3qbs11InstallData20localInstallFilePathEv@Base 1.7.0
 _ZNK3qbs11InstallData6toJsonEv@Base 1.16.0
 _ZNK3qbs11InstallData7isValidEv@Base 1.7.0
 _ZNK3qbs11Preferences11pluginPathsERK7QString@Base 1.2.1
 _ZNK3qbs11Preferences11searchPathsERK7QString@Base 1.2.1
 _ZNK3qbs11Preferences13getPreferenceERK7QStringRK8QVariant@Base 1.2.1
 _ZNK3qbs11Preferences15defaultEchoModeEv@Base 1.4.0
 _ZNK3qbs11Preferences16useColoredOutputEv@Base 1.2.1
 _ZNK3qbs11Preferences20scopesForSearchPathsEv@Base 1.12.0
 _ZNK3qbs11Preferences21defaultBuildDirectoryEv@Base 1.2.1
 _ZNK3qbs11Preferences23ignoreSystemSearchPathsEv@Base 1.12.0
 _ZNK3qbs11Preferences4jobsEv@Base 1.2.1
 _ZNK3qbs11Preferences5shellEv@Base 1.2.1
 _ZNK3qbs11Preferences8pathListERK7QStringS3_@Base 1.2.1
 _ZNK3qbs11Preferences9jobLimitsEv@Base 1.13.0
 _ZNK3qbs11ProductData10isRunnableEv@Base 1.3.1
 _ZNK3qbs11ProductData10propertiesEv@Base 1.3.3
 _ZNK3qbs11ProductData10targetNameEv@Base 1.3.1
 _ZNK3qbs11ProductData12dependenciesEv@Base 1.3.1
 _ZNK3qbs11ProductData13isMultiplexedEv@Base 1.10.0
 _ZNK3qbs11ProductData14buildDirectoryEv@Base 1.7.0
 _ZNK3qbs11ProductData15fullDisplayNameEv@Base 1.10.0
 _ZNK3qbs11ProductData15targetArtifactsEv@Base 1.2.1
 _ZNK3qbs11ProductData16modulePropertiesEv@Base 1.4.0
 _ZNK3qbs11ProductData16targetExecutableEv@Base 1.7.0
 _ZNK3qbs11ProductData18generatedArtifactsEv@Base 1.7.0
 _ZNK3qbs11ProductData20installableArtifactsEv@Base 1.7.0
 _ZNK3qbs11ProductData24multiplexConfigurationIdEv@Base 1.10.0
 _ZNK3qbs11ProductData4nameEv@Base 1.2.1
 _ZNK3qbs11ProductData4typeEv@Base 1.3.1
 _ZNK3qbs11ProductData6groupsEv@Base 1.2.1
 _ZNK3qbs11ProductData6toJsonERK11QStringList@Base 1.16.0
 _ZNK3qbs11ProductData7isValidEv@Base 1.2.1
 _ZNK3qbs11ProductData7profileEv@Base 1.3.1
 _ZNK3qbs11ProductData7versionEv@Base 1.3.1
 _ZNK3qbs11ProductData8locationEv@Base 1.2.1
 _ZNK3qbs11ProductData9isEnabledEv@Base 1.2.1
 _ZNK3qbs11ProjectData11allProductsEv@Base 1.2.1
 _ZNK3qbs11ProjectData11subProjectsEv@Base 1.2.1
 _ZNK3qbs11ProjectData14buildDirectoryEv@Base 1.2.1
 _ZNK3qbs11ProjectData20installableArtifactsEv@Base 1.7.0
 _ZNK3qbs11ProjectData4nameEv@Base 1.2.1
 _ZNK3qbs11ProjectData6toJsonERK11QStringList@Base 1.16.0
 _ZNK3qbs11ProjectData7isValidEv@Base 1.2.1
 _ZNK3qbs11ProjectData8locationEv@Base 1.2.1
 _ZNK3qbs11ProjectData8productsEv@Base 1.2.1
 _ZNK3qbs11ProjectData9isEnabledEv@Base 1.2.1
 _ZNK3qbs11PropertyMap11getPropertyERK7QString@Base 1.2.1
 _ZNK3qbs11PropertyMap13allPropertiesEv@Base 1.2.1
 _ZNK3qbs11PropertyMap17getModulePropertyERK7QStringS3_@Base 1.2.1
 _ZNK3qbs11PropertyMap31getModulePropertiesAsStringListERK7QStringS3_@Base 1.2.1
 _ZNK3qbs11PropertyMap8toStringEv@Base 1.2.1
 _ZNK3qbs11RuleCommand10executableEv@Base 1.3.3
 _ZNK3qbs11RuleCommand10sourceCodeEv@Base 1.3.3
 _ZNK3qbs11RuleCommand11descriptionEv@Base 1.3.3
 _ZNK3qbs11RuleCommand11environmentEv@Base 1.3.3
 _ZNK3qbs11RuleCommand16workingDirectoryEv@Base 1.3.3
 _ZNK3qbs11RuleCommand19extendedDescriptionEv@Base 1.5.0
 _ZNK3qbs11RuleCommand4typeEv@Base 1.3.3
 _ZNK3qbs11RuleCommand9argumentsEv@Base 1.3.3
 _ZNK3qbs12ArtifactData10propertiesEv@Base 1.7.0
 _ZNK3qbs12ArtifactData11installDataEv@Base 1.7.0
 _ZNK3qbs12ArtifactData11isGeneratedEv@Base 1.7.0
 _ZNK3qbs12ArtifactData12isExecutableEv@Base 1.7.0
 _ZNK3qbs12ArtifactData16isTargetArtifactEv@Base 1.7.0
 _ZNK3qbs12ArtifactData6toJsonERK11QStringList@Base 1.16.0
 _ZNK3qbs12ArtifactData7isValidEv@Base 1.7.0
 _ZNK3qbs12ArtifactData8filePathEv@Base 1.7.0
 _ZNK3qbs12ArtifactData8fileTagsEv@Base 1.7.0
 _ZNK3qbs12BuildOptions11maxJobCountEv@Base 1.2.1
 _ZNK3qbs12BuildOptions12changedFilesEv@Base 1.2.1
 _ZNK3qbs12BuildOptions14activeFileTagsEv@Base 1.2.1
 _ZNK3qbs12BuildOptions14logElapsedTimeEv@Base 1.2.1
 _ZNK3qbs12BuildOptions15filesToConsiderEv@Base 1.2.1
 _ZNK3qbs12BuildOptions16executeRulesOnlyEv@Base 1.5.0
 _ZNK3qbs12BuildOptions16forceOutputCheckEv@Base 1.5.0
 _ZNK3qbs12BuildOptions17settingsDirectoryEv@Base 1.13.0
 _ZNK3qbs12BuildOptions19forceTimestampCheckEv@Base 1.2.1
 _ZNK3qbs12BuildOptions26removeExistingInstallationEv@Base 1.4.0
 _ZNK3qbs12BuildOptions30projectJobLimitsTakePrecedenceEv@Base 1.13.0
 _ZNK3qbs12BuildOptions6dryRunEv@Base 1.2.1
 _ZNK3qbs12BuildOptions7installEv@Base 1.4.0
 _ZNK3qbs12BuildOptions8echoModeEv@Base 1.4.0
 _ZNK3qbs12BuildOptions9jobLimitsEv@Base 1.13.0
 _ZNK3qbs12BuildOptions9keepGoingEv@Base 1.2.1
 _ZNK3qbs12CleanOptions14logElapsedTimeEv@Base 1.2.1
 _ZNK3qbs12CleanOptions6dryRunEv@Base 1.2.1
 _ZNK3qbs12CleanOptions9keepGoingEv@Base 1.2.1
 _ZNK3qbs12CodeLocation4lineEv@Base 1.2.1
 _ZNK3qbs12CodeLocation5storeERNS_8Internal14PersistentPoolE@Base 1.4.0
 _ZNK3qbs12CodeLocation6columnEv@Base 1.2.1
 _ZNK3qbs12CodeLocation6toJsonEv@Base 1.16.0
 _ZNK3qbs12CodeLocation7isValidEv@Base 1.2.1
 _ZNK3qbs12CodeLocation8filePathEv@Base 1.4.0
 _ZNK3qbs12CodeLocation8toStringEv@Base 1.2.1
 _ZNK3qbs13ProcessResult16workingDirectoryEv@Base 1.2.1
 _ZNK3qbs13ProcessResult18executableFilePathEv@Base 1.2.1
 _ZNK3qbs13ProcessResult5errorEv@Base 1.5.0
 _ZNK3qbs13ProcessResult6stdErrEv@Base 1.2.1
 _ZNK3qbs13ProcessResult6stdOutEv@Base 1.2.1
 _ZNK3qbs13ProcessResult6toJsonEv@Base 1.16.0
 _ZNK3qbs13ProcessResult7successEv@Base 1.2.1
 _ZNK3qbs13ProcessResult8exitCodeEv@Base 1.2.1
 _ZNK3qbs13ProcessResult9argumentsEv@Base 1.2.1
 _ZNK3qbs13SettingsModel10headerDataEiN2Qt11OrientationEi@Base 1.4.0
 _ZNK3qbs13SettingsModel10metaObjectEv@Base 1.4.0
 _ZNK3qbs13SettingsModel11columnCountERK11QModelIndex@Base 1.4.0
 _ZNK3qbs13SettingsModel17hasUnsavedChangesEv@Base 1.4.0
 _ZNK3qbs13SettingsModel4dataERK11QModelIndexi@Base 1.4.0
 _ZNK3qbs13SettingsModel5flagsERK11QModelIndex@Base 1.4.0
 _ZNK3qbs13SettingsModel5indexEiiRK11QModelIndex@Base 1.4.0
 _ZNK3qbs13SettingsModel6parentERK11QModelIndex@Base 1.4.0
 _ZNK3qbs13SettingsModel8rowCountERK11QModelIndex@Base 1.4.0
 _ZNK3qbs14InstallOptions11installRootEv@Base 1.2.1
 _ZNK3qbs14InstallOptions14logElapsedTimeEv@Base 1.2.1
 _ZNK3qbs14InstallOptions18installIntoSysrootEv@Base 1.2.1
 _ZNK3qbs14InstallOptions26removeExistingInstallationEv@Base 1.2.1
 _ZNK3qbs14InstallOptions6dryRunEv@Base 1.2.1
 _ZNK3qbs14InstallOptions9keepGoingEv@Base 1.2.1
 _ZNK3qbs14RunEnvironment14runEnvironmentEPNS_9ErrorInfoE@Base 1.5.0
 _ZNK3qbs14RunEnvironment16buildEnvironmentEPNS_9ErrorInfoE@Base 1.5.0
 _ZNK3qbs14RunEnvironment17getRunEnvironmentEv@Base 1.5.0
 _ZNK3qbs14RunEnvironment19getBuildEnvironmentEv@Base 1.5.0
 _ZNK3qbs15GenerateOptions13generatorNameEv@Base 1.4.0
 _ZNK3qbs15SetupProjectJob10metaObjectEv@Base 1.2.1
 _ZNK3qbs15SetupProjectJob7projectEv@Base 1.2.1
 _ZNK3qbs15TransformerData6inputsEv@Base 1.12.0
 _ZNK3qbs15TransformerData7outputsEv@Base 1.12.0
 _ZNK3qbs15TransformerData8commandsEv@Base 1.12.0
 _ZNK3qbs16ProjectGenerator10metaObjectEv@Base 1.7.0
 _ZNK3qbs16ProjectGenerator14qbsSettingsDirEv@Base 1.7.2
 _ZNK3qbs16ProjectGenerator18buildConfigurationERKNS_7ProjectE@Base 1.7.0
 _ZNK3qbs16ProjectGenerator19buildConfigurationsEv@Base 1.7.0
 _ZNK3qbs16ProjectGenerator21qbsExecutableFilePathEv@Base 1.7.0
 _ZNK3qbs16ProjectGenerator29buildConfigurationCommandLineERKNS_7ProjectE@Base 1.7.0
 _ZNK3qbs16ProjectGenerator6loggerEv@Base 1.10.0
 _ZNK3qbs16ProjectGenerator7projectEv@Base 1.7.0
 _ZNK3qbs16ProjectGenerator8projectsEv@Base 1.7.0
 _ZNK3qbs18GeneratableProject11commandLineEv@Base 1.10.0
 _ZNK3qbs18GeneratableProject18baseBuildDirectoryEv@Base 1.10.0
 _ZNK3qbs18GeneratableProject25hasMultipleConfigurationsEv@Base 1.10.0
 _ZNK3qbs18GeneratableProject8filePathEv@Base 1.10.0
 _ZNK3qbs22GeneratableProductData12dependenciesEv@Base 1.10.0
 _ZNK3qbs22GeneratableProductData14buildDirectoryEv@Base 1.10.0
 _ZNK3qbs22GeneratableProductData4nameEv@Base 1.10.0
 _ZNK3qbs22GeneratableProductData4typeEv@Base 1.10.0
 _ZNK3qbs22GeneratableProductData8locationEv@Base 1.10.0
 _ZNK3qbs22GeneratableProjectData10uniqueNameEv@Base 1.10.0
 _ZNK3qbs22GeneratableProjectData4nameEv@Base 1.10.0
 _ZNK3qbs22GeneratableProjectData8locationEv@Base 1.10.0
 _ZNK3qbs22SetupProjectParameters11environmentEv@Base 1.2.1
 _ZNK3qbs22SetupProjectParameters11libexecPathEv@Base 1.4.1
 _ZNK3qbs22SetupProjectParameters11pluginPathsEv@Base 1.2.1
 _ZNK3qbs22SetupProjectParameters11searchPathsEv@Base 1.2.1
 _ZNK3qbs22SetupProjectParameters14logElapsedTimeEv@Base 1.2.1
 _ZNK3qbs22SetupProjectParameters15projectFilePathEv@Base 1.2.1
 _ZNK3qbs22SetupProjectParameters15restoreBehaviorEv@Base 1.2.1
 _ZNK3qbs22SetupProjectParameters15topLevelProfileEv@Base 1.3.1
 _ZNK3qbs22SetupProjectParameters16overriddenValuesEv@Base 1.2.1
 _ZNK3qbs22SetupProjectParameters16productErrorModeEv@Base 1.5.0
 _ZNK3qbs22SetupProjectParameters17configurationNameEv@Base 1.6.0
 _ZNK3qbs22SetupProjectParameters17settingsDirectoryEv@Base 1.3.1
 _ZNK3qbs22SetupProjectParameters18buildConfigurationEv@Base 1.2.1
 _ZNK3qbs22SetupProjectParameters18waitLockBuildGraphEv@Base 1.6.0
 _ZNK3qbs22SetupProjectParameters19adjustedEnvironmentEv@Base 1.3.1
 _ZNK3qbs22SetupProjectParameters19forceProbeExecutionEv@Base 1.6.0
 _ZNK3qbs22SetupProjectParameters20overriddenValuesTreeEv@Base 1.2.1
 _ZNK3qbs22SetupProjectParameters20propertyCheckingModeEv@Base 1.4.0
 _ZNK3qbs22SetupProjectParameters22buildConfigurationTreeEv@Base 1.2.1
 _ZNK3qbs22SetupProjectParameters22overrideBuildGraphDataEv@Base 1.10.0
 _ZNK3qbs22SetupProjectParameters23fallbackProviderEnabledEv@Base 1.13.0
 _ZNK3qbs22SetupProjectParameters27finalBuildConfigurationTreeEv@Base 1.2.1
 _ZNK3qbs22SetupProjectParameters6dryRunEv@Base 1.2.1
 _ZNK3qbs22SetupProjectParameters9buildRootEv@Base 1.2.1
 (optional=templinst)_ZNK3qbs23IMultiplexableContainerINS_11ProductDataEE11uniqueValueI11QStringListEET_RKSt8functionIFS5_RKS1_EERK7QString@Base 1.22.0
 (optional=templinst)_ZNK3qbs23IMultiplexableContainerINS_11ProductDataEE11uniqueValueI7QStringEET_RKSt8functionIFS5_RKS1_EERKS4_@Base 1.22.0
 (optional=templinst)_ZNK3qbs23IMultiplexableContainerINS_11ProductDataEE11uniqueValueINS_12CodeLocationEEET_RKSt8functionIFS5_RKS1_EERK7QString@Base 1.22.0
 (optional=templinst)_ZNK3qbs23IMultiplexableContainerINS_11ProjectDataEE11uniqueValueI7QStringEET_RKSt8functionIFS5_RKS1_EERKS4_@Base 1.22.0
 _ZNK3qbs3gen11VersionInfo16marketingVersionEv@Base 1.16.0
 _ZNK3qbs3gen3xml13ProjectWriter6writerEv@Base 1.16.0
 _ZNK3qbs3gen3xml13PropertyGroup6acceptEPNS1_12INodeVisitorE@Base 1.16.0
 _ZNK3qbs3gen3xml15WorkspaceWriter6writerEv@Base 1.16.0
 _ZNK3qbs3gen3xml7Project6acceptEPNS1_12INodeVisitorE@Base 1.16.0
 _ZNK3qbs3gen3xml8Property6acceptEPNS1_12INodeVisitorE@Base 1.16.0
 _ZNK3qbs3gen3xml9Workspace6acceptEPNS1_12INodeVisitorE@Base 1.16.0
 _ZNK3qbs7Profile10localValueERK7QString@Base 1.2.1
 _ZNK3qbs7Profile10profileKeyEv@Base 1.2.1
 _ZNK3qbs7Profile11baseProfileEv@Base 1.2.1
 _ZNK3qbs7Profile15allKeysInternalENS0_12KeySelectionE11QStringList@Base 1.2.1
 _ZNK3qbs7Profile17fullyQualifiedKeyERK7QString@Base 1.2.1
 _ZNK3qbs7Profile22possiblyInheritedValueERK7QStringRK8QVariant11QStringList@Base 1.2.1
 _ZNK3qbs7Profile25checkBaseProfileExistenceERKS0_@Base 1.2.1
 _ZNK3qbs7Profile26extendAndCheckProfileChainER11QStringList@Base 1.2.1
 _ZNK3qbs7Profile4nameEv@Base 1.2.1
 _ZNK3qbs7Profile5valueERK7QStringRK8QVariantPNS_9ErrorInfoE@Base 1.2.1
 _ZNK3qbs7Profile6existsEv@Base 1.2.1
 _ZNK3qbs7Profile7allKeysENS0_12KeySelectionEPNS_9ErrorInfoE@Base 1.2.1
 _ZNK3qbs7Project11projectDataEv@Base 1.2.1
 _ZNK3qbs7Project12ruleCommandsERKNS_11ProductDataERK7QStringS6_PNS_9ErrorInfoE@Base 1.3.3
 _ZNK3qbs7Project14generatedFilesERKNS_11ProductDataERK7QStringbRK11QStringList@Base 1.5.0
 _ZNK3qbs7Project15buildOneProductERKNS_11ProductDataERKNS_12BuildOptionsEP7QObject@Base 1.2.1
 _ZNK3qbs7Project15cleanOneProductERKNS_11ProductDataERKNS_12CleanOptionsEP7QObject@Base 1.2.1
 _ZNK3qbs7Project15transformerDataEPNS_9ErrorInfoE@Base 1.12.0
 _ZNK3qbs7Project16buildAllProductsERKNS_12BuildOptionsENS0_16ProductSelectionEP7QObject@Base 1.4.0
 _ZNK3qbs7Project16buildSystemFilesEv@Base 1.2.1
 _ZNK3qbs7Project16cleanAllProductsERKNS_12CleanOptionsEP7QObject@Base 1.2.1
 _ZNK3qbs7Project17buildSomeProductsERK5QListINS_11ProductDataEERKNS_12BuildOptionsEP7QObject@Base 1.2.1
 _ZNK3qbs7Project17cleanSomeProductsERK5QListINS_11ProductDataEERKNS_12CleanOptionsEP7QObject@Base 1.2.1
 _ZNK3qbs7Project17getBuildGraphInfoEv@Base 1.16.0
 _ZNK3qbs7Project17getRunEnvironmentERKNS_11ProductDataERKNS_14InstallOptionsERK19QProcessEnvironmentRK11QStringListPNS_8SettingsE@Base 1.11.0
 _ZNK3qbs7Project17installOneProductERKNS_11ProductDataERKNS_14InstallOptionsEP7QObject@Base 1.2.1
 _ZNK3qbs7Project18installAllProductsERKNS_14InstallOptionsENS0_16ProductSelectionEP7QObject@Base 1.4.0
 _ZNK3qbs7Project19installSomeProductsERK5QListINS_11ProductDataEERKNS_14InstallOptionsEP7QObject@Base 1.2.1
 _ZNK3qbs7Project20projectConfigurationEv@Base 1.2.1
 _ZNK3qbs7Project7isValidEv@Base 1.2.1
 _ZNK3qbs7Project7profileEv@Base 1.3.1
 _ZNK3qbs7Version8toStringERK5QCharS3_@Base 1.16.0
 _ZNK3qbs8BuildJob10metaObjectEv@Base 1.2.1
 _ZNK3qbs8CleanJob10metaObjectEv@Base 1.2.1
 _ZNK3qbs8ILogSink8logLevelEv@Base 1.2.1
 _ZNK3qbs8Internal10BinaryFile10metaObjectEv@Base 1.22.0
 _ZNK3qbs8Internal10BinaryFile14checkForClosedEv@Base 1.22.0
 _ZNK3qbs8Internal10BinaryFile3posEv@Base 1.22.0
 _ZNK3qbs8Internal10BinaryFile4sizeEv@Base 1.22.0
 _ZNK3qbs8Internal10BinaryFile5atEofEv@Base 1.22.0
 _ZNK3qbs8Internal10ItemReader14allSearchPathsEv@Base 1.22.0
 _ZNK3qbs8Internal10ItemReader21extraSearchPathsStackEv@Base 1.22.0
 _ZNK3qbs8Internal10ItemReader9filesReadEv@Base 1.22.0
 _ZNK3qbs8Internal10QbsProcess10metaObjectEv@Base 1.22.0
 _ZNK3qbs8Internal10XmlDomNode10metaObjectEv@Base 1.22.0
 _ZNK3qbs8Internal10XmlDomNode10parentNodeEv@Base 1.22.0
 _ZNK3qbs8Internal10XmlDomNode11nextSiblingERK7QString@Base 1.22.0
 _ZNK3qbs8Internal10XmlDomNode12hasAttributeERK7QString@Base 1.22.0
 _ZNK3qbs8Internal10XmlDomNode13hasAttributesEv@Base 1.22.0
 _ZNK3qbs8Internal10XmlDomNode13hasChildNodesEv@Base 1.22.0
 _ZNK3qbs8Internal10XmlDomNode14isCDATASectionEv@Base 1.22.0
 _ZNK3qbs8Internal10XmlDomNode15previousSiblingERK7QString@Base 1.22.0
 _ZNK3qbs8Internal10XmlDomNode4dataEv@Base 1.22.0
 _ZNK3qbs8Internal10XmlDomNode4textEv@Base 1.22.0
 _ZNK3qbs8Internal10XmlDomNode6isTextEv@Base 1.22.0
 _ZNK3qbs8Internal10XmlDomNode7setDataERK7QString@Base 1.22.0
 _ZNK3qbs8Internal10XmlDomNode7tagNameEv@Base 1.22.0
 _ZNK3qbs8Internal10XmlDomNode9isElementEv@Base 1.22.0
 _ZNK3qbs8Internal10XmlDomNode9lastChildERK7QString@Base 1.22.0
 _ZNK3qbs8Internal11ClangClInfo12toVariantMapEv@Base 1.16.0
 _ZNK3qbs8Internal11CommandLine13toCommandLineENS0_10HostOsInfo6HostOsE@Base 1.7.0
 _ZNK3qbs8Internal11CommandList5storeERNS0_14PersistentPoolE@Base 1.22.0
 _ZNK3qbs8Internal11ExecutorJob10metaObjectEv@Base 1.22.0
 _ZNK3qbs8Internal11InternalJob10metaObjectEv@Base 1.22.0
 _ZNK3qbs8Internal11JobObserver7maximumEv@Base 1.22.0
 _ZNK3qbs8Internal11JobObserver8canceledEv@Base 1.22.0
 _ZNK3qbs8Internal11PkgConfigJs10metaObjectEv@Base 1.22.0
 _ZNK3qbs8Internal11QualifiedId8toStringEv@Base 1.10.0
 _ZNK3qbs8Internal11Transformer7productEv@Base 1.22.0
 _ZNK3qbs8Internal11Transformer8jobPoolsEv@Base 1.22.0
 (optional=templinst)_ZNK3qbs8Internal11WeakPointerINS0_15ResolvedProductEE3getEv@Base 1.22.0
 (optional=templinst)_ZNK3qbs8Internal11WeakPointerINS0_15ResolvedProjectEE3getEv@Base 1.22.0
 (subst)_ZNK3qbs8Internal12ModuleLoader13MultiplexInfo10toIdStringE{size_t}@Base 1.22.0
 _ZNK3qbs8Internal12ModuleLoader14ProductContext10uniqueNameEv@Base 1.22.0
 _ZNK3qbs8Internal12ModuleLoader16checkCancelationEv@Base 1.22.0
 _ZNK3qbs8Internal12ModuleLoader17extractParametersEPNS0_4ItemE@Base 1.22.0
 _ZNK3qbs8Internal12ModuleLoader20createChildInstancesEPNS0_4ItemES3_P5QHashIS3_S3_E@Base 1.22.0
 _ZNK3qbs8Internal12ModuleLoader20getShadowProductInfoERKNS1_14ProductContextE@Base 1.22.0
 _ZNK3qbs8Internal12ModuleLoader36checkDependencyParameterDeclarationsEPKNS1_14ProductContextE@Base 1.22.0
 _ZNK3qbs8Internal12RuleArtifact7BindingltERKS2_@Base 1.22.0
 _ZNK3qbs8Internal12ScriptEngine10metaObjectEv@Base 1.10.0
 _ZNK3qbs8Internal12ScriptEngine11environmentEv@Base 1.10.0
 _ZNK3qbs8Internal12ScriptEngine17gatherFileResultsEv@Base 1.13.0
 _ZNK3qbs8Internal12ScriptEngine17lastErrorLocationERK12QScriptValueRKNS_12CodeLocationE@Base 1.10.0
 _ZNK3qbs8Internal12ScriptEngine25importedFilesUsedInScriptEv@Base 1.11.0
 _ZNK3qbs8Internal12ScriptEngine25modulePropertyScriptClassEv@Base 1.10.0
 _ZNK3qbs8Internal12ScriptEngine7importsEv@Base 1.10.0
 _ZNK3qbs8Internal12ScriptEngine9lastErrorERK12QScriptValueRKNS_12CodeLocationE@Base 1.10.0
 _ZNK3qbs8Internal12TemporaryDir10metaObjectEv@Base 1.22.0
 _ZNK3qbs8Internal12TemporaryDir4pathEv@Base 1.22.0
 _ZNK3qbs8Internal12TemporaryDir7isValidEv@Base 1.22.0
 _ZNK3qbs8Internal12VariantValue5cloneEv@Base 1.22.0
 (optional=inline)_ZNK3qbs8Internal13JSSourceValue11Alternative5cloneEv@Base 1.22.0
 _ZNK3qbs8Internal13JSSourceValue23sourceCodeForEvaluationEv@Base 1.22.0
 _ZNK3qbs8Internal13JSSourceValue5cloneEv@Base 1.22.0
 _ZNK3qbs8Internal13JSSourceValue8locationEv@Base 1.22.0
 _ZNK3qbs8Internal13ResolvedGroup8allFilesEv@Base 1.10.0
 _ZNK3qbs8Internal14BuildGraphNode7isBuiltEv@Base 1.22.0
 _ZNK3qbs8Internal14FileDependency8fileTypeEv@Base 1.22.0
 _ZNK3qbs8Internal14LauncherPacket9serializeEv@Base 1.22.0
 _ZNK3qbs8Internal14LauncherSocket10metaObjectEv@Base 1.22.0
 _ZNK3qbs8Internal14NodeTreeDumper11indentationEv@Base 1.22.0
 _ZNK3qbs8Internal14ProbesResolver12probeMatchesERKSt10shared_ptrIKNS0_5ProbeEEbRK4QMapI7QString8QVariantERKS9_NS1_13CompareScriptE@Base 1.22.0
 _ZNK3qbs8Internal14ProbesResolver16findCurrentProbeERKNS_12CodeLocationEbRK4QMapI7QString8QVariantE@Base 1.22.0
 _ZNK3qbs8Internal14ProbesResolver19findOldProductProbeERK7QStringbRK4QMapIS2_8QVariantES4_@Base 1.22.0
 _ZNK3qbs8Internal14ProbesResolver19findOldProjectProbeERK7QStringbRK4QMapIS2_8QVariantES4_@Base 1.22.0
 _ZNK3qbs8Internal14ProcessCommand15relevantEnvVarsEv@Base 1.22.0
 _ZNK3qbs8Internal14ProcessCommand28defaultResponseFileThresholdEv@Base 1.22.0
 _ZNK3qbs8Internal14ProcessCommand4typeEv@Base 1.22.0
 _ZNK3qbs8Internal14ProcessCommand6equalsEPKNS0_15AbstractCommandE@Base 1.22.0
 _ZNK3qbs8Internal14ProjectPrivate13findGroupDataERKNS_11ProductDataERK7QString@Base 1.22.0
 _ZNK3qbs8Internal14ProjectPrivate15findProductDataERKNS_11ProductDataE@Base 1.22.0
 _ZNK3qbs8Internal14ProjectPrivate15internalProductERKNS_11ProductDataE@Base 1.22.0
 _ZNK3qbs8Internal14ProjectPrivate16internalProductsERK5QListINS_11ProductDataEE@Base 1.22.0
 _ZNK3qbs8Internal14ProjectPrivate18findProductsByNameERK7QString@Base 1.22.0
 _ZNK3qbs8Internal14ProjectPrivate26allEnabledInternalProductsEb@Base 1.22.0
 _ZNK3qbs8Internal14ScriptFunction7isValidEv@Base 1.22.0
 _ZNK3qbs8Internal14ShutdownPacket11doSerializeER11QDataStream@Base 1.22.0
 _ZNK3qbs8Internal14XmlDomDocument10metaObjectEv@Base 1.22.0
 _ZNK3qbs8Internal15AbstractCommand15fullDescriptionERK7QString@Base 1.22.0
 _ZNK3qbs8Internal15AbstractCommand6equalsEPKS1_@Base 1.22.0
 _ZNK3qbs8Internal15FileContextBase7dirPathEv@Base 1.22.0
 _ZNK3qbs8Internal15ItemDeclaration18isChildTypeAllowedENS0_8ItemTypeE@Base 1.22.0
 _ZNK3qbs8Internal15MSVCInstallInfo16findVcvarsallBatEv@Base 1.16.0
 _ZNK3qbs8Internal15ProjectResolver11postProcessERKSt10shared_ptrINS0_15ResolvedProductEEPNS1_14ProjectContextE@Base 1.22.0
 _ZNK3qbs8Internal15ProjectResolver13verbatimValueEPNS0_4ItemERK7QStringPb@Base 1.22.0
 _ZNK3qbs8Internal15ProjectResolver13verbatimValueERKSt10shared_ptrIKNS0_5ValueEEPb@Base 1.22.0
 _ZNK3qbs8Internal15ProjectResolver16applyFileTaggersERKSt10shared_ptrINS0_15ResolvedProductEE@Base 1.22.0
 _ZNK3qbs8Internal15ProjectResolver16checkCancelationEv@Base 1.22.0
 _ZNK3qbs8Internal15ProjectResolver18checkAllowedValuesERK8QVariantRKNS_12CodeLocationERKNS0_19PropertyDeclarationERK7QString@Base 1.22.0
 _ZNK3qbs8Internal15ProjectResolver19resolvedFileContextERKSt10shared_ptrIKNS0_11FileContextEE@Base 1.22.0
 _ZNK3qbs8Internal15ProjectResolver19scriptFunctionValueEPNS0_4ItemERK7QString@Base 1.22.0
 _ZNK3qbs8Internal15ProjectResolver20createProjectContextEPNS1_14ProjectContextE@Base 1.22.0
 _ZNK3qbs8Internal15ProjectResolver20sourceCodeAsFunctionERKSt10shared_ptrIKNS0_13JSSourceValueEERKNS0_19PropertyDeclarationE@Base 1.22.0
 _ZNK3qbs8Internal15ProjectResolver23sourceCodeForEvaluationERKSt10shared_ptrIKNS0_13JSSourceValueEE@Base 1.22.0
 _ZNK3qbs8Internal15ResolvedProduct10uniqueNameEv@Base 1.10.0
 _ZNK3qbs8Internal15ResolvedProduct14buildDirectoryEv@Base 1.10.0
 _ZNK3qbs8Internal15ResolvedProduct14builtByDefaultEv@Base 1.10.0
 _ZNK3qbs8Internal15ResolvedProduct14generatedFilesERK7QStringbRKNS0_8FileTagsE@Base 1.10.0
 _ZNK3qbs8Internal15ResolvedProduct15allEnabledFilesEv@Base 1.10.0
 _ZNK3qbs8Internal15ResolvedProduct15fullDisplayNameEv@Base 1.10.0
 _ZNK3qbs8Internal15ResolvedProduct15targetArtifactsEv@Base 1.10.0
 _ZNK3qbs8Internal15ResolvedProduct15topLevelProjectEv@Base 1.10.0
 _ZNK3qbs8Internal15ResolvedProduct17isInParentProjectERKSt10shared_ptrIKS1_E@Base 1.10.0
 _ZNK3qbs8Internal15ResolvedProduct19fileTagsForFileNameERK7QString@Base 1.10.0
 _ZNK3qbs8Internal15ResolvedProduct20cachedExecutablePathERK7QString@Base 1.10.0
 _ZNK3qbs8Internal15ResolvedProduct24lookupArtifactsByFileTagERKNS0_7FileTagE@Base 1.10.0
 _ZNK3qbs8Internal15ResolvedProduct25lookupArtifactsByFileTagsERKNS0_8FileTagsE@Base 1.10.0
 _ZNK3qbs8Internal15ResolvedProduct6acceptEPNS0_17BuildGraphVisitorE@Base 1.10.0
 _ZNK3qbs8Internal15ResolvedProduct7profileEv@Base 1.12.0
 _ZNK3qbs8Internal15ResolvedProduct8allFilesEv@Base 1.10.0
 _ZNK3qbs8Internal15ResolvedProject11allProductsEv@Base 1.10.0
 _ZNK3qbs8Internal15ResolvedProject14allSubProjectsEv@Base 1.10.0
 _ZNK3qbs8Internal15ResolvedProject6acceptEPNS0_17BuildGraphVisitorE@Base 1.10.0
 _ZNK3qbs8Internal15RulesApplicator11evalContextEv@Base 1.22.0
 _ZNK3qbs8Internal15RulesApplicator14resolveOutPathERK7QString@Base 1.22.0
 _ZNK3qbs8Internal15RulesApplicator25collectOldOutputArtifactsERKNS0_3SetIPNS0_8ArtifactEEE@Base 1.22.0
 _ZNK3qbs8Internal15RulesApplicator5scopeEv@Base 1.22.0
 _ZNK3qbs8Internal15RulesApplicator6engineEv@Base 1.22.0
 _ZNK3qbs8Internal15SettingsCreator11predecessorEv@Base 1.22.0
 _ZNK3qbs8Internal15TopLevelProject18buildGraphFilePathEv@Base 1.10.0
 _ZNK3qbs8Internal15TopLevelProject7profileEv@Base 1.10.0
 _ZNK3qbs8Internal16BuildGraphLoader20probeExecutionForcedERKSt10shared_ptrIKNS0_15TopLevelProjectEERKSt6vectorIS2_INS0_15ResolvedProductEESaISA_EE@Base 1.22.0
 _ZNK3qbs8Internal16BuildGraphLoader21hasEnvironmentChangedERKSt10shared_ptrIKNS0_15TopLevelProjectEE@Base 1.22.0
 _ZNK3qbs8Internal16BuildGraphLoader26hasFileExistsResultChangedERKSt10shared_ptrIKNS0_15TopLevelProjectEE@Base 1.22.0
 _ZNK3qbs8Internal16BuildGraphLoader32hasDirectoryEntriesResultChangedERKSt10shared_ptrIKNS0_15TopLevelProjectEE@Base 1.22.0
 _ZNK3qbs8Internal16BuildGraphLoader32hasFileLastModifiedResultChangedERKSt10shared_ptrIKNS0_15TopLevelProjectEE@Base 1.22.0
 _ZNK3qbs8Internal16BuildGraphLoader33hasCanonicalFilePathResultChangedERKSt10shared_ptrIKNS0_15TopLevelProjectEE@Base 1.22.0
 _ZNK3qbs8Internal16ExecutableFinder10findInPathERK7QStringS4_@Base 1.22.0
 _ZNK3qbs8Internal16ExecutableFinder12findBySuffixERK7QString@Base 1.22.0
 _ZNK3qbs8Internal16ExecutableFinder13cacheFilePathERK7QStringS4_@Base 1.22.0
 _ZNK3qbs8Internal16ExecutableFinder14cachedFilePathERK7QString@Base 1.22.0
 _ZNK3qbs8Internal16ExecutableFinder14candidateCheckERK7QStringS4_RS2_@Base 1.22.0
 _ZNK3qbs8Internal16FileResourceBase8filePathEv@Base 1.22.0
 _ZNK3qbs8Internal16FileResourceBase9timestampEv@Base 1.22.0
 _ZNK3qbs8Internal16InternalBuildJob10metaObjectEv@Base 1.22.0
 _ZNK3qbs8Internal16InternalCleanJob10metaObjectEv@Base 1.22.0
 _ZNK3qbs8Internal16ProductBuildData13rootArtifactsEv@Base 1.10.0
 _ZNK3qbs8Internal16ProductBuildData18artifactsByFileTagEv@Base 1.12.0
 _ZNK3qbs8Internal16ProjectBuildData11lookupFilesEPKNS0_8ArtifactE@Base 1.10.0
 _ZNK3qbs8Internal16ProjectBuildData11lookupFilesERK7QString@Base 1.10.0
 _ZNK3qbs8Internal16ProjectBuildData11lookupFilesERK7QStringS4_@Base 1.10.0
 _ZNK3qbs8Internal17ASTImportsHandler18checkImportVersionERKN8QbsQmlJS3AST14SourceLocationE@Base 1.22.0
 _ZNK3qbs8Internal17BuildDataResolver11evalContextEv@Base 1.22.0
 _ZNK3qbs8Internal17BuildDataResolver5scopeEv@Base 1.22.0
 _ZNK3qbs8Internal17BuildDataResolver6engineEv@Base 1.22.0
 _ZNK3qbs8Internal17DependencyScanner2idEv@Base 1.22.0
 _ZNK3qbs8Internal17FileInfoExtension10metaObjectEv@Base 1.22.0
 _ZNK3qbs8Internal17JavaScriptCommand4typeEv@Base 1.22.0
 _ZNK3qbs8Internal17JavaScriptCommand6equalsEPKNS0_15AbstractCommandE@Base 1.22.0
 _ZNK3qbs8Internal17JsCommandExecutor10metaObjectEv@Base 1.22.0
 _ZNK3qbs8Internal17JsCommandExecutor9jsCommandEv@Base 1.22.0
 _ZNK3qbs8Internal17LauncherInterface10metaObjectEv@Base 1.22.0
 _ZNK3qbs8Internal17StopProcessPacket11doSerializeER11QDataStream@Base 1.22.0
 _ZNK3qbs8Internal18ArtifactProperties13extraFileTagsEv@Base 1.22.0
 _ZNK3qbs8Internal18InternalInstallJob10metaObjectEv@Base 1.22.0
 _ZNK3qbs8Internal18ModuleLoaderResult11ProductInfo10Dependency10uniqueNameEv@Base 1.22.0
 _ZNK3qbs8Internal18ProcessErrorPacket11doSerializeER11QDataStream@Base 1.22.0
 _ZNK3qbs8Internal18RequestedArtifacts10isUpToDateEPKNS0_15TopLevelProjectE@Base 1.22.0
 _ZNK3qbs8Internal18RequestedArtifacts14doSanityChecksEv@Base 1.22.0
 _ZNK3qbs8Internal18RequestedArtifacts28RequestedArtifactsPerProduct10isUpToDateEPKNS0_15ResolvedProductE@Base 1.22.0
 _ZNK3qbs8Internal18RequestedArtifacts28RequestedArtifactsPerProduct14doSanityChecksEv@Base 1.22.0
 _ZNK3qbs8Internal18StartProcessPacket11doSerializeER11QDataStream@Base 1.22.0
 _ZNK3qbs8Internal18TrafoChangeTracker10getProductERK7QString@Base 1.22.0
 _ZNK3qbs8Internal18TrafoChangeTracker11getArtifactERK7QStringS4_@Base 1.22.0
 _ZNK3qbs8Internal18TrafoChangeTracker17commandsNeedRerunEv@Base 1.22.0
 _ZNK3qbs8Internal18TrafoChangeTracker17propertyMapByKindERKNS0_8PropertyE@Base 1.22.0
 _ZNK3qbs8Internal18TrafoChangeTracker22checkForPropertyChangeERKNS0_8PropertyERK4QMapI7QString8QVariantE@Base 1.22.0
 _ZNK3qbs8Internal18TrafoChangeTracker23prepareScriptNeedsRerunEv@Base 1.22.0
 _ZNK3qbs8Internal18TrafoChangeTracker24checkForImportFileChangeERKSt6vectorI7QStringSaIS3_EERKNS0_8FileTimeEPKc@Base 1.22.0
 _ZNK3qbs8Internal18TrafoChangeTracker24isExportedModuleUpToDateERK7QStringRKNS0_14ExportedModuleE@Base 1.22.0
 _ZNK3qbs8Internal18TrafoChangeTracker26areExportedModulesUpToDateERKSt13unordered_mapI7QStringNS0_14ExportedModuleESt4hashIS3_ESt8equal_toIS3_ESaISt4pairIKS3_S4_EEE@Base 1.22.0
 _ZNK3qbs8Internal18UtilitiesExtension10metaObjectEv@Base 1.22.0
 _ZNK3qbs8Internal19BuiltinDeclarations11nameForTypeENS0_8ItemTypeE@Base 1.22.0
 _ZNK3qbs8Internal19BuiltinDeclarations11typeForNameERK7QStringRKNS_12CodeLocationE@Base 1.22.0
 _ZNK3qbs8Internal19BuiltinDeclarations12allTypeNamesEv@Base 1.22.0
 _ZNK3qbs8Internal19BuiltinDeclarations15languageVersionEv@Base 1.22.0
 _ZNK3qbs8Internal19BuiltinDeclarations19declarationsForTypeENS0_8ItemTypeE@Base 1.22.0
 _ZNK3qbs8Internal19BuiltinDeclarations30argumentNamesForScriptFunctionENS0_8ItemTypeERK7QString@Base 1.22.0
 _ZNK3qbs8Internal19PropertyDeclaration10typeStringEv@Base 1.22.0
 _ZNK3qbs8Internal19PropertyDeclaration11descriptionEv@Base 1.22.0
 _ZNK3qbs8Internal19PropertyDeclaration12isDeprecatedEv@Base 1.22.0
 _ZNK3qbs8Internal19PropertyDeclaration13allowedValuesEv@Base 1.22.0
 _ZNK3qbs8Internal19PropertyDeclaration15deprecationInfoEv@Base 1.22.0
 _ZNK3qbs8Internal19PropertyDeclaration18initialValueSourceEv@Base 1.22.0
 _ZNK3qbs8Internal19PropertyDeclaration21functionArgumentNamesEv@Base 1.22.0
 _ZNK3qbs8Internal19PropertyDeclaration4nameEv@Base 1.22.0
 _ZNK3qbs8Internal19PropertyDeclaration4typeEv@Base 1.22.0
 _ZNK3qbs8Internal19PropertyDeclaration5flagsEv@Base 1.22.0
 _ZNK3qbs8Internal19PropertyDeclaration7isValidEv@Base 1.22.0
 _ZNK3qbs8Internal19PropertyDeclaration8isScalarEv@Base 1.22.0
 _ZNK3qbs8Internal19PropertyDeclaration9isExpiredEv@Base 1.22.0
 _ZNK3qbs8Internal19PropertyMapInternal14modulePropertyERK7QStringS4_Pb@Base 1.12.0
 _ZNK3qbs8Internal19PropertyMapInternal16qbsPropertyValueERK7QString@Base 1.10.0
 _ZNK3qbs8Internal19PropertyMapInternal8propertyERK11QStringList@Base 1.10.0
 _ZNK3qbs8Internal20EnvironmentExtension10metaObjectEv@Base 1.22.0
 _ZNK3qbs8Internal20InputArtifactScanner19scannersForArtifactEPKNS0_8ArtifactE@Base 1.22.0
 _ZNK3qbs8Internal20ItemReaderASTVisitor14toCodeLocationERKN8QbsQmlJS3AST14SourceLocationE@Base 1.22.0
 _ZNK3qbs8Internal20RawScannedDependency8filePathEv@Base 1.22.0
 _ZNK3qbs8Internal21BuildGraphTouchingJob10metaObjectEv@Base 1.22.0
 _ZNK3qbs8Internal21ProcessFinishedPacket11doSerializeER11QDataStream@Base 1.22.0
 _ZNK3qbs8Internal21RequestedDependencies10isUpToDateEPKNS0_15TopLevelProjectE@Base 1.22.0
 _ZNK3qbs8Internal21UserDependencyScanner14cacheIsPerFileEv@Base 1.22.0
 _ZNK3qbs8Internal21UserDependencyScanner29areModulePropertiesCompatibleERKSt10shared_ptrIKNS0_19PropertyMapInternalEES7_@Base 1.22.0
 _ZNK3qbs8Internal21UserDependencyScanner3keyEv@Base 1.22.0
 _ZNK3qbs8Internal21UserDependencyScanner8createIdEv@Base 1.22.0
 _ZNK3qbs8Internal21UserDependencyScanner9recursiveEv@Base 1.22.0
 _ZNK3qbs8Internal21VsEnvironmentDetector14writeBatchFileEP9QIODeviceRK7QStringRKSt6vectorIPNS0_4MSVCESaIS9_EE@Base 1.8.0
 _ZNK3qbs8Internal21VsEnvironmentDetector16findVcVarsAllBatERKNS0_4MSVCERSt6vectorI7QStringSaIS6_EE@Base 1.11.0
 _ZNK3qbs8Internal22ItemReaderVisitorState16mostDerivingItemEv@Base 1.22.0
 _ZNK3qbs8Internal22ItemReaderVisitorState20findDirectoryEntriesERK7QStringP11QStringList@Base 1.22.0
 _ZNK3qbs8Internal22ProcessCommandExecutor10metaObjectEv@Base 1.22.0
 _ZNK3qbs8Internal22ProcessCommandExecutor14processCommandEv@Base 1.22.0
 _ZNK3qbs8Internal23AbstractCommandExecutor10metaObjectEv@Base 1.22.0
 _ZNK3qbs8Internal23EnvironmentScriptRunner6engineEv@Base 1.22.0
 _ZNK3qbs8Internal23EnvironmentScriptRunner9getScriptEPKNS0_14ResolvedModuleE@Base 1.22.0
 _ZNK3qbs8Internal23InternalSetupProjectJob10metaObjectEv@Base 1.22.0
 _ZNK3qbs8Internal23InternalSetupProjectJob7projectEv@Base 1.22.0
 _ZNK3qbs8Internal23PluginDependencyScanner14cacheIsPerFileEv@Base 1.22.0
 _ZNK3qbs8Internal23PluginDependencyScanner29areModulePropertiesCompatibleERKSt10shared_ptrIKNS0_19PropertyMapInternalEES7_@Base 1.22.0
 _ZNK3qbs8Internal23PluginDependencyScanner3keyEv@Base 1.22.0
 _ZNK3qbs8Internal23PluginDependencyScanner8createIdEv@Base 1.22.0
 _ZNK3qbs8Internal23PluginDependencyScanner9recursiveEv@Base 1.22.0
 _ZNK3qbs8Internal23VisualStudioVersionInfo11usesMsBuildEv@Base 1.5.0
 _ZNK3qbs8Internal23VisualStudioVersionInfo11usesVcBuildEv@Base 1.5.0
 _ZNK3qbs8Internal23VisualStudioVersionInfo12toolsVersionEv@Base 1.5.0
 _ZNK3qbs8Internal23VisualStudioVersionInfo13usesSolutionsEv@Base 1.5.0
 _ZNK3qbs8Internal23VisualStudioVersionInfo15solutionVersionEv@Base 1.5.0
 _ZNK3qbs8Internal23VisualStudioVersionInfo16marketingVersionEv@Base 1.5.0
 _ZNK3qbs8Internal23VisualStudioVersionInfo22platformToolsetVersionEv@Base 1.5.0
 _ZNK3qbs8Internal23VisualStudioVersionInfo7versionEv@Base 1.5.0
 _ZNK3qbs8Internal23VisualStudioVersionInfoeqERKS1_@Base 1.5.0
 _ZNK3qbs8Internal23VisualStudioVersionInfoltERKS1_@Base 1.5.0
 _ZNK3qbs8Internal24InternalJobThreadWrapper10metaObjectEv@Base 1.22.0
 _ZNK3qbs8Internal27ScriptClassPropertyIterator11hasPreviousEv@Base 1.22.0
 _ZNK3qbs8Internal27ScriptClassPropertyIterator4nameEv@Base 1.22.0
 _ZNK3qbs8Internal27ScriptClassPropertyIterator7hasNextEv@Base 1.22.0
 _ZNK3qbs8Internal29JsCommandExecutorThreadObject10metaObjectEv@Base 1.22.0
 _ZNK3qbs8Internal2Id10withPrefixEPKc@Base 1.10.0
 _ZNK3qbs8Internal2Id10withSuffixEPKc@Base 1.10.0
 _ZNK3qbs8Internal2Id10withSuffixEi@Base 1.10.0
 _ZNK3qbs8Internal2Id20alphabeticallyBeforeES1_@Base 1.10.0
 _ZNK3qbs8Internal2Id4nameEv@Base 1.10.0
 _ZNK3qbs8Internal2Id8toStringEv@Base 1.10.0
 _ZNK3qbs8Internal2Id9toSettingEv@Base 1.10.0
 _ZNK3qbs8Internal2IdeqEPKc@Base 1.10.0
 _ZNK3qbs8Internal35DependencyParameterDeclarationCheck5checkERK4QMapI7QString8QVariantERKNS0_11QualifiedIdE@Base 1.22.0
 _ZNK3qbs8Internal36EvaluatorScriptClassPropertyIterator11hasPreviousEv@Base 1.22.0
 _ZNK3qbs8Internal36EvaluatorScriptClassPropertyIterator4nameEv@Base 1.22.0
 _ZNK3qbs8Internal36EvaluatorScriptClassPropertyIterator7hasNextEv@Base 1.22.0
 (optional=templinst)_ZNK3qbs8Internal3SetI7QStringE5storeERNS0_14PersistentPoolE@Base 1.22.0
 (optional=templinst)_ZNK3qbs8Internal3SetI7QStringE9storeElemERNS0_14PersistentPoolERKS2_@Base 1.22.0
 (optional=templinst)_ZNK3qbs8Internal3SetINS0_7FileTagEE10intersectsERKS3_@Base 1.22.0
 (optional=templinst)_ZNK3qbs8Internal3SetINS0_7FileTagEE5storeERNS0_14PersistentPoolE@Base 1.22.0
 (optional=templinst)_ZNK3qbs8Internal3SetINS0_7FileTagEE9storeElemERNS0_14PersistentPoolERKS2_@Base 1.22.0
 (optional=templinst)_ZNK3qbs8Internal3SetINS0_8PropertyEE5storeERNS0_14PersistentPoolE@Base 1.22.0
 (optional=templinst)_ZNK3qbs8Internal3SetINS0_8PropertyEE9storeElemERNS0_14PersistentPoolERKS2_@Base 1.22.0
 (optional=templinst)_ZNK3qbs8Internal3SetIPNS0_14BuildGraphNodeEE5storeERNS0_14PersistentPoolE@Base 1.22.0
 (optional=templinst)_ZNK3qbs8Internal3SetIPNS0_14BuildGraphNodeEE9storeElemERNS0_14PersistentPoolERKS3_@Base 1.22.0
 (optional=templinst)_ZNK3qbs8Internal3SetIPNS0_14FileDependencyEE9storeElemERNS0_14PersistentPoolERKS3_@Base 1.22.0
 (optional=templinst)_ZNK3qbs8Internal3SetIPNS0_8ArtifactEE5storeERNS0_14PersistentPoolE@Base 1.22.0
 (optional=templinst)_ZNK3qbs8Internal3SetIPNS0_8ArtifactEE8containsERKS3_@Base 1.22.0
 (optional=templinst)_ZNK3qbs8Internal3SetIPNS0_8ArtifactEE8toStringEv@Base 1.22.0
 (optional=templinst)_ZNK3qbs8Internal3SetIPNS0_8ArtifactEE9storeElemERNS0_14PersistentPoolERKS3_@Base 1.22.0
 _ZNK3qbs8Internal4File10metaObjectEv@Base 1.22.0
 _ZNK3qbs8Internal4Host10metaObjectEv@Base 1.22.0
 _ZNK3qbs8Internal4Item11hasPropertyERK7QString@Base 1.10.0
 _ZNK3qbs8Internal4Item11ownPropertyERK7QString@Base 1.10.0
 _ZNK3qbs8Internal4Item11setObserverEPNS0_12ItemObserverE@Base 1.10.0
 _ZNK3qbs8Internal4Item12copyPropertyERK7QStringPS1_@Base 1.10.0
 _ZNK3qbs8Internal4Item14hasOwnPropertyERK7QString@Base 1.10.0
 _ZNK3qbs8Internal4Item14sourcePropertyERK7QString@Base 1.10.0
 _ZNK3qbs8Internal4Item15isPresentModuleEv@Base 1.10.0
 _ZNK3qbs8Internal4Item15variantPropertyERK7QString@Base 1.10.0
 _ZNK3qbs8Internal4Item19propertyDeclarationERK7QStringb@Base 1.10.0
 _ZNK3qbs8Internal4Item25isOfTypeOrhasParentOfTypeENS0_8ItemTypeE@Base 1.10.0
 _ZNK3qbs8Internal4Item4dumpEi@Base 1.10.0
 _ZNK3qbs8Internal4Item4dumpEv@Base 1.10.0
 _ZNK3qbs8Internal4Item5childENS0_8ItemTypeEb@Base 1.10.0
 _ZNK3qbs8Internal4Item5cloneEv@Base 1.10.0
 _ZNK3qbs8Internal4Item8propertyERK7QString@Base 1.10.0
 _ZNK3qbs8Internal4Item8typeNameEv@Base 1.10.0
 _ZNK3qbs8Internal4MSVC12toVariantMapEv@Base 1.16.0
 _ZNK3qbs8Internal4MSVC15compilerDefinesERK7QStringNS1_16CompilerLanguageE@Base 1.10.0
 _ZNK3qbs8Internal4MSVC21clPathForArchitectureERK7QString@Base 1.7.0
 _ZNK3qbs8Internal4MSVC22binPathForArchitectureERK7QString@Base 1.7.0
 _ZNK3qbs8Internal4Node15uniqueChildNameEv@Base 1.22.0
 _ZNK3qbs8Internal4Node22hasDirectChildWithNameERK7QString@Base 1.22.0
 _ZNK3qbs8Internal4Rule14declaresInputsEv@Base 1.22.0
 _ZNK3qbs8Internal4Rule20staticOutputFileTagsEv@Base 1.22.0
 _ZNK3qbs8Internal4Rule23collectedOutputFileTagsEv@Base 1.22.0
 _ZNK3qbs8Internal4Rule5cloneEv@Base 1.22.0
 _ZNK3qbs8Internal4Rule8toStringEv@Base 1.22.0
 _ZNK3qbs8Internal4Rule9isDynamicEv@Base 1.22.0
 _ZNK3qbs8Internal5Probe16needsReconfigureERKNS0_8FileTimeE@Base 1.22.0
 _ZNK3qbs8Internal5Value12definingItemEv@Base 1.22.0
 _ZNK3qbs8Internal5Value4nextEv@Base 1.22.0
 _ZNK3qbs8Internal5Value8locationEv@Base 1.22.0
 _ZNK3qbs8Internal6Logger12debugEnabledEv@Base 1.2.1
 _ZNK3qbs8Internal6Logger12traceEnabledEv@Base 1.2.1
 _ZNK3qbs8Internal6Logger6qbsLogENS_11LoggerLevelEb@Base 1.2.1
 _ZNK3qbs8Internal7FileTag5storeERNS0_14PersistentPoolE@Base 1.22.0
 _ZNK3qbs8Internal7Process10metaObjectEv@Base 1.22.0
 _ZNK3qbs8Internal7Process14findExecutableERK7QString@Base 1.22.0
 _ZNK3qbs8Internal7Process5atEndEv@Base 1.22.0
 _ZNK3qbs8Internal7Process8exitCodeEv@Base 1.22.0
 _ZNK3qbs8Internal8Artifact14childArtifactsEv@Base 1.10.0
 _ZNK3qbs8Internal8Artifact15parentArtifactsEv@Base 1.10.0
 _ZNK3qbs8Internal8Artifact4typeEv@Base 1.22.0
 _ZNK3qbs8Internal8Artifact8fileTypeEv@Base 1.22.0
 _ZNK3qbs8Internal8Artifact8producerEv@Base 1.13.0
 _ZNK3qbs8Internal8Artifact8toStringEv@Base 1.10.0
 _ZNK3qbs8Internal8Executor10isUpToDateEPNS0_8ArtifactE@Base 1.22.0
 _ZNK3qbs8Internal8Executor10metaObjectEv@Base 1.22.0
 _ZNK3qbs8Internal8Executor12configStringEv@Base 1.22.0
 _ZNK3qbs8Internal8Executor15ComparePriorityclEPKNS0_14BuildGraphNodeES5_@Base 1.22.0
 _ZNK3qbs8Internal8Executor17recursiveFileTimeERK7QString@Base 1.22.0
 _ZNK3qbs8Internal8Executor22mustExecuteTransformerERKSt10shared_ptrINS0_11TransformerEE@Base 1.22.0
 _ZNK3qbs8Internal8Executor27retrieveSourceFileTimestampEPNS0_8ArtifactE@Base 1.22.0
 _ZNK3qbs8Internal8Executor29artifactHasMatchingOutputTagsEPKNS0_8ArtifactE@Base 1.22.0
 _ZNK3qbs8Internal8Executor32transformerHasMatchingInputFilesERKSt10shared_ptrIKNS0_11TransformerEE@Base 1.22.0
 _ZNK3qbs8Internal8Executor32transformerHasMatchingOutputTagsERKSt10shared_ptrIKNS0_11TransformerEE@Base 1.22.0
 _ZNK3qbs8Internal8FileInfo12lastModifiedEv@Base 1.10.0
 _ZNK3qbs8Internal8FileInfo16lastStatusChangeEv@Base 1.10.0
 _ZNK3qbs8Internal8FileInfo5isDirEv@Base 1.10.0
 _ZNK3qbs8Internal8FileInfo6existsEv@Base 1.10.0
 _ZNK3qbs8Internal8FileTime7compareERKS1_@Base 1.10.0
 _ZNK3qbs8Internal8FileTime7isValidEv@Base 1.10.0
 _ZNK3qbs8Internal8FileTime8asDoubleEv@Base 1.10.0
 _ZNK3qbs8Internal8FileTime8toStringEv@Base 1.10.0
 _ZNK3qbs8Internal8RuleNode16transformerCountEv@Base 1.22.0
 _ZNK3qbs8Internal8RuleNode21changedInputArtifactsERKNS0_3SetIPNS0_8ArtifactEEES7_S7_@Base 1.22.0
 _ZNK3qbs8Internal8RuleNode21currentInputArtifactsEv@Base 1.22.0
 _ZNK3qbs8Internal8RuleNode4typeEv@Base 1.22.0
 _ZNK3qbs8Internal8RuleNode8toStringEv@Base 1.22.0
 _ZNK3qbs8Internal8TextFile10metaObjectEv@Base 1.22.0
 _ZNK3qbs8Internal8TextFile14checkForClosedEv@Base 1.22.0
 _ZNK3qbs8Internal8TextFile5atEofEv@Base 1.22.0
 _ZNK3qbs8Internal9Evaluator17isNonDefaultValueEPKNS0_4ItemERK7QString@Base 1.11.0
 _ZNK3qbs8Internal9Evaluator20propertyDependenciesEv@Base 1.10.0
 _ZNK3qbs8Internal9ItemValue5cloneEv@Base 1.22.0
 _ZNK3qbs8Internal9QtScanner14cacheIsPerFileEv@Base 1.22.0
 _ZNK3qbs8Internal9QtScanner29areModulePropertiesCompatibleERKSt10shared_ptrIKNS0_19PropertyMapInternalEES7_@Base 1.22.0
 _ZNK3qbs8Internal9QtScanner3keyEv@Base 1.22.0
 _ZNK3qbs8Internal9QtScanner8createIdEv@Base 1.22.0
 _ZNK3qbs8Internal9QtScanner9recursiveEv@Base 1.22.0
 _ZNK3qbs8Internal9RuleGraph4dumpEv@Base 1.22.0
 _ZNK3qbs8Internal9RuleGraph6acceptEPNS0_16RuleGraphVisitorE@Base 1.22.0
 _ZNK3qbs8Internal9RuleGraph8traverseEPNS0_16RuleGraphVisitorERKSt10shared_ptrIKNS0_4RuleEES9_@Base 1.22.0
 _ZNK3qbs8Internal9RuleGraph9dump_implER10QByteArrayi@Base 1.22.0
 _ZNK3qbs8JobLimit4poolEv@Base 1.13.0
 _ZNK3qbs8JobLimit5limitEv@Base 1.13.0
 _ZNK3qbs8PcParser17trimAndSubstituteB5cxx11ERKNS_9PcPackageESt17basic_string_viewIcSt11char_traitsIcEE@Base 1.22.0
 _ZNK3qbs8Settings14defaultProfileEv@Base 1.2.1
 _ZNK3qbs8Settings14directChildrenERK7QStringNS0_5ScopeE@Base 1.12.0
 _ZNK3qbs8Settings16settingsForScopeENS0_5ScopeE@Base 1.12.0
 _ZNK3qbs8Settings16targetForWritingEv@Base 1.12.0
 _ZNK3qbs8Settings17allKeysWithPrefixERK7QString6QFlagsINS0_5ScopeEE@Base 1.12.0
 _ZNK3qbs8Settings22externalRepresentationERK7QString@Base 1.2.1
 _ZNK3qbs8Settings22internalRepresentationERK7QString@Base 1.2.1
 _ZNK3qbs8Settings5valueERK7QString6QFlagsINS0_5ScopeEERK8QVariant@Base 1.12.0
 _ZNK3qbs8Settings7allKeysE6QFlagsINS0_5ScopeEE@Base 1.12.0
 _ZNK3qbs8Settings8fileNameEv@Base 1.2.1
 _ZNK3qbs8Settings8profilesEv@Base 1.2.1
 _ZNK3qbs8Settings9fixupKeysER11QStringList@Base 1.2.1
 _ZNK3qbs9ErrorInfo11hasLocationEv@Base 1.10.0
 _ZNK3qbs9ErrorInfo15isInternalErrorEv@Base 1.2.1
 _ZNK3qbs9ErrorInfo5itemsEv@Base 1.2.1
 _ZNK3qbs9ErrorInfo5storeERNS_8Internal14PersistentPoolE@Base 1.7.0
 _ZNK3qbs9ErrorInfo6toJsonEv@Base 1.16.0
 _ZNK3qbs9ErrorInfo8hasErrorEv@Base 1.22.0
 _ZNK3qbs9ErrorInfo8toStringEv@Base 1.2.1
 _ZNK3qbs9ErrorItem11descriptionEv@Base 1.2.1
 _ZNK3qbs9ErrorItem12codeLocationEv@Base 1.2.1
 _ZNK3qbs9ErrorItem15isBacktraceItemEv@Base 1.5.0
 _ZNK3qbs9ErrorItem5storeERNS_8Internal14PersistentPoolE@Base 1.7.0
 _ZNK3qbs9ErrorItem6toJsonEv@Base 1.16.0
 _ZNK3qbs9ErrorItem8toStringEv@Base 1.2.1
 _ZNK3qbs9GroupData10propertiesEv@Base 1.2.1
 _ZNK3qbs9GroupData12allFilePathsEv@Base 1.2.1
 _ZNK3qbs9GroupData15sourceArtifactsEv@Base 1.4.0
 _ZNK3qbs9GroupData18allSourceArtifactsEv@Base 1.4.0
 _ZNK3qbs9GroupData28sourceArtifactsFromWildcardsEv@Base 1.4.0
 _ZNK3qbs9GroupData4nameEv@Base 1.2.1
 _ZNK3qbs9GroupData6prefixEv@Base 1.5.0
 _ZNK3qbs9GroupData6toJsonERK11QStringList@Base 1.16.0
 _ZNK3qbs9GroupData7isValidEv@Base 1.2.1
 _ZNK3qbs9GroupData8locationEv@Base 1.2.1
 _ZNK3qbs9GroupData9isEnabledEv@Base 1.2.1
 _ZNK3qbs9JobLimits10jobLimitAtEi@Base 1.13.0
 _ZNK3qbs9JobLimits5countEv@Base 1.13.0
 _ZNK3qbs9JobLimits7isEmptyEv@Base 1.13.0
 _ZNK3qbs9JobLimits8getLimitERK7QString@Base 1.13.0
 _ZNK3qbs9PkgConfig10getPackageESt17basic_string_viewIcSt11char_traitsIcEE@Base 1.22.0
 _ZNK3qbs9PkgConfig12findPackagesEv@Base 1.22.0
 _ZNK3qbs9PkgConfig17mergeDependenciesERKSt6vectorINS_16PcPackageVariantESaIS2_EE@Base 1.22.0
 _ZNK3qbs9PkgConfig18packageGetVariableERKNS_9PcPackageESt17basic_string_viewIcSt11char_traitsIcEE@Base 1.22.0
 (optional=templinst)_ZNK4QMapI7QString8QVariantEeqERKS2_@Base 1.22.0
 (optional=templinst)_ZNK4QMapI7QStringN3qbs11ProjectDataEE6valuesEv@Base 1.22.0
 (optional=templinst)_ZNK5QHashI11QStringList7QStringE8findNodeERKS0_j@Base 1.22.0
 (optional=templinst)_ZNK5QHashI11QStringListSt4pairISt10shared_ptrIN3qbs8Internal18ArtifactPropertiesEESt6vectorINS3_12CodeLocationESaIS8_EEEE8findNodeERKS0_j@Base 1.22.0
 (optional=templinst)_ZNK5QHashI11QStringListiE8findNodeERKS0_j@Base 1.22.0
 (optional=templinst)_ZNK5QHashI11QStringView7QStringE8findNodeERKS0_j@Base 1.22.0
 (optional=templinst)_ZNK5QHashI13QScriptString12QScriptValueE8findNodeERKS0_j@Base 1.22.0
 (optional=templinst)_ZNK5QHashI19QProcessEnvironmentiE8findNodeERKS0_j@Base 1.22.0
 (optional=templinst)_ZNK5QHashI7QString11QStringListE8findNodeERKS0_j@Base 1.22.0
 (optional=templinst)_ZNK5QHashI7QString15QHashDummyValueE8findNodeERKS0_j@Base 1.22.0
 (optional=templinst)_ZNK5QHashI7QString15QHashDummyValueEeqERKS2_@Base 1.22.0
 (optional=templinst)_ZNK5QHashI7QString4QMapIS0_8QVariantEE8findNodeERKS0_j@Base 1.22.0
 (optional=templinst)_ZNK5QHashI7QStringN3qbs8Internal12ModuleLoader17ProductModuleInfoEE8findNodeERKS0_Pj@Base 1.22.0
 (optional=templinst)_ZNK5QHashI7QStringN3qbs8Internal21RescuableArtifactDataEE8findNodeERKS0_j@Base 1.22.0
 (optional=templinst)_ZNK5QHashI7QStringN3qbs8Internal27InputArtifactScannerContext27ResolvedDependencyCacheItemEE8findNodeERKS0_j@Base 1.22.0
 (optional=templinst)_ZNK5QHashI7QStringN3qbs8Internal3SetINS2_8PropertyEEEE8findNodeERKS0_j@Base 1.22.0
 (optional=templinst)_ZNK5QHashI7QStringN3qbs8Internal8FileTimeEE8findNodeERKS0_j@Base 1.22.0
 (optional=templinst)_ZNK5QHashI7QStringN3qbs8Internal8ItemTypeEE8findNodeERKS0_j@Base 1.22.0
 (optional=templinst)_ZNK5QHashI7QStringN3qbs8Internal8JsImportEE8findNodeERKS0_j@Base 1.22.0
 (optional=templinst)_ZNK5QHashI7QStringPN8QbsQmlJS3AST18UiObjectMemberListEE8findNodeERKS0_j@Base 1.22.0
 (optional=templinst)_ZNK5QHashI7QStringS0_E8findNodeERKS0_j@Base 1.22.0
 (optional=templinst)_ZNK5QHashI7QStringS_IS0_N3qbs8Internal21RescuableArtifactDataEEE8findNodeERKS0_j@Base 1.22.0
 (optional=templinst)_ZNK5QHashI7QStringS_IS0_N3qbs8Internal27InputArtifactScannerContext27ResolvedDependencyCacheItemEEE8findNodeERKS0_j@Base 1.22.0
 (optional=templinst)_ZNK5QHashI7QStringSt6vectorIN3qbs8Internal14RawScanResults8ScanDataESaIS5_EEE8findNodeERKS0_j@Base 1.22.0
 (optional=templinst)_ZNK5QHashI7QStringSt6vectorIPN3qbs8Internal12ModuleLoader14ProductContextESaIS6_EEE8findNodeERKS0_j@Base 1.22.0
 (optional=templinst)_ZNK5QHashI7QStringSt6vectorISt10shared_ptrIKN3qbs8Internal5ProbeEESaIS7_EEE8findNodeERKS0_j@Base 1.22.0
 (optional=templinst)_ZNK5QHashI7QStringbE8findNodeERKS0_j@Base 1.22.0
 (optional=templinst)_ZNK5QHashI7QStringiE8findNodeERKS0_j@Base 1.22.0
 (optional=templinst)_ZNK5QHashIN3qbs12CodeLocationESt10shared_ptrINS0_8Internal14ScriptFunctionEEE8findNodeERKS1_j@Base 1.22.0
 (optional=templinst)_ZNK5QHashIN3qbs12CodeLocationESt6vectorISt10shared_ptrIKNS0_8Internal5ProbeEESaIS7_EEE8findNodeERKS1_Pj@Base 1.22.0
 (optional=templinst)_ZNK5QHashIN3qbs12CodeLocationESt6vectorISt10shared_ptrIKNS0_8Internal5ProbeEESaIS7_EEE8findNodeERKS1_j@Base 1.22.0
 (optional=templinst)_ZNK5QHashIN3qbs8Internal11QualifiedIdENS1_3SetIS2_EEE8findNodeERKS2_j@Base 1.22.0
 (optional=templinst)_ZNK5QHashIN3qbs8Internal11QualifiedIdEPNS1_4ItemEE8findNodeERKS2_j@Base 1.22.0
 (optional=templinst)_ZNK5QHashIN3qbs8Internal12ScriptEngine16PropertyCacheKeyE8QVariantE8findNodeERKS3_j@Base 1.22.0
 (optional=templinst)_ZNK5QHashIN3qbs8Internal12StringHolderEiE8findNodeERKS2_j@Base 1.22.0
 (optional=templinst)_ZNK5QHashIN3qbs8Internal8JsImportE12QScriptValueE8findNodeERKS2_j@Base 1.22.0
 (optional=templinst)_ZNK5QHashIPN3qbs8Internal11ExecutorJobESt10shared_ptrINS1_11TransformerEEE4keysEv@Base 1.22.0
 (optional=templinst|arch=amd64 arm64 mips64el ppc64 ppc64el riscv64 s390x)_ZNK5QHashIPN3qbs8Internal15ResolvedProductENS1_3SetIS3_EEE8findNodeERKS3_Pj@Base 1.22.0
 (optional=templinst|arch=amd64 arm64 mips64el ppc64 ppc64el riscv64 s390x)_ZNK5QHashIPN3qbs8Internal4ItemES3_E8findNodeERKS3_Pj@Base 1.22.0
 (optional=templinst)_ZNK5QHashISt4pairI11QStringView11QStringListE7QStringE8findNodeERKS3_j@Base 1.22.0
 (optional=templinst)_ZNK5QHashISt4pairI7QStringN3qbs8Internal11QualifiedIdEESt8optionalIS1_EE8findNodeERKS5_j@Base 1.22.0
 (optional=templinst)_ZNK5QHashISt4pairI7QStringS1_EN3qbs12CodeLocationEE8findNodeERKS2_j@Base 1.22.0
 (optional=templinst)_ZNK5QHashISt4pairI7QStringjE11QStringListE8findNodeERKS2_j@Base 1.22.0
 (optional=templinst)_ZNK5QHashISt4pairIPN3qbs8Internal4ItemEPNS2_12ModuleLoader14ProductContextEEbE8findNodeERKS8_Pj@Base 1.22.0
 (optional=templinst)_ZNK5QHashISt4pairIPN3qbs8Internal4ItemEPNS2_12ModuleLoader14ProductContextEEbE8findNodeERKS8_j@Base 1.22.0
 (optional=templinst)_ZNK5QHashISt5tupleIJ7QString4QMapIS1_8QVariantEiEEN3qbs8Internal18ModuleProviderInfoEE8findNodeERKS5_Pj@Base 1.22.0
 (optional=templinst)_ZNK5QHashISt5tupleIJ7QString4QMapIS1_8QVariantEiEEN3qbs8Internal18ModuleProviderInfoEE8findNodeERKS5_j@Base 1.22.0
 (optional=templinst)_ZNK5QListI12QScriptValueE3midEii@Base 1.22.0
 (optional=templinst)_ZNK5QListI7QStringE3midEii@Base 1.22.0
 (optional=templinst)_ZNK5QListI7QStringEeqERKS1_@Base 1.22.0
 (optional=templinst)_ZNK5QListI8QVariantEplERKS1_@Base 1.22.0
 (optional=templinst)_ZNK5QListIN3qbs12ArtifactDataEEeqERKS2_@Base 1.22.0
 (optional=templinst)_ZNK8QMapNodeI7QString11QStringListE4copyEP8QMapDataIS0_S1_E@Base 1.22.0
 (optional=templinst)_ZNK8QMapNodeI7QString4QMapIS0_8QVariantEE4copyEP8QMapDataIS0_S3_E@Base 1.22.0
 (optional=templinst)_ZNK8QMapNodeI7QString5QListIPN3qbs8Internal8ArtifactEEE4copyEP8QMapDataIS0_S6_E@Base 1.22.0
 (optional=templinst)_ZNK8QMapNodeI7QString8QVariantE4copyEP8QMapDataIS0_S1_E@Base 1.22.0
 (optional=templinst)_ZNK8QMapNodeI7QStringN3qbs11ProductDataEE4copyEP8QMapDataIS0_S2_E@Base 1.22.0
 (optional=templinst)_ZNK8QMapNodeI7QStringN3qbs11ProjectDataEE4copyEP8QMapDataIS0_S2_E@Base 1.22.0
 (optional=templinst)_ZNK8QMapNodeI7QStringN3qbs7ProjectEE4copyEP8QMapDataIS0_S2_E@Base 1.22.0
 (optional=templinst)_ZNK8QMapNodeI7QStringN3qbs8Internal19PropertyDeclarationEE4copyEP8QMapDataIS0_S3_E@Base 1.22.0
 (optional=templinst)_ZNK8QMapNodeI7QStringPFv12QScriptValueEE4copyEP8QMapDataIS0_S3_E@Base 1.22.0
 (optional=templinst)_ZNK8QMapNodeI7QStringPKN3qbs8Internal14ResolvedModuleEE4copyEP8QMapDataIS0_S5_E@Base 1.22.0
 (optional=templinst)_ZNK8QMapNodeI7QStringPbE4copyEP8QMapDataIS0_S1_E@Base 1.22.0
 (optional=templinst)_ZNK8QMapNodeI7QStringSt10shared_ptrIN3qbs16ProjectGeneratorEEE4copyEP8QMapDataIS0_S4_E@Base 1.22.0
 (optional=templinst)_ZNK8QMapNodeI7QStringSt10shared_ptrIN3qbs8Internal15ResolvedProductEEE4copyEP8QMapDataIS0_S5_E@Base 1.22.0
 (optional=templinst)_ZNK8QMapNodeI7QStringSt10shared_ptrIN3qbs8Internal18ArtifactPropertiesEEE4copyEP8QMapDataIS0_S5_E@Base 1.22.0
 (optional=templinst)_ZNK8QMapNodeI7QStringSt10shared_ptrIN3qbs8Internal4RuleEEE4copyEP8QMapDataIS0_S5_E@Base 1.22.0
 (optional=templinst)_ZNK8QMapNodeI7QStringSt10shared_ptrIN3qbs8Internal5ValueEEE4copyEP8QMapDataIS0_S5_E@Base 1.22.0
 (optional=templinst)_ZNK8QMapNodeIN3qbs8Internal7FileTagE5QListIPKNS1_4RuleEEE4copyEP8QMapDataIS2_S7_E@Base 1.22.0
 (optional=templinst)_ZNK8QMapNodeIN3qbs8Internal8ItemTypeEMNS1_15ProjectResolverEFvPNS1_4ItemEPNS3_14ProjectContextEEE4copyEP8QMapDataIS2_S9_E@Base 1.22.0
 (optional=templinst)_ZNK8QMapNodeIN3qbs8Internal8ItemTypeENS1_15ItemDeclarationEE4copyEP8QMapDataIS2_S3_E@Base 1.22.0
 (optional=templinst)_ZNK8QMapNodeISt10shared_ptrIKN3qbs8Internal15ResolvedProductEE4QMapI7QString8QVariantEE4copyEP8QMapDataIS5_S9_E@Base 1.22.0
 _ZNK8QbsQmlJS3AST10CaseClause18lastSourceLocationEv@Base 1.22.0
 _ZNK8QbsQmlJS3AST10CaseClause19firstSourceLocationEv@Base 1.22.0
 _ZNK8QbsQmlJS3AST10Expression18lastSourceLocationEv@Base 1.22.0
 _ZNK8QbsQmlJS3AST10Expression19firstSourceLocationEv@Base 1.22.0
 _ZNK8QbsQmlJS3AST11CaseClauses18lastSourceLocationEv@Base 1.22.0
 _ZNK8QbsQmlJS3AST11CaseClauses19firstSourceLocationEv@Base 1.22.0
 _ZNK8QbsQmlJS3AST11ElementList18lastSourceLocationEv@Base 1.22.0
 _ZNK8QbsQmlJS3AST11ElementList19firstSourceLocationEv@Base 1.22.0
 _ZNK8QbsQmlJS3AST11IfStatement18lastSourceLocationEv@Base 1.22.0
 _ZNK8QbsQmlJS3AST11IfStatement19firstSourceLocationEv@Base 1.22.0
 _ZNK8QbsQmlJS3AST11TrueLiteral18lastSourceLocationEv@Base 1.22.0
 _ZNK8QbsQmlJS3AST11TrueLiteral19firstSourceLocationEv@Base 1.22.0
 _ZNK8QbsQmlJS3AST12ArgumentList18lastSourceLocationEv@Base 1.22.0
 _ZNK8QbsQmlJS3AST12ArgumentList19firstSourceLocationEv@Base 1.22.0
 _ZNK8QbsQmlJS3AST12ArrayLiteral18lastSourceLocationEv@Base 1.22.0
 _ZNK8QbsQmlJS3AST12ArrayLiteral19firstSourceLocationEv@Base 1.22.0
 _ZNK8QbsQmlJS3AST12FalseLiteral18lastSourceLocationEv@Base 1.22.0
 _ZNK8QbsQmlJS3AST12FalseLiteral19firstSourceLocationEv@Base 1.22.0
 _ZNK8QbsQmlJS3AST12ForStatement18lastSourceLocationEv@Base 1.22.0
 _ZNK8QbsQmlJS3AST12ForStatement19firstSourceLocationEv@Base 1.22.0
 _ZNK8QbsQmlJS3AST12FunctionBody18lastSourceLocationEv@Base 1.22.0
 _ZNK8QbsQmlJS3AST12FunctionBody19firstSourceLocationEv@Base 1.22.0
 _ZNK8QbsQmlJS3AST12PropertyName18lastSourceLocationEv@Base 1.22.0
 _ZNK8QbsQmlJS3AST12PropertyName19firstSourceLocationEv@Base 1.22.0
 _ZNK8QbsQmlJS3AST12TryStatement18lastSourceLocationEv@Base 1.22.0
 _ZNK8QbsQmlJS3AST12TryStatement19firstSourceLocationEv@Base 1.22.0
 _ZNK8QbsQmlJS3AST12UiImportList18lastSourceLocationEv@Base 1.22.0
 _ZNK8QbsQmlJS3AST12UiImportList19firstSourceLocationEv@Base 1.22.0
 _ZNK8QbsQmlJS3AST13DefaultClause18lastSourceLocationEv@Base 1.22.0
 _ZNK8QbsQmlJS3AST13DefaultClause19firstSourceLocationEv@Base 1.22.0
 _ZNK8QbsQmlJS3AST13NewExpression18lastSourceLocationEv@Base 1.22.0
 _ZNK8QbsQmlJS3AST13NewExpression19firstSourceLocationEv@Base 1.22.0
 _ZNK8QbsQmlJS3AST13NotExpression18lastSourceLocationEv@Base 1.22.0
 _ZNK8QbsQmlJS3AST13NotExpression19firstSourceLocationEv@Base 1.22.0
 _ZNK8QbsQmlJS3AST13ObjectLiteral18lastSourceLocationEv@Base 1.22.0
 _ZNK8QbsQmlJS3AST13ObjectLiteral19firstSourceLocationEv@Base 1.22.0
 _ZNK8QbsQmlJS3AST13RegExpLiteral18lastSourceLocationEv@Base 1.22.0
 _ZNK8QbsQmlJS3AST13RegExpLiteral19firstSourceLocationEv@Base 1.22.0
 _ZNK8QbsQmlJS3AST13StatementList18lastSourceLocationEv@Base 1.22.0
 _ZNK8QbsQmlJS3AST13StatementList19firstSourceLocationEv@Base 1.22.0
 _ZNK8QbsQmlJS3AST13StringLiteral18lastSourceLocationEv@Base 1.22.0
 _ZNK8QbsQmlJS3AST13StringLiteral19firstSourceLocationEv@Base 1.22.0
 _ZNK8QbsQmlJS3AST13UiQualifiedId18lastSourceLocationEv@Base 1.22.0
 _ZNK8QbsQmlJS3AST13UiQualifiedId19firstSourceLocationEv@Base 1.22.0
 _ZNK8QbsQmlJS3AST13WithStatement18lastSourceLocationEv@Base 1.22.0
 _ZNK8QbsQmlJS3AST13WithStatement19firstSourceLocationEv@Base 1.22.0
 _ZNK8QbsQmlJS3AST14BreakStatement18lastSourceLocationEv@Base 1.22.0
 _ZNK8QbsQmlJS3AST14BreakStatement19firstSourceLocationEv@Base 1.22.0
 _ZNK8QbsQmlJS3AST14CallExpression18lastSourceLocationEv@Base 1.22.0
 _ZNK8QbsQmlJS3AST14CallExpression19firstSourceLocationEv@Base 1.22.0
 _ZNK8QbsQmlJS3AST14EmptyStatement18lastSourceLocationEv@Base 1.22.0
 _ZNK8QbsQmlJS3AST14EmptyStatement19firstSourceLocationEv@Base 1.22.0
 _ZNK8QbsQmlJS3AST14NullExpression18lastSourceLocationEv@Base 1.22.0
 _ZNK8QbsQmlJS3AST14NullExpression19firstSourceLocationEv@Base 1.22.0
 _ZNK8QbsQmlJS3AST14NumericLiteral18lastSourceLocationEv@Base 1.22.0
 _ZNK8QbsQmlJS3AST14NumericLiteral19firstSourceLocationEv@Base 1.22.0
 _ZNK8QbsQmlJS3AST14SourceElements18lastSourceLocationEv@Base 1.22.0
 _ZNK8QbsQmlJS3AST14SourceElements19firstSourceLocationEv@Base 1.22.0
 _ZNK8QbsQmlJS3AST14ThisExpression18lastSourceLocationEv@Base 1.22.0
 _ZNK8QbsQmlJS3AST14ThisExpression19firstSourceLocationEv@Base 1.22.0
 _ZNK8QbsQmlJS3AST14ThrowStatement18lastSourceLocationEv@Base 1.22.0
 _ZNK8QbsQmlJS3AST14ThrowStatement19firstSourceLocationEv@Base 1.22.0
 _ZNK8QbsQmlJS3AST14UiArrayBinding18lastSourceLocationEv@Base 1.22.0
 _ZNK8QbsQmlJS3AST14UiArrayBinding19firstSourceLocationEv@Base 1.22.0
 _ZNK8QbsQmlJS3AST14UiPublicMember18lastSourceLocationEv@Base 1.22.0
 _ZNK8QbsQmlJS3AST14UiPublicMember19firstSourceLocationEv@Base 1.22.0
 _ZNK8QbsQmlJS3AST14VoidExpression18lastSourceLocationEv@Base 1.22.0
 _ZNK8QbsQmlJS3AST14VoidExpression19firstSourceLocationEv@Base 1.22.0
 _ZNK8QbsQmlJS3AST14WhileStatement18lastSourceLocationEv@Base 1.22.0
 _ZNK8QbsQmlJS3AST14WhileStatement19firstSourceLocationEv@Base 1.22.0
 _ZNK8QbsQmlJS3AST15ReturnStatement18lastSourceLocationEv@Base 1.22.0
 _ZNK8QbsQmlJS3AST15ReturnStatement19firstSourceLocationEv@Base 1.22.0
 _ZNK8QbsQmlJS3AST15SwitchStatement18lastSourceLocationEv@Base 1.22.0
 _ZNK8QbsQmlJS3AST15SwitchStatement19firstSourceLocationEv@Base 1.22.0
 _ZNK8QbsQmlJS3AST15TildeExpression18lastSourceLocationEv@Base 1.22.0
 _ZNK8QbsQmlJS3AST15TildeExpression19firstSourceLocationEv@Base 1.22.0
 _ZNK8QbsQmlJS3AST15UiObjectBinding18lastSourceLocationEv@Base 1.22.0
 _ZNK8QbsQmlJS3AST15UiObjectBinding19firstSourceLocationEv@Base 1.22.0
 _ZNK8QbsQmlJS3AST15UiParameterList18lastSourceLocationEv@Base 1.22.0
 _ZNK8QbsQmlJS3AST15UiParameterList19firstSourceLocationEv@Base 1.22.0
 _ZNK8QbsQmlJS3AST15UiScriptBinding18lastSourceLocationEv@Base 1.22.0
 _ZNK8QbsQmlJS3AST15UiScriptBinding19firstSourceLocationEv@Base 1.22.0
 _ZNK8QbsQmlJS3AST15UiSourceElement18lastSourceLocationEv@Base 1.22.0
 _ZNK8QbsQmlJS3AST15UiSourceElement19firstSourceLocationEv@Base 1.22.0
 _ZNK8QbsQmlJS3AST16BinaryExpression18lastSourceLocationEv@Base 1.22.0
 _ZNK8QbsQmlJS3AST16BinaryExpression19firstSourceLocationEv@Base 1.22.0
 _ZNK8QbsQmlJS3AST16DeleteExpression18lastSourceLocationEv@Base 1.22.0
 _ZNK8QbsQmlJS3AST16DeleteExpression19firstSourceLocationEv@Base 1.22.0
 _ZNK8QbsQmlJS3AST16DoWhileStatement18lastSourceLocationEv@Base 1.22.0
 _ZNK8QbsQmlJS3AST16DoWhileStatement19firstSourceLocationEv@Base 1.22.0
 _ZNK8QbsQmlJS3AST16ForEachStatement18lastSourceLocationEv@Base 1.22.0
 _ZNK8QbsQmlJS3AST16ForEachStatement19firstSourceLocationEv@Base 1.22.0
 _ZNK8QbsQmlJS3AST16NestedExpression18lastSourceLocationEv@Base 1.22.0
 _ZNK8QbsQmlJS3AST16NestedExpression19firstSourceLocationEv@Base 1.22.0
 _ZNK8QbsQmlJS3AST16TypeOfExpression18lastSourceLocationEv@Base 1.22.0
 _ZNK8QbsQmlJS3AST16TypeOfExpression19firstSourceLocationEv@Base 1.22.0
 _ZNK8QbsQmlJS3AST17ContinueStatement18lastSourceLocationEv@Base 1.22.0
 _ZNK8QbsQmlJS3AST17ContinueStatement19firstSourceLocationEv@Base 1.22.0
 _ZNK8QbsQmlJS3AST17DebuggerStatement18lastSourceLocationEv@Base 1.22.0
 _ZNK8QbsQmlJS3AST17DebuggerStatement19firstSourceLocationEv@Base 1.22.0
 _ZNK8QbsQmlJS3AST17LabelledStatement18lastSourceLocationEv@Base 1.22.0
 _ZNK8QbsQmlJS3AST17LabelledStatement19firstSourceLocationEv@Base 1.22.0
 _ZNK8QbsQmlJS3AST17LocalForStatement18lastSourceLocationEv@Base 1.22.0
 _ZNK8QbsQmlJS3AST17LocalForStatement19firstSourceLocationEv@Base 1.22.0
 _ZNK8QbsQmlJS3AST17UiArrayMemberList18lastSourceLocationEv@Base 1.22.0
 _ZNK8QbsQmlJS3AST17UiArrayMemberList19firstSourceLocationEv@Base 1.22.0
 _ZNK8QbsQmlJS3AST17VariableStatement18lastSourceLocationEv@Base 1.22.0
 _ZNK8QbsQmlJS3AST17VariableStatement19firstSourceLocationEv@Base 1.22.0
 _ZNK8QbsQmlJS3AST18FunctionExpression18lastSourceLocationEv@Base 1.22.0
 _ZNK8QbsQmlJS3AST18FunctionExpression19firstSourceLocationEv@Base 1.22.0
 _ZNK8QbsQmlJS3AST18UiObjectDefinition18lastSourceLocationEv@Base 1.22.0
 _ZNK8QbsQmlJS3AST18UiObjectDefinition19firstSourceLocationEv@Base 1.22.0
 _ZNK8QbsQmlJS3AST18UiObjectMemberList18lastSourceLocationEv@Base 1.22.0
 _ZNK8QbsQmlJS3AST18UiObjectMemberList19firstSourceLocationEv@Base 1.22.0
 _ZNK8QbsQmlJS3AST19ExpressionStatement18lastSourceLocationEv@Base 1.22.0
 _ZNK8QbsQmlJS3AST19ExpressionStatement19firstSourceLocationEv@Base 1.22.0
 _ZNK8QbsQmlJS3AST19FormalParameterList18lastSourceLocationEv@Base 1.22.0
 _ZNK8QbsQmlJS3AST19FormalParameterList19firstSourceLocationEv@Base 1.22.0
 _ZNK8QbsQmlJS3AST19NewMemberExpression18lastSourceLocationEv@Base 1.22.0
 _ZNK8QbsQmlJS3AST19NewMemberExpression19firstSourceLocationEv@Base 1.22.0
 _ZNK8QbsQmlJS3AST19UiObjectInitializer18lastSourceLocationEv@Base 1.22.0
 _ZNK8QbsQmlJS3AST19UiObjectInitializer19firstSourceLocationEv@Base 1.22.0
 _ZNK8QbsQmlJS3AST19UnaryPlusExpression18lastSourceLocationEv@Base 1.22.0
 _ZNK8QbsQmlJS3AST19UnaryPlusExpression19firstSourceLocationEv@Base 1.22.0
 _ZNK8QbsQmlJS3AST19VariableDeclaration18lastSourceLocationEv@Base 1.22.0
 _ZNK8QbsQmlJS3AST19VariableDeclaration19firstSourceLocationEv@Base 1.22.0
 _ZNK8QbsQmlJS3AST20IdentifierExpression18lastSourceLocationEv@Base 1.22.0
 _ZNK8QbsQmlJS3AST20IdentifierExpression19firstSourceLocationEv@Base 1.22.0
 _ZNK8QbsQmlJS3AST20UnaryMinusExpression18lastSourceLocationEv@Base 1.22.0
 _ZNK8QbsQmlJS3AST20UnaryMinusExpression19firstSourceLocationEv@Base 1.22.0
 _ZNK8QbsQmlJS3AST21ArrayMemberExpression18lastSourceLocationEv@Base 1.22.0
 _ZNK8QbsQmlJS3AST21ArrayMemberExpression19firstSourceLocationEv@Base 1.22.0
 _ZNK8QbsQmlJS3AST21ConditionalExpression18lastSourceLocationEv@Base 1.22.0
 _ZNK8QbsQmlJS3AST21ConditionalExpression19firstSourceLocationEv@Base 1.22.0
 _ZNK8QbsQmlJS3AST21FieldMemberExpression18lastSourceLocationEv@Base 1.22.0
 _ZNK8QbsQmlJS3AST21FieldMemberExpression19firstSourceLocationEv@Base 1.22.0
 _ZNK8QbsQmlJS3AST21FunctionSourceElement18lastSourceLocationEv@Base 1.22.0
 _ZNK8QbsQmlJS3AST21FunctionSourceElement19firstSourceLocationEv@Base 1.22.0
 _ZNK8QbsQmlJS3AST21LocalForEachStatement18lastSourceLocationEv@Base 1.22.0
 _ZNK8QbsQmlJS3AST21LocalForEachStatement19firstSourceLocationEv@Base 1.22.0
 _ZNK8QbsQmlJS3AST22PreDecrementExpression18lastSourceLocationEv@Base 1.22.0
 _ZNK8QbsQmlJS3AST22PreDecrementExpression19firstSourceLocationEv@Base 1.22.0
 _ZNK8QbsQmlJS3AST22PreIncrementExpression18lastSourceLocationEv@Base 1.22.0
 _ZNK8QbsQmlJS3AST22PreIncrementExpression19firstSourceLocationEv@Base 1.22.0
 _ZNK8QbsQmlJS3AST22StatementSourceElement18lastSourceLocationEv@Base 1.22.0
 _ZNK8QbsQmlJS3AST22StatementSourceElement19firstSourceLocationEv@Base 1.22.0
 _ZNK8QbsQmlJS3AST23PostDecrementExpression18lastSourceLocationEv@Base 1.22.0
 _ZNK8QbsQmlJS3AST23PostDecrementExpression19firstSourceLocationEv@Base 1.22.0
 _ZNK8QbsQmlJS3AST23PostIncrementExpression18lastSourceLocationEv@Base 1.22.0
 _ZNK8QbsQmlJS3AST23PostIncrementExpression19firstSourceLocationEv@Base 1.22.0
 _ZNK8QbsQmlJS3AST23VariableDeclarationList18lastSourceLocationEv@Base 1.22.0
 _ZNK8QbsQmlJS3AST23VariableDeclarationList19firstSourceLocationEv@Base 1.22.0
 _ZNK8QbsQmlJS3AST24PropertyNameAndValueList18lastSourceLocationEv@Base 1.22.0
 _ZNK8QbsQmlJS3AST24PropertyNameAndValueList19firstSourceLocationEv@Base 1.22.0
 _ZNK8QbsQmlJS3AST5Block18lastSourceLocationEv@Base 1.22.0
 _ZNK8QbsQmlJS3AST5Block19firstSourceLocationEv@Base 1.22.0
 _ZNK8QbsQmlJS3AST5Catch18lastSourceLocationEv@Base 1.22.0
 _ZNK8QbsQmlJS3AST5Catch19firstSourceLocationEv@Base 1.22.0
 _ZNK8QbsQmlJS3AST7Elision18lastSourceLocationEv@Base 1.22.0
 _ZNK8QbsQmlJS3AST7Elision19firstSourceLocationEv@Base 1.22.0
 _ZNK8QbsQmlJS3AST7Finally18lastSourceLocationEv@Base 1.22.0
 _ZNK8QbsQmlJS3AST7Finally19firstSourceLocationEv@Base 1.22.0
 _ZNK8QbsQmlJS3AST7Program18lastSourceLocationEv@Base 1.22.0
 _ZNK8QbsQmlJS3AST7Program19firstSourceLocationEv@Base 1.22.0
 _ZNK8QbsQmlJS3AST8UiImport18lastSourceLocationEv@Base 1.22.0
 _ZNK8QbsQmlJS3AST8UiImport19firstSourceLocationEv@Base 1.22.0
 _ZNK8QbsQmlJS3AST9CaseBlock18lastSourceLocationEv@Base 1.22.0
 _ZNK8QbsQmlJS3AST9CaseBlock19firstSourceLocationEv@Base 1.22.0
 _ZNK8QbsQmlJS3AST9UiProgram18lastSourceLocationEv@Base 1.22.0
 _ZNK8QbsQmlJS3AST9UiProgram19firstSourceLocationEv@Base 1.22.0
 _ZNK8QbsQmlJS5Lexer12errorMessageEv@Base 1.10.0
 _ZNK8QbsQmlJS5Lexer12tokenEndLineEv@Base 1.10.0
 _ZNK8QbsQmlJS5Lexer14prevTerminatorEv@Base 1.10.0
 _ZNK8QbsQmlJS5Lexer14tokenEndColumnEv@Base 1.10.0
 _ZNK8QbsQmlJS5Lexer16isLineTerminatorEv@Base 1.10.0
 _ZNK8QbsQmlJS5Lexer19followsClosingBraceEv@Base 1.10.0
 _ZNK8QbsQmlJS5Lexer27canInsertAutomaticSemicolonEi@Base 1.10.0
 _ZNK8QbsQmlJS5Lexer4codeEv@Base 1.10.0
 _ZNK8QbsQmlJS5Lexer7qmlModeEv@Base 1.10.0
 _ZNK8QbsQmlJS5Lexer9errorCodeEv@Base 1.10.0
 _ZNK8QbsQmlJS5Lexer9tokenTextEv@Base 1.10.0
 _ZNK8QbsQmlJS6Engine10directivesEv@Base 1.10.0
 _ZNK8QbsQmlJS6Engine5lexerEv@Base 1.10.0
 _ZNK8QbsQmlJS6Engine8commentsEv@Base 1.10.0
 _ZNK8QbsQmlJS6Parser12errorMessageEv@Base 1.22.0
 _ZNK8QbsQmlJS6Parser15errorLineNumberEv@Base 1.22.0
 _ZNK8QbsQmlJS6Parser17errorColumnNumberEv@Base 1.22.0
 _ZNK8QbsQmlJS8QmlError11descriptionEv@Base 1.22.0
 _ZNK8QbsQmlJS8QmlError3urlEv@Base 1.22.0
 _ZNK8QbsQmlJS8QmlError4lineEv@Base 1.22.0
 _ZNK8QbsQmlJS8QmlError6columnEv@Base 1.22.0
 _ZNK8QbsQmlJS8QmlError7isValidEv@Base 1.22.0
 _ZNK8QbsQmlJS8QmlError8toStringEv@Base 1.22.0
 _ZNK8QbsQmlJS8Rewriter30extendToLeadingOrTrailingCommaEPNS_3AST14UiArrayBindingEPNS1_14UiObjectMemberERiS6_@Base 1.22.0
 _ZNK8QbsQmlJS9ChangeSet13operationListEv@Base 1.22.0
 _ZNK8QbsQmlJS9ChangeSet5emptyEv@Base 1.22.0
 (arch=armel riscv64)_ZNK9__gnu_cxx24__concurrence_lock_error4whatEv@Base 1.22.0
 (arch=armel riscv64)_ZNK9__gnu_cxx26__concurrence_unlock_error4whatEv@Base 1.22.0
 (optional=templinst|subst)_ZNKSt10_HashtableI7QStringSt4pairIKS0_N3qbs8Internal3SetIS0_EEESaIS7_ENSt8__detail10_Select1stESt8equal_toIS0_ENS4_21RequestedDependencies11QStringHashENS9_18_Mod_range_hashingENS9_20_Default_ranged_hashENS9_20_Prime_rehash_policyENS9_17_Hashtable_traitsILb1ELb0ELb1EEEE19_M_find_before_nodeE{size_t}RS2_{size_t}@Base 1.22.0
 (optional=templinst)_ZNKSt10_HashtableINSt7__cxx1112basic_stringIcSt11char_traitsIcESaIcEEES5_SaIS5_ENSt8__detail9_IdentityESt8equal_toIS5_ESt4hashIS5_ENS7_18_Mod_range_hashingENS7_20_Default_ranged_hashENS7_20_Prime_rehash_policyENS7_17_Hashtable_traitsILb1ELb1ELb1EEEE4findERKS5_@Base 1.22.0
 (optional=templinst)_ZNKSt10_HashtableIPN3qbs8Internal4ItemESt4pairIKS3_NS1_18ModuleLoaderResult11ProductInfoEESaIS8_ENSt8__detail10_Select1stESt8equal_toIS3_ESt4hashIS3_ENSA_18_Mod_range_hashingENSA_20_Default_ranged_hashENSA_20_Prime_rehash_policyENSA_17_Hashtable_traitsILb0ELb0ELb1EEEE4findERS5_@Base 1.22.0
 (optional=templinst|subst)_ZNKSt10_HashtableISt17basic_string_viewIcSt11char_traitsIcEESt4pairIKS3_PKN3qbs16PcPackageVariantEESaISA_ENSt8__detail10_Select1stESt8equal_toIS3_ESt4hashIS3_ENSC_18_Mod_range_hashingENSC_20_Default_ranged_hashENSC_20_Prime_rehash_policyENSC_17_Hashtable_traitsILb1ELb0ELb1EEEE19_M_find_before_nodeE{size_t}RS5_{size_t}@Base 1.22.0
 (optional=templinst|subst)_ZNKSt10_HashtableISt4pairI7QStringS1_ES0_IKS2_St6vectorIPN3qbs8Internal16FileResourceBaseESaIS8_EEESaISB_ENSt8__detail10_Select1stESt8equal_toIS2_ESt4hashIS2_ENSD_18_Mod_range_hashingENSD_20_Default_ranged_hashENSD_20_Prime_rehash_policyENSD_17_Hashtable_traitsILb1ELb0ELb1EEEE19_M_find_before_nodeE{size_t}RS3_{size_t}@Base 1.22.0
 _ZNKSt18bad_variant_access4whatEv@Base 1.22.0
 (optional=templinst)_ZNKSt4hashI8QVariantEclERKS0_@Base 1.22.0
 (optional=templinst)_ZNKSt5ctypeIcE8do_widenEc@Base 1.22.0
 (optional=templinst)_ZNKSt5ctypeIcE9do_narrowEcc@Base 1.22.0
 (optional=templinst)_ZNKSt7__cxx1112regex_traitsIcE16lookup_classnameIPKcEENS1_10_RegexMaskET_S6_b@Base 1.10.0
 (optional=templinst|arch=arm64 armel i386 mips64el mipsel powerpc ppc64 ppc64el riscv64 s390x)_ZNKSt7__cxx1112regex_traitsIcE16translate_nocaseEc@Base 1.22.0
 (optional=templinst)_ZNKSt7__cxx1112regex_traitsIcE17transform_primaryIPKcEENS_12basic_stringIcSt11char_traitsIcESaIcEEET_SA_@Base 1.22.0
 (optional=templinst)_ZNKSt7__cxx1112regex_traitsIcE17transform_primaryIPcEENS_12basic_stringIcSt11char_traitsIcESaIcEEET_S9_@Base 1.22.0
 (optional=templinst)_ZNKSt7__cxx1112regex_traitsIcE18lookup_collatenameIPKcEENS_12basic_stringIcSt11char_traitsIcESaIcEEET_SA_@Base 1.10.0
 (optional=templinst)_ZNKSt8__detail17_ReuseOrAllocNodeISaINS_10_Hash_nodeISt4pairIK7QStringN3qbs8Internal14ExportedModuleEELb0EEEEEclIRKS8_EEPS9_OT_@Base 1.22.0
 (optional=templinst)_ZNKSt8__detail17_ReuseOrAllocNodeISaINS_10_Hash_nodeISt4pairIK7QStringN3qbs8Internal18RequestedArtifacts28RequestedArtifactsPerProductEELb0EEEEEclIRKS9_EEPSA_OT_@Base 1.22.0
 (optional=templinst)_ZNKSt8__detail17_ReuseOrAllocNodeISaINS_10_Hash_nodeISt4pairIK7QStringN3qbs8Internal3SetIS3_EEELb0EEEEEclIRKS9_EEPSA_OT_@Base 1.22.0
 (optional=templinst)_ZNKSt8__detail17_ReuseOrAllocNodeISaINS_10_Hash_nodeISt4pairIK7QStringN3qbs8Internal3SetIS3_EEELb1EEEEEclIRKS9_EEPSA_OT_@Base 1.22.0
 (optional=templinst)_ZNKSt8__detail17_ReuseOrAllocNodeISaINS_10_Hash_nodeISt4pairIKS2_I7QStringS3_ESt6vectorIPN3qbs8Internal16FileResourceBaseESaISA_EEELb1EEEEEclIRKSD_EEPSE_OT_@Base 1.22.0
 (optional=templinst|arch=amd64 arm64)_ZNKSt8__detail20_RegexTranslatorBaseINSt7__cxx1112regex_traitsIcEELb0ELb1EE12_M_transformEc@Base 1.22.0
 (optional=templinst|arch=amd64 arm64 armel armhf mips64el powerpc ppc64 ppc64el riscv64 s390x)_ZNKSt8__detail20_RegexTranslatorBaseINSt7__cxx1112regex_traitsIcEELb1ELb1EE12_M_transformEc@Base 1.22.0
 (optional=templinst)_ZNKSt8__detail9_ExecutorIN9__gnu_cxx17__normal_iteratorIPKcNSt7__cxx1112basic_stringIcSt11char_traitsIcESaIcEEEEESaINS5_9sub_matchISB_EEENS5_12regex_traitsIcEELb0EE16_M_word_boundaryEv@Base 1.17.0
 (optional=templinst)_ZNKSt8__detail9_ExecutorIN9__gnu_cxx17__normal_iteratorIPKcNSt7__cxx1112basic_stringIcSt11char_traitsIcESaIcEEEEESaINS5_9sub_matchISB_EEENS5_12regex_traitsIcEELb1EE16_M_word_boundaryEv@Base 1.17.0
 _ZNO3qbs9PcPackage14prependSysrootESt17basic_string_viewIcSt11char_traitsIcEE@Base 1.22.0
 _ZNO3qbs9PcPackage24removeSystemLibraryPathsERKSt13unordered_setINSt7__cxx1112basic_stringIcSt11char_traitsIcESaIcEEESt4hashIS7_ESt8equal_toIS7_ESaIS7_EE@Base 1.22.0
 (optional=templinst)_ZNSt10_HashtableI7QStringSt4pairIKS0_12QScriptValueESaIS4_ENSt8__detail10_Select1stESt8equal_toIS0_ESt4hashIS0_ENS6_18_Mod_range_hashingENS6_20_Default_ranged_hashENS6_20_Prime_rehash_policyENS6_17_Hashtable_traitsILb0ELb0ELb1EEEE5clearEv@Base 1.17.0
 (optional=templinst|subst)_ZNSt10_HashtableI7QStringSt4pairIKS0_12QScriptValueESaIS4_ENSt8__detail10_Select1stESt8equal_toIS0_ESt4hashIS0_ENS6_18_Mod_range_hashingENS6_20_Default_ranged_hashENS6_20_Prime_rehash_policyENS6_17_Hashtable_traitsILb0ELb0ELb1EEEE9_M_rehashE{size_t}RK{size_t}@Base 1.22.0
 (optional=templinst)_ZNSt10_HashtableI7QStringSt4pairIKS0_N3qbs8Internal13ASTCacheValueEESaIS6_ENSt8__detail10_Select1stESt8equal_toIS0_ESt4hashIS0_ENS8_18_Mod_range_hashingENS8_20_Default_ranged_hashENS8_20_Prime_rehash_policyENS8_17_Hashtable_traitsILb0ELb0ELb1EEEE5clearEv@Base 1.22.0
 (optional=templinst|subst)_ZNSt10_HashtableI7QStringSt4pairIKS0_N3qbs8Internal13ASTCacheValueEESaIS6_ENSt8__detail10_Select1stESt8equal_toIS0_ESt4hashIS0_ENS8_18_Mod_range_hashingENS8_20_Default_ranged_hashENS8_20_Prime_rehash_policyENS8_17_Hashtable_traitsILb0ELb0ELb1EEEE9_M_rehashE{size_t}RK{size_t}@Base 1.22.0
 (optional=templinst)_ZNSt10_HashtableI7QStringSt4pairIKS0_N3qbs8Internal14ExportedModuleEESaIS6_ENSt8__detail10_Select1stESt8equal_toIS0_ESt4hashIS0_ENS8_18_Mod_range_hashingENS8_20_Default_ranged_hashENS8_20_Prime_rehash_policyENS8_17_Hashtable_traitsILb0ELb0ELb1EEEE18_M_assign_elementsIRKSJ_EEvOT_@Base 1.22.0
 (optional=templinst)_ZNSt10_HashtableI7QStringSt4pairIKS0_N3qbs8Internal14ExportedModuleEESaIS6_ENSt8__detail10_Select1stESt8equal_toIS0_ESt4hashIS0_ENS8_18_Mod_range_hashingENS8_20_Default_ranged_hashENS8_20_Prime_rehash_policyENS8_17_Hashtable_traitsILb0ELb0ELb1EEEE21_M_deallocate_bucketsEv@Base 1.22.0
 (optional=templinst)_ZNSt10_HashtableI7QStringSt4pairIKS0_N3qbs8Internal14ExportedModuleEESaIS6_ENSt8__detail10_Select1stESt8equal_toIS0_ESt4hashIS0_ENS8_18_Mod_range_hashingENS8_20_Default_ranged_hashENS8_20_Prime_rehash_policyENS8_17_Hashtable_traitsILb0ELb0ELb1EEEE5clearEv@Base 1.22.0
 (optional=templinst)_ZNSt10_HashtableI7QStringSt4pairIKS0_N3qbs8Internal14ExportedModuleEESaIS6_ENSt8__detail10_Select1stESt8equal_toIS0_ESt4hashIS0_ENS8_18_Mod_range_hashingENS8_20_Default_ranged_hashENS8_20_Prime_rehash_policyENS8_17_Hashtable_traitsILb0ELb0ELb1EEEE9_M_assignIRKSJ_NS8_17_ReuseOrAllocNodeISaINS8_10_Hash_nodeIS6_Lb0EEEEEEEEvOT_RKT0_@Base 1.22.0
 (optional=templinst|subst)_ZNSt10_HashtableI7QStringSt4pairIKS0_N3qbs8Internal14ExportedModuleEESaIS6_ENSt8__detail10_Select1stESt8equal_toIS0_ESt4hashIS0_ENS8_18_Mod_range_hashingENS8_20_Default_ranged_hashENS8_20_Prime_rehash_policyENS8_17_Hashtable_traitsILb0ELb0ELb1EEEE9_M_rehashE{size_t}RK{size_t}@Base 1.22.0
 (optional=templinst|arch=armel armhf i386 mips64el mipsel powerpc ppc64 ppc64el riscv64 s390x)_ZNSt10_HashtableI7QStringSt4pairIKS0_N3qbs8Internal14ExportedModuleEESaIS6_ENSt8__detail10_Select1stESt8equal_toIS0_ESt4hashIS0_ENS8_18_Mod_range_hashingENS8_20_Default_ranged_hashENS8_20_Prime_rehash_policyENS8_17_Hashtable_traitsILb0ELb0ELb1EEEEC1ERKSJ_@Base 1.22.0
 (optional=templinst|arch=armel armhf i386 mips64el mipsel powerpc ppc64 ppc64el riscv64 s390x)_ZNSt10_HashtableI7QStringSt4pairIKS0_N3qbs8Internal14ExportedModuleEESaIS6_ENSt8__detail10_Select1stESt8equal_toIS0_ESt4hashIS0_ENS8_18_Mod_range_hashingENS8_20_Default_ranged_hashENS8_20_Prime_rehash_policyENS8_17_Hashtable_traitsILb0ELb0ELb1EEEEC2ERKSJ_@Base 1.22.0
 (optional=templinst)_ZNSt10_HashtableI7QStringSt4pairIKS0_N3qbs8Internal18RequestedArtifacts28RequestedArtifactsPerProductEESaIS7_ENSt8__detail10_Select1stESt8equal_toIS0_ESt4hashIS0_ENS9_18_Mod_range_hashingENS9_20_Default_ranged_hashENS9_20_Prime_rehash_policyENS9_17_Hashtable_traitsILb0ELb0ELb1EEEE12_Scoped_nodeD1Ev@Base 1.22.0
 (optional=templinst)_ZNSt10_HashtableI7QStringSt4pairIKS0_N3qbs8Internal18RequestedArtifacts28RequestedArtifactsPerProductEESaIS7_ENSt8__detail10_Select1stESt8equal_toIS0_ESt4hashIS0_ENS9_18_Mod_range_hashingENS9_20_Default_ranged_hashENS9_20_Prime_rehash_policyENS9_17_Hashtable_traitsILb0ELb0ELb1EEEE12_Scoped_nodeD2Ev@Base 1.22.0
 (optional=templinst)_ZNSt10_HashtableI7QStringSt4pairIKS0_N3qbs8Internal18RequestedArtifacts28RequestedArtifactsPerProductEESaIS7_ENSt8__detail10_Select1stESt8equal_toIS0_ESt4hashIS0_ENS9_18_Mod_range_hashingENS9_20_Default_ranged_hashENS9_20_Prime_rehash_policyENS9_17_Hashtable_traitsILb0ELb0ELb1EEEE18_M_assign_elementsIRKSK_EEvOT_@Base 1.22.0
 (optional=templinst)_ZNSt10_HashtableI7QStringSt4pairIKS0_N3qbs8Internal18RequestedArtifacts28RequestedArtifactsPerProductEESaIS7_ENSt8__detail10_Select1stESt8equal_toIS0_ESt4hashIS0_ENS9_18_Mod_range_hashingENS9_20_Default_ranged_hashENS9_20_Prime_rehash_policyENS9_17_Hashtable_traitsILb0ELb0ELb1EEEE21_M_deallocate_bucketsEv@Base 1.22.0
 (optional=templinst|subst)_ZNSt10_HashtableI7QStringSt4pairIKS0_N3qbs8Internal18RequestedArtifacts28RequestedArtifactsPerProductEESaIS7_ENSt8__detail10_Select1stESt8equal_toIS0_ESt4hashIS0_ENS9_18_Mod_range_hashingENS9_20_Default_ranged_hashENS9_20_Prime_rehash_policyENS9_17_Hashtable_traitsILb0ELb0ELb1EEEE21_M_insert_unique_nodeE{size_t}{size_t}PNS9_10_Hash_nodeIS7_Lb0EEE{size_t}@Base 1.22.0
 (optional=templinst)_ZNSt10_HashtableI7QStringSt4pairIKS0_N3qbs8Internal18RequestedArtifacts28RequestedArtifactsPerProductEESaIS7_ENSt8__detail10_Select1stESt8equal_toIS0_ESt4hashIS0_ENS9_18_Mod_range_hashingENS9_20_Default_ranged_hashENS9_20_Prime_rehash_policyENS9_17_Hashtable_traitsILb0ELb0ELb1EEEE5clearEv@Base 1.22.0
 (optional=templinst)_ZNSt10_HashtableI7QStringSt4pairIKS0_N3qbs8Internal18RequestedArtifacts28RequestedArtifactsPerProductEESaIS7_ENSt8__detail10_Select1stESt8equal_toIS0_ESt4hashIS0_ENS9_18_Mod_range_hashingENS9_20_Default_ranged_hashENS9_20_Prime_rehash_policyENS9_17_Hashtable_traitsILb0ELb0ELb1EEEE9_M_assignIRKSK_NS9_17_ReuseOrAllocNodeISaINS9_10_Hash_nodeIS7_Lb0EEEEEEEEvOT_RKT0_@Base 1.22.0
 (optional=templinst|subst)_ZNSt10_HashtableI7QStringSt4pairIKS0_N3qbs8Internal18RequestedArtifacts28RequestedArtifactsPerProductEESaIS7_ENSt8__detail10_Select1stESt8equal_toIS0_ESt4hashIS0_ENS9_18_Mod_range_hashingENS9_20_Default_ranged_hashENS9_20_Prime_rehash_policyENS9_17_Hashtable_traitsILb0ELb0ELb1EEEE9_M_rehashE{size_t}RK{size_t}@Base 1.22.0
 (optional=templinst|arch=armel armhf i386 mips64el mipsel powerpc ppc64 ppc64el riscv64 s390x)_ZNSt10_HashtableI7QStringSt4pairIKS0_N3qbs8Internal18RequestedArtifacts28RequestedArtifactsPerProductEESaIS7_ENSt8__detail10_Select1stESt8equal_toIS0_ESt4hashIS0_ENS9_18_Mod_range_hashingENS9_20_Default_ranged_hashENS9_20_Prime_rehash_policyENS9_17_Hashtable_traitsILb0ELb0ELb1EEEEC1ERKSK_@Base 1.22.0
 (optional=templinst|arch=armel armhf i386 mips64el mipsel powerpc ppc64 ppc64el riscv64 s390x)_ZNSt10_HashtableI7QStringSt4pairIKS0_N3qbs8Internal18RequestedArtifacts28RequestedArtifactsPerProductEESaIS7_ENSt8__detail10_Select1stESt8equal_toIS0_ESt4hashIS0_ENS9_18_Mod_range_hashingENS9_20_Default_ranged_hashENS9_20_Prime_rehash_policyENS9_17_Hashtable_traitsILb0ELb0ELb1EEEEC2ERKSK_@Base 1.22.0
 (optional=templinst)_ZNSt10_HashtableI7QStringSt4pairIKS0_N3qbs8Internal3SetIS0_EEESaIS7_ENSt8__detail10_Select1stESt8equal_toIS0_ENS4_21RequestedDependencies11QStringHashENS9_18_Mod_range_hashingENS9_20_Default_ranged_hashENS9_20_Prime_rehash_policyENS9_17_Hashtable_traitsILb1ELb0ELb1EEEE18_M_assign_elementsIRKSK_EEvOT_@Base 1.22.0
 (optional=templinst)_ZNSt10_HashtableI7QStringSt4pairIKS0_N3qbs8Internal3SetIS0_EEESaIS7_ENSt8__detail10_Select1stESt8equal_toIS0_ENS4_21RequestedDependencies11QStringHashENS9_18_Mod_range_hashingENS9_20_Default_ranged_hashENS9_20_Prime_rehash_policyENS9_17_Hashtable_traitsILb1ELb0ELb1EEEE21_M_deallocate_bucketsEv@Base 1.22.0
 (optional=templinst)_ZNSt10_HashtableI7QStringSt4pairIKS0_N3qbs8Internal3SetIS0_EEESaIS7_ENSt8__detail10_Select1stESt8equal_toIS0_ENS4_21RequestedDependencies11QStringHashENS9_18_Mod_range_hashingENS9_20_Default_ranged_hashENS9_20_Prime_rehash_policyENS9_17_Hashtable_traitsILb1ELb0ELb1EEEE5clearEv@Base 1.22.0
 (optional=templinst)_ZNSt10_HashtableI7QStringSt4pairIKS0_N3qbs8Internal3SetIS0_EEESaIS7_ENSt8__detail10_Select1stESt8equal_toIS0_ENS4_21RequestedDependencies11QStringHashENS9_18_Mod_range_hashingENS9_20_Default_ranged_hashENS9_20_Prime_rehash_policyENS9_17_Hashtable_traitsILb1ELb0ELb1EEEE9_M_assignIRKSK_NS9_17_ReuseOrAllocNodeISaINS9_10_Hash_nodeIS7_Lb1EEEEEEEEvOT_RKT0_@Base 1.22.0
 (optional=templinst|subst)_ZNSt10_HashtableI7QStringSt4pairIKS0_N3qbs8Internal3SetIS0_EEESaIS7_ENSt8__detail10_Select1stESt8equal_toIS0_ENS4_21RequestedDependencies11QStringHashENS9_18_Mod_range_hashingENS9_20_Default_ranged_hashENS9_20_Prime_rehash_policyENS9_17_Hashtable_traitsILb1ELb0ELb1EEEE9_M_rehashE{size_t}RK{size_t}@Base 1.22.0
 (optional=templinst|arch=armel armhf i386 mips64el mipsel powerpc ppc64 ppc64el riscv64 s390x)_ZNSt10_HashtableI7QStringSt4pairIKS0_N3qbs8Internal3SetIS0_EEESaIS7_ENSt8__detail10_Select1stESt8equal_toIS0_ENS4_21RequestedDependencies11QStringHashENS9_18_Mod_range_hashingENS9_20_Default_ranged_hashENS9_20_Prime_rehash_policyENS9_17_Hashtable_traitsILb1ELb0ELb1EEEEC1ERKSK_@Base 1.22.0
 (optional=templinst|arch=armel armhf i386 mips64el mipsel powerpc ppc64 ppc64el riscv64 s390x)_ZNSt10_HashtableI7QStringSt4pairIKS0_N3qbs8Internal3SetIS0_EEESaIS7_ENSt8__detail10_Select1stESt8equal_toIS0_ENS4_21RequestedDependencies11QStringHashENS9_18_Mod_range_hashingENS9_20_Default_ranged_hashENS9_20_Prime_rehash_policyENS9_17_Hashtable_traitsILb1ELb0ELb1EEEEC2ERKSK_@Base 1.22.0
 (optional=templinst)_ZNSt10_HashtableI7QStringSt4pairIKS0_N3qbs8Internal3SetIS0_EEESaIS7_ENSt8__detail10_Select1stESt8equal_toIS0_ESt4hashIS0_ENS9_18_Mod_range_hashingENS9_20_Default_ranged_hashENS9_20_Prime_rehash_policyENS9_17_Hashtable_traitsILb0ELb0ELb1EEEE12_Scoped_nodeD1Ev@Base 1.22.0
 (optional=templinst)_ZNSt10_HashtableI7QStringSt4pairIKS0_N3qbs8Internal3SetIS0_EEESaIS7_ENSt8__detail10_Select1stESt8equal_toIS0_ESt4hashIS0_ENS9_18_Mod_range_hashingENS9_20_Default_ranged_hashENS9_20_Prime_rehash_policyENS9_17_Hashtable_traitsILb0ELb0ELb1EEEE12_Scoped_nodeD2Ev@Base 1.22.0
 (optional=templinst)_ZNSt10_HashtableI7QStringSt4pairIKS0_N3qbs8Internal3SetIS0_EEESaIS7_ENSt8__detail10_Select1stESt8equal_toIS0_ESt4hashIS0_ENS9_18_Mod_range_hashingENS9_20_Default_ranged_hashENS9_20_Prime_rehash_policyENS9_17_Hashtable_traitsILb0ELb0ELb1EEEE18_M_assign_elementsIRKSK_EEvOT_@Base 1.22.0
 (optional=templinst)_ZNSt10_HashtableI7QStringSt4pairIKS0_N3qbs8Internal3SetIS0_EEESaIS7_ENSt8__detail10_Select1stESt8equal_toIS0_ESt4hashIS0_ENS9_18_Mod_range_hashingENS9_20_Default_ranged_hashENS9_20_Prime_rehash_policyENS9_17_Hashtable_traitsILb0ELb0ELb1EEEE21_M_deallocate_bucketsEv@Base 1.22.0
 (optional=templinst|subst)_ZNSt10_HashtableI7QStringSt4pairIKS0_N3qbs8Internal3SetIS0_EEESaIS7_ENSt8__detail10_Select1stESt8equal_toIS0_ESt4hashIS0_ENS9_18_Mod_range_hashingENS9_20_Default_ranged_hashENS9_20_Prime_rehash_policyENS9_17_Hashtable_traitsILb0ELb0ELb1EEEE21_M_insert_unique_nodeE{size_t}{size_t}PNS9_10_Hash_nodeIS7_Lb0EEE{size_t}@Base 1.22.0
 (optional=templinst)_ZNSt10_HashtableI7QStringSt4pairIKS0_N3qbs8Internal3SetIS0_EEESaIS7_ENSt8__detail10_Select1stESt8equal_toIS0_ESt4hashIS0_ENS9_18_Mod_range_hashingENS9_20_Default_ranged_hashENS9_20_Prime_rehash_policyENS9_17_Hashtable_traitsILb0ELb0ELb1EEEE5clearEv@Base 1.22.0
 (optional=templinst)_ZNSt10_HashtableI7QStringSt4pairIKS0_N3qbs8Internal3SetIS0_EEESaIS7_ENSt8__detail10_Select1stESt8equal_toIS0_ESt4hashIS0_ENS9_18_Mod_range_hashingENS9_20_Default_ranged_hashENS9_20_Prime_rehash_policyENS9_17_Hashtable_traitsILb0ELb0ELb1EEEE9_M_assignIRKSK_NS9_17_ReuseOrAllocNodeISaINS9_10_Hash_nodeIS7_Lb0EEEEEEEEvOT_RKT0_@Base 1.22.0
 (optional=templinst|subst)_ZNSt10_HashtableI7QStringSt4pairIKS0_N3qbs8Internal3SetIS0_EEESaIS7_ENSt8__detail10_Select1stESt8equal_toIS0_ESt4hashIS0_ENS9_18_Mod_range_hashingENS9_20_Default_ranged_hashENS9_20_Prime_rehash_policyENS9_17_Hashtable_traitsILb0ELb0ELb1EEEE9_M_rehashE{size_t}RK{size_t}@Base 1.22.0
 (optional=templinst)_ZNSt10_HashtableI7QStringSt4pairIKS0_PKN3qbs8Internal15ResolvedProductEESaIS8_ENSt8__detail10_Select1stESt8equal_toIS0_ESt4hashIS0_ENSA_18_Mod_range_hashingENSA_20_Default_ranged_hashENSA_20_Prime_rehash_policyENSA_17_Hashtable_traitsILb0ELb0ELb1EEEE5clearEv@Base 1.22.0
 (optional=templinst|subst)_ZNSt10_HashtableI7QStringSt4pairIKS0_PKN3qbs8Internal15ResolvedProductEESaIS8_ENSt8__detail10_Select1stESt8equal_toIS0_ESt4hashIS0_ENSA_18_Mod_range_hashingENSA_20_Default_ranged_hashENSA_20_Prime_rehash_policyENSA_17_Hashtable_traitsILb0ELb0ELb1EEEE9_M_rehashE{size_t}RK{size_t}@Base 1.22.0
 (optional=templinst)_ZNSt10_HashtableI7QStringSt4pairIKS0_PKN3qbs8Internal15ResolvedProjectEESaIS8_ENSt8__detail10_Select1stESt8equal_toIS0_ESt4hashIS0_ENSA_18_Mod_range_hashingENSA_20_Default_ranged_hashENSA_20_Prime_rehash_policyENSA_17_Hashtable_traitsILb0ELb0ELb1EEEE12_Scoped_nodeD1Ev@Base 1.22.0
 (optional=templinst)_ZNSt10_HashtableI7QStringSt4pairIKS0_PKN3qbs8Internal15ResolvedProjectEESaIS8_ENSt8__detail10_Select1stESt8equal_toIS0_ESt4hashIS0_ENSA_18_Mod_range_hashingENSA_20_Default_ranged_hashENSA_20_Prime_rehash_policyENSA_17_Hashtable_traitsILb0ELb0ELb1EEEE12_Scoped_nodeD2Ev@Base 1.22.0
 (optional=templinst|subst)_ZNSt10_HashtableI7QStringSt4pairIKS0_PKN3qbs8Internal15ResolvedProjectEESaIS8_ENSt8__detail10_Select1stESt8equal_toIS0_ESt4hashIS0_ENSA_18_Mod_range_hashingENSA_20_Default_ranged_hashENSA_20_Prime_rehash_policyENSA_17_Hashtable_traitsILb0ELb0ELb1EEEE21_M_insert_unique_nodeE{size_t}{size_t}PNSA_10_Hash_nodeIS8_Lb0EEE{size_t}@Base 1.22.0
 (optional=templinst)_ZNSt10_HashtableI7QStringSt4pairIKS0_PKN3qbs8Internal15ResolvedProjectEESaIS8_ENSt8__detail10_Select1stESt8equal_toIS0_ESt4hashIS0_ENSA_18_Mod_range_hashingENSA_20_Default_ranged_hashENSA_20_Prime_rehash_policyENSA_17_Hashtable_traitsILb0ELb0ELb1EEEE5clearEv@Base 1.22.0
 (optional=templinst|subst)_ZNSt10_HashtableI7QStringSt4pairIKS0_PKN3qbs8Internal15ResolvedProjectEESaIS8_ENSt8__detail10_Select1stESt8equal_toIS0_ESt4hashIS0_ENSA_18_Mod_range_hashingENSA_20_Default_ranged_hashENSA_20_Prime_rehash_policyENSA_17_Hashtable_traitsILb0ELb0ELb1EEEE9_M_rehashE{size_t}RK{size_t}@Base 1.22.0
 (optional=templinst)_ZNSt10_HashtableI7QStringSt4pairIKS0_St6vectorIS1_IPN3qbs8Internal4ItemES0_ESaIS8_EEESaISB_ENSt8__detail10_Select1stESt8equal_toIS0_ESt4hashIS0_ENSD_18_Mod_range_hashingENSD_20_Default_ranged_hashENSD_20_Prime_rehash_policyENSD_17_Hashtable_traitsILb0ELb0ELb1EEEE5clearEv@Base 1.16.0
 (optional=templinst|subst)_ZNSt10_HashtableI7QStringSt4pairIKS0_St6vectorIS1_IPN3qbs8Internal4ItemES0_ESaIS8_EEESaISB_ENSt8__detail10_Select1stESt8equal_toIS0_ESt4hashIS0_ENSD_18_Mod_range_hashingENSD_20_Default_ranged_hashENSD_20_Prime_rehash_policyENSD_17_Hashtable_traitsILb0ELb0ELb1EEEE9_M_rehashE{size_t}RK{size_t}@Base 1.22.0
 (optional=templinst|subst)_ZNSt10_HashtableI7QStringSt4pairIKS0_St6vectorISt10shared_ptrIKN3qbs8Internal22SourceArtifactInternalEESaIS9_EEESaISC_ENSt8__detail10_Select1stESt8equal_toIS0_ESt4hashIS0_ENSE_18_Mod_range_hashingENSE_20_Default_ranged_hashENSE_20_Prime_rehash_policyENSE_17_Hashtable_traitsILb0ELb0ELb1EEEE9_M_rehashE{size_t}RK{size_t}@Base 1.22.0
 (optional=templinst)_ZNSt10_HashtableI7QStringSt4pairIKS0_iESaIS3_ENSt8__detail10_Select1stESt8equal_toIS0_ESt4hashIS0_ENS5_18_Mod_range_hashingENS5_20_Default_ranged_hashENS5_20_Prime_rehash_policyENS5_17_Hashtable_traitsILb0ELb0ELb1EEEE5clearEv@Base 1.17.0
 (optional=templinst|subst)_ZNSt10_HashtableI7QStringSt4pairIKS0_iESaIS3_ENSt8__detail10_Select1stESt8equal_toIS0_ESt4hashIS0_ENS5_18_Mod_range_hashingENS5_20_Default_ranged_hashENS5_20_Prime_rehash_policyENS5_17_Hashtable_traitsILb0ELb0ELb1EEEE9_M_rehashE{size_t}RK{size_t}@Base 1.22.0
 (optional=templinst)_ZNSt10_HashtableIN3qbs9PcPackage4FlagES2_SaIS2_ENSt8__detail9_IdentityESt8equal_toIS2_ESt4hashIS2_ENS4_18_Mod_range_hashingENS4_20_Default_ranged_hashENS4_20_Prime_rehash_policyENS4_17_Hashtable_traitsILb0ELb1ELb1EEEE5clearEv@Base 1.22.0
 (optional=templinst|subst)_ZNSt10_HashtableIN3qbs9PcPackage4FlagES2_SaIS2_ENSt8__detail9_IdentityESt8equal_toIS2_ESt4hashIS2_ENS4_18_Mod_range_hashingENS4_20_Default_ranged_hashENS4_20_Prime_rehash_policyENS4_17_Hashtable_traitsILb0ELb1ELb1EEEE9_M_rehashE{size_t}RK{size_t}@Base 1.22.0
 (optional=templinst)_ZNSt10_HashtableINSt7__cxx1112basic_stringIcSt11char_traitsIcESaIcEEES5_SaIS5_ENSt8__detail9_IdentityESt8equal_toIS5_ESt4hashIS5_ENS7_18_Mod_range_hashingENS7_20_Default_ranged_hashENS7_20_Prime_rehash_policyENS7_17_Hashtable_traitsILb1ELb1ELb1EEEE21_M_deallocate_bucketsEv@Base 1.22.0
 (optional=templinst)_ZNSt10_HashtableINSt7__cxx1112basic_stringIcSt11char_traitsIcESaIcEEES5_SaIS5_ENSt8__detail9_IdentityESt8equal_toIS5_ESt4hashIS5_ENS7_18_Mod_range_hashingENS7_20_Default_ranged_hashENS7_20_Prime_rehash_policyENS7_17_Hashtable_traitsILb1ELb1ELb1EEEE5clearEv@Base 1.22.0
 (optional=templinst|subst)_ZNSt10_HashtableINSt7__cxx1112basic_stringIcSt11char_traitsIcESaIcEEES5_SaIS5_ENSt8__detail9_IdentityESt8equal_toIS5_ESt4hashIS5_ENS7_18_Mod_range_hashingENS7_20_Default_ranged_hashENS7_20_Prime_rehash_policyENS7_17_Hashtable_traitsILb1ELb1ELb1EEEE9_M_rehashE{size_t}RK{size_t}@Base 1.22.0
 (optional=templinst|arch=armel armhf i386 mips64el mipsel powerpc ppc64 ppc64el riscv64 s390x|subst)_ZNSt10_HashtableINSt7__cxx1112basic_stringIcSt11char_traitsIcESaIcEEES5_SaIS5_ENSt8__detail9_IdentityESt8equal_toIS5_ESt4hashIS5_ENS7_18_Mod_range_hashingENS7_20_Default_ranged_hashENS7_20_Prime_rehash_policyENS7_17_Hashtable_traitsILb1ELb1ELb1EEEEC1IN9__gnu_cxx17__normal_iteratorIPKS5_St6vectorIS5_S6_EEEEET_SR_{size_t}RKSC_RKSA_RKS6_St17integral_constantIbLb1EE@Base 1.22.0
 (optional=templinst|arch=armel armhf i386 mips64el mipsel powerpc ppc64 ppc64el riscv64 s390x|subst)_ZNSt10_HashtableINSt7__cxx1112basic_stringIcSt11char_traitsIcESaIcEEES5_SaIS5_ENSt8__detail9_IdentityESt8equal_toIS5_ESt4hashIS5_ENS7_18_Mod_range_hashingENS7_20_Default_ranged_hashENS7_20_Prime_rehash_policyENS7_17_Hashtable_traitsILb1ELb1ELb1EEEEC2IN9__gnu_cxx17__normal_iteratorIPKS5_St6vectorIS5_S6_EEEEET_SR_{size_t}RKSC_RKSA_RKS6_St17integral_constantIbLb1EE@Base 1.22.0
 (optional=templinst|subst)_ZNSt10_HashtableIPKN3qbs8Internal14ResolvedModuleESt4pairIKS4_12QScriptValueESaIS8_ENSt8__detail10_Select1stESt8equal_toIS4_ESt4hashIS4_ENSA_18_Mod_range_hashingENSA_20_Default_ranged_hashENSA_20_Prime_rehash_policyENSA_17_Hashtable_traitsILb0ELb0ELb1EEEE9_M_rehashE{size_t}RK{size_t}@Base 1.22.0
 (optional=templinst|subst)_ZNSt10_HashtableIPKN3qbs8Internal15ResolvedProductESt4pairIKS4_12QScriptValueESaIS8_ENSt8__detail10_Select1stESt8equal_toIS4_ESt4hashIS4_ENSA_18_Mod_range_hashingENSA_20_Default_ranged_hashENSA_20_Prime_rehash_policyENSA_17_Hashtable_traitsILb0ELb0ELb1EEEE9_M_rehashE{size_t}RK{size_t}@Base 1.22.0
 (optional=templinst|subst)_ZNSt10_HashtableIPKN3qbs8Internal15ResolvedProductESt4pairIKS4_NS0_9JobLimitsEESaIS8_ENSt8__detail10_Select1stESt8equal_toIS4_ESt4hashIS4_ENSA_18_Mod_range_hashingENSA_20_Default_ranged_hashENSA_20_Prime_rehash_policyENSA_17_Hashtable_traitsILb0ELb0ELb1EEEE9_M_rehashE{size_t}RK{size_t}@Base 1.22.0
 (optional=templinst|subst)_ZNSt10_HashtableIPKN3qbs8Internal15ResolvedProjectESt4pairIKS4_12QScriptValueESaIS8_ENSt8__detail10_Select1stESt8equal_toIS4_ESt4hashIS4_ENSA_18_Mod_range_hashingENSA_20_Default_ranged_hashENSA_20_Prime_rehash_policyENSA_17_Hashtable_traitsILb0ELb0ELb1EEEE9_M_rehashE{size_t}RK{size_t}@Base 1.22.0
 (optional=templinst)_ZNSt10_HashtableIPKN3qbs8Internal4ItemESt4pairIKS4_NS1_3SetINS1_11QualifiedIdEEEESaISA_ENSt8__detail10_Select1stESt8equal_toIS4_ESt4hashIS4_ENSC_18_Mod_range_hashingENSC_20_Default_ranged_hashENSC_20_Prime_rehash_policyENSC_17_Hashtable_traitsILb0ELb0ELb1EEEE18_M_assign_elementsIRKSN_EEvOT_@Base 1.22.0
 (optional=templinst)_ZNSt10_HashtableIPKN3qbs8Internal4ItemESt4pairIKS4_NS1_3SetINS1_11QualifiedIdEEEESaISA_ENSt8__detail10_Select1stESt8equal_toIS4_ESt4hashIS4_ENSC_18_Mod_range_hashingENSC_20_Default_ranged_hashENSC_20_Prime_rehash_policyENSC_17_Hashtable_traitsILb0ELb0ELb1EEEE21_M_deallocate_bucketsEv@Base 1.22.0
 (optional=templinst)_ZNSt10_HashtableIPKN3qbs8Internal4ItemESt4pairIKS4_NS1_3SetINS1_11QualifiedIdEEEESaISA_ENSt8__detail10_Select1stESt8equal_toIS4_ESt4hashIS4_ENSC_18_Mod_range_hashingENSC_20_Default_ranged_hashENSC_20_Prime_rehash_policyENSC_17_Hashtable_traitsILb0ELb0ELb1EEEE5clearEv@Base 1.22.0
 (optional=templinst)_ZNSt10_HashtableIPKN3qbs8Internal4ItemESt4pairIKS4_NS1_3SetINS1_11QualifiedIdEEEESaISA_ENSt8__detail10_Select1stESt8equal_toIS4_ESt4hashIS4_ENSC_18_Mod_range_hashingENSC_20_Default_ranged_hashENSC_20_Prime_rehash_policyENSC_17_Hashtable_traitsILb0ELb0ELb1EEEE9_M_assignIRKSN_NSC_17_ReuseOrAllocNodeISaINSC_10_Hash_nodeISA_Lb0EEEEEEEEvOT_RKT0_@Base 1.22.0
 (optional=templinst|subst)_ZNSt10_HashtableIPKN3qbs8Internal4ItemESt4pairIKS4_NS1_3SetINS1_11QualifiedIdEEEESaISA_ENSt8__detail10_Select1stESt8equal_toIS4_ESt4hashIS4_ENSC_18_Mod_range_hashingENSC_20_Default_ranged_hashENSC_20_Prime_rehash_policyENSC_17_Hashtable_traitsILb0ELb0ELb1EEEE9_M_rehashE{size_t}RK{size_t}@Base 1.22.0
 (optional=templinst)_ZNSt10_HashtableIPKN3qbs8Internal4ItemESt4pairIKS4_St6vectorINS0_9ErrorInfoESaIS8_EEESaISB_ENSt8__detail10_Select1stESt8equal_toIS4_ESt4hashIS4_ENSD_18_Mod_range_hashingENSD_20_Default_ranged_hashENSD_20_Prime_rehash_policyENSD_17_Hashtable_traitsILb0ELb0ELb1EEEE21_M_deallocate_bucketsEv@Base 1.22.0
 (optional=templinst)_ZNSt10_HashtableIPKN3qbs8Internal4ItemESt4pairIKS4_St6vectorINS0_9ErrorInfoESaIS8_EEESaISB_ENSt8__detail10_Select1stESt8equal_toIS4_ESt4hashIS4_ENSD_18_Mod_range_hashingENSD_20_Default_ranged_hashENSD_20_Prime_rehash_policyENSD_17_Hashtable_traitsILb0ELb0ELb1EEEE5clearEv@Base 1.10.1
 (optional=templinst|subst)_ZNSt10_HashtableIPKN3qbs8Internal4ItemESt4pairIKS4_St6vectorINS0_9ErrorInfoESaIS8_EEESaISB_ENSt8__detail10_Select1stESt8equal_toIS4_ESt4hashIS4_ENSD_18_Mod_range_hashingENSD_20_Default_ranged_hashENSD_20_Prime_rehash_policyENSD_17_Hashtable_traitsILb0ELb0ELb1EEEE9_M_rehashE{size_t}RK{size_t}@Base 1.22.0
 (optional=templinst)_ZNSt10_HashtableIPKN3qbs8Internal4RuleESt4pairIKS4_iESaIS7_ENSt8__detail10_Select1stESt8equal_toIS4_ESt4hashIS4_ENS9_18_Mod_range_hashingENS9_20_Default_ranged_hashENS9_20_Prime_rehash_policyENS9_17_Hashtable_traitsILb0ELb0ELb1EEEE5eraseENS9_20_Node_const_iteratorIS7_Lb0ELb0EEE@Base 1.22.0
 (optional=templinst|subst)_ZNSt10_HashtableIPKN3qbs8Internal4RuleESt4pairIKS4_iESaIS7_ENSt8__detail10_Select1stESt8equal_toIS4_ESt4hashIS4_ENS9_18_Mod_range_hashingENS9_20_Default_ranged_hashENS9_20_Prime_rehash_policyENS9_17_Hashtable_traitsILb0ELb0ELb1EEEE9_M_rehashE{size_t}RK{size_t}@Base 1.22.0
 (optional=templinst)_ZNSt10_HashtableIPKvSt4pairIKS1_iESaIS4_ENSt8__detail10_Select1stESt8equal_toIS1_ESt4hashIS1_ENS6_18_Mod_range_hashingENS6_20_Default_ranged_hashENS6_20_Prime_rehash_policyENS6_17_Hashtable_traitsILb0ELb0ELb1EEEE4findERS3_@Base 1.17.0
 (optional=templinst|subst)_ZNSt10_HashtableIPKvSt4pairIKS1_iESaIS4_ENSt8__detail10_Select1stESt8equal_toIS1_ESt4hashIS1_ENS6_18_Mod_range_hashingENS6_20_Default_ranged_hashENS6_20_Prime_rehash_policyENS6_17_Hashtable_traitsILb0ELb0ELb1EEEE9_M_rehashE{size_t}RK{size_t}@Base 1.22.0
 (optional=templinst)_ZNSt10_HashtableIPN3qbs8Internal12ModuleLoader14ProductContextESt4pairIKS4_NS1_3SetINS2_22DeferredDependsContextEEEESaISA_ENSt8__detail10_Select1stESt8equal_toIS4_ESt4hashIS4_ENSC_18_Mod_range_hashingENSC_20_Default_ranged_hashENSC_20_Prime_rehash_policyENSC_17_Hashtable_traitsILb0ELb0ELb1EEEE5clearEv@Base 1.22.0
 (optional=templinst|subst)_ZNSt10_HashtableIPN3qbs8Internal12ModuleLoader14ProductContextESt4pairIKS4_NS1_3SetINS2_22DeferredDependsContextEEEESaISA_ENSt8__detail10_Select1stESt8equal_toIS4_ESt4hashIS4_ENSC_18_Mod_range_hashingENSC_20_Default_ranged_hashENSC_20_Prime_rehash_policyENSC_17_Hashtable_traitsILb0ELb0ELb1EEEE9_M_rehashE{size_t}RK{size_t}@Base 1.22.0
 (optional=templinst)_ZNSt10_HashtableIPN3qbs8Internal4ItemESt4pairIKS3_NS1_18ModuleLoaderResult11ProductInfoEESaIS8_ENSt8__detail10_Select1stESt8equal_toIS3_ESt4hashIS3_ENSA_18_Mod_range_hashingENSA_20_Default_ranged_hashENSA_20_Prime_rehash_policyENSA_17_Hashtable_traitsILb0ELb0ELb1EEEE12_Scoped_nodeD1Ev@Base 1.22.0
 (optional=templinst)_ZNSt10_HashtableIPN3qbs8Internal4ItemESt4pairIKS3_NS1_18ModuleLoaderResult11ProductInfoEESaIS8_ENSt8__detail10_Select1stESt8equal_toIS3_ESt4hashIS3_ENSA_18_Mod_range_hashingENSA_20_Default_ranged_hashENSA_20_Prime_rehash_policyENSA_17_Hashtable_traitsILb0ELb0ELb1EEEE12_Scoped_nodeD2Ev@Base 1.22.0
 (optional=templinst)_ZNSt10_HashtableIPN3qbs8Internal4ItemESt4pairIKS3_NS1_18ModuleLoaderResult11ProductInfoEESaIS8_ENSt8__detail10_Select1stESt8equal_toIS3_ESt4hashIS3_ENSA_18_Mod_range_hashingENSA_20_Default_ranged_hashENSA_20_Prime_rehash_policyENSA_17_Hashtable_traitsILb0ELb0ELb1EEEE21_M_deallocate_bucketsEv@Base 1.22.0
 (optional=templinst)_ZNSt10_HashtableIPN3qbs8Internal4ItemESt4pairIKS3_NS1_18ModuleLoaderResult11ProductInfoEESaIS8_ENSt8__detail10_Select1stESt8equal_toIS3_ESt4hashIS3_ENSA_18_Mod_range_hashingENSA_20_Default_ranged_hashENSA_20_Prime_rehash_policyENSA_17_Hashtable_traitsILb0ELb0ELb1EEEE5clearEv@Base 1.22.0
 (optional=templinst|subst)_ZNSt10_HashtableIPN3qbs8Internal4ItemESt4pairIKS3_NS1_18ModuleLoaderResult11ProductInfoEESaIS8_ENSt8__detail10_Select1stESt8equal_toIS3_ESt4hashIS3_ENSA_18_Mod_range_hashingENSA_20_Default_ranged_hashENSA_20_Prime_rehash_policyENSA_17_Hashtable_traitsILb0ELb0ELb1EEEE9_M_rehashE{size_t}RK{size_t}@Base 1.22.0
 (optional=templinst|subst)_ZNSt10_HashtableIPN3qbs8Internal4ItemESt4pairIKS3_S3_ESaIS6_ENSt8__detail10_Select1stESt8equal_toIS3_ESt4hashIS3_ENS8_18_Mod_range_hashingENS8_20_Default_ranged_hashENS8_20_Prime_rehash_policyENS8_17_Hashtable_traitsILb0ELb0ELb1EEEE9_M_rehashE{size_t}RK{size_t}@Base 1.22.0
 (optional=templinst|subst)_ZNSt10_HashtableIPN3qbs8Internal4ItemESt4pairIKS3_St6vectorIS3_SaIS3_EEESaIS9_ENSt8__detail10_Select1stESt8equal_toIS3_ESt4hashIS3_ENSB_18_Mod_range_hashingENSB_20_Default_ranged_hashENSB_20_Prime_rehash_policyENSB_17_Hashtable_traitsILb0ELb0ELb1EEEE9_M_rehashE{size_t}RK{size_t}@Base 1.22.0
 (optional=templinst)_ZNSt10_HashtableISt10shared_ptrIKN3qbs8Internal4RuleEESt4pairIKS5_S5_ESaIS8_ENSt8__detail10_Select1stESt8equal_toIS5_ESt4hashIS5_ENSA_18_Mod_range_hashingENSA_20_Default_ranged_hashENSA_20_Prime_rehash_policyENSA_17_Hashtable_traitsILb0ELb0ELb1EEEE5clearEv@Base 1.22.0
 (optional=templinst|subst)_ZNSt10_HashtableISt10shared_ptrIKN3qbs8Internal4RuleEESt4pairIKS5_S5_ESaIS8_ENSt8__detail10_Select1stESt8equal_toIS5_ESt4hashIS5_ENSA_18_Mod_range_hashingENSA_20_Default_ranged_hashENSA_20_Prime_rehash_policyENSA_17_Hashtable_traitsILb0ELb0ELb1EEEE9_M_rehashE{size_t}RK{size_t}@Base 1.22.0
 (optional=templinst|subst)_ZNSt10_HashtableISt17basic_string_viewIcSt11char_traitsIcEESt4pairIKS3_PKN3qbs16PcPackageVariantEESaISA_ENSt8__detail10_Select1stESt8equal_toIS3_ESt4hashIS3_ENSC_18_Mod_range_hashingENSC_20_Default_ranged_hashENSC_20_Prime_rehash_policyENSC_17_Hashtable_traitsILb1ELb0ELb1EEEE9_M_rehashE{size_t}RK{size_t}@Base 1.22.0
 (optional=templinst)_ZNSt10_HashtableISt4pairI7QStringS1_ES0_IKS2_St6vectorIPN3qbs8Internal16FileResourceBaseESaIS8_EEESaISB_ENSt8__detail10_Select1stESt8equal_toIS2_ESt4hashIS2_ENSD_18_Mod_range_hashingENSD_20_Default_ranged_hashENSD_20_Prime_rehash_policyENSD_17_Hashtable_traitsILb1ELb0ELb1EEEE18_M_assign_elementsIRKSO_EEvOT_@Base 1.22.0
 (optional=templinst)_ZNSt10_HashtableISt4pairI7QStringS1_ES0_IKS2_St6vectorIPN3qbs8Internal16FileResourceBaseESaIS8_EEESaISB_ENSt8__detail10_Select1stESt8equal_toIS2_ESt4hashIS2_ENSD_18_Mod_range_hashingENSD_20_Default_ranged_hashENSD_20_Prime_rehash_policyENSD_17_Hashtable_traitsILb1ELb0ELb1EEEE21_M_deallocate_bucketsEv@Base 1.22.0
 (optional=templinst)_ZNSt10_HashtableISt4pairI7QStringS1_ES0_IKS2_St6vectorIPN3qbs8Internal16FileResourceBaseESaIS8_EEESaISB_ENSt8__detail10_Select1stESt8equal_toIS2_ESt4hashIS2_ENSD_18_Mod_range_hashingENSD_20_Default_ranged_hashENSD_20_Prime_rehash_policyENSD_17_Hashtable_traitsILb1ELb0ELb1EEEE5clearEv@Base 1.22.0
 (optional=templinst)_ZNSt10_HashtableISt4pairI7QStringS1_ES0_IKS2_St6vectorIPN3qbs8Internal16FileResourceBaseESaIS8_EEESaISB_ENSt8__detail10_Select1stESt8equal_toIS2_ESt4hashIS2_ENSD_18_Mod_range_hashingENSD_20_Default_ranged_hashENSD_20_Prime_rehash_policyENSD_17_Hashtable_traitsILb1ELb0ELb1EEEE9_M_assignIRKSO_NSD_17_ReuseOrAllocNodeISaINSD_10_Hash_nodeISB_Lb1EEEEEEEEvOT_RKT0_@Base 1.22.0
 (optional=templinst|subst)_ZNSt10_HashtableISt4pairI7QStringS1_ES0_IKS2_St6vectorIPN3qbs8Internal16FileResourceBaseESaIS8_EEESaISB_ENSt8__detail10_Select1stESt8equal_toIS2_ESt4hashIS2_ENSD_18_Mod_range_hashingENSD_20_Default_ranged_hashENSD_20_Prime_rehash_policyENSD_17_Hashtable_traitsILb1ELb0ELb1EEEE9_M_rehashE{size_t}RK{size_t}@Base 1.22.0
 (optional=templinst)_ZNSt10_HashtableIxSt4pairIKx7QStringESaIS3_ENSt8__detail10_Select1stESt8equal_toIxESt4hashIxENS5_18_Mod_range_hashingENS5_20_Default_ranged_hashENS5_20_Prime_rehash_policyENS5_17_Hashtable_traitsILb0ELb0ELb1EEEE12_Scoped_nodeD1Ev@Base 1.22.0
 (optional=templinst)_ZNSt10_HashtableIxSt4pairIKx7QStringESaIS3_ENSt8__detail10_Select1stESt8equal_toIxESt4hashIxENS5_18_Mod_range_hashingENS5_20_Default_ranged_hashENS5_20_Prime_rehash_policyENS5_17_Hashtable_traitsILb0ELb0ELb1EEEE12_Scoped_nodeD2Ev@Base 1.22.0
 (optional=templinst|subst)_ZNSt10_HashtableIxSt4pairIKx7QStringESaIS3_ENSt8__detail10_Select1stESt8equal_toIxESt4hashIxENS5_18_Mod_range_hashingENS5_20_Default_ranged_hashENS5_20_Prime_rehash_policyENS5_17_Hashtable_traitsILb0ELb0ELb1EEEE9_M_rehashE{size_t}RK{size_t}@Base 1.22.0
 (optional=templinst|subst)_ZNSt10_HashtableIxSt4pairIKxPKN3qbs8Internal15ResolvedProductEESaIS7_ENSt8__detail10_Select1stESt8equal_toIxESt4hashIxENS9_18_Mod_range_hashingENS9_20_Default_ranged_hashENS9_20_Prime_rehash_policyENS9_17_Hashtable_traitsILb0ELb0ELb1EEEE9_M_rehashE{size_t}RK{size_t}@Base 1.22.0
 (optional=templinst|subst)_ZNSt10_HashtableIxSt4pairIKxS0_I7QStringS2_EESaIS4_ENSt8__detail10_Select1stESt8equal_toIxESt4hashIxENS6_18_Mod_range_hashingENS6_20_Default_ranged_hashENS6_20_Prime_rehash_policyENS6_17_Hashtable_traitsILb0ELb0ELb1EEEE9_M_rehashE{size_t}RK{size_t}@Base 1.22.0
 (optional=templinst)_ZNSt10_HashtableIxSt4pairIKxSt6vectorI7QStringSaIS3_EEESaIS6_ENSt8__detail10_Select1stESt8equal_toIxESt4hashIxENS8_18_Mod_range_hashingENS8_20_Default_ranged_hashENS8_20_Prime_rehash_policyENS8_17_Hashtable_traitsILb0ELb0ELb1EEEE5clearEv@Base 1.17.0
 (optional=templinst|subst)_ZNSt10_HashtableIxSt4pairIKxSt6vectorI7QStringSaIS3_EEESaIS6_ENSt8__detail10_Select1stESt8equal_toIxESt4hashIxENS8_18_Mod_range_hashingENS8_20_Default_ranged_hashENS8_20_Prime_rehash_policyENS8_17_Hashtable_traitsILb0ELb0ELb1EEEE9_M_rehashE{size_t}RK{size_t}@Base 1.16.0
 (optional=templinst)_ZNSt10shared_ptrIN3qbs8Internal12VariantValueEED1Ev@Base 1.22.0
 (optional=templinst)_ZNSt10shared_ptrIN3qbs8Internal12VariantValueEED2Ev@Base 1.22.0
 (optional=templinst)_ZNSt10shared_ptrIN3qbs8Internal14ProcessCommandEED1Ev@Base 1.22.0
 (optional=templinst)_ZNSt10shared_ptrIN3qbs8Internal14ProcessCommandEED2Ev@Base 1.22.0
 (optional=templinst)_ZNSt10shared_ptrIN3qbs8Internal17JavaScriptCommandEED1Ev@Base 1.22.0
 (optional=templinst)_ZNSt10shared_ptrIN3qbs8Internal17JavaScriptCommandEED2Ev@Base 1.22.0
 (optional=templinst)_ZNSt10shared_ptrIN3qbs8Internal19PropertyMapInternalEED1Ev@Base 1.22.0
 (optional=templinst)_ZNSt10shared_ptrIN3qbs8Internal19PropertyMapInternalEED2Ev@Base 1.22.0
 (optional=templinst)_ZNSt10unique_ptrI5QFileSt14default_deleteIS0_EED1Ev@Base 1.22.0
 (optional=templinst)_ZNSt10unique_ptrI5QFileSt14default_deleteIS0_EED2Ev@Base 1.22.0
 (optional=templinst)_ZNSt10unique_ptrI9QSettingsSt14default_deleteIS0_EED1Ev@Base 1.22.0
 (optional=templinst)_ZNSt10unique_ptrI9QSettingsSt14default_deleteIS0_EED2Ev@Base 1.22.0
 (optional=templinst)_ZNSt10unique_ptrIN3qbs8Internal18PropertyMapPrivateESt14default_deleteIS2_EED1Ev@Base 1.22.0
 (optional=templinst)_ZNSt10unique_ptrIN3qbs8Internal18PropertyMapPrivateESt14default_deleteIS2_EED2Ev@Base 1.22.0
 (optional=templinst)_ZNSt10unique_ptrINSt10filesystem7__cxx114path5_List5_ImplENS3_13_Impl_deleterEED1Ev@Base 1.22.0
 (optional=templinst)_ZNSt10unique_ptrINSt10filesystem7__cxx114path5_List5_ImplENS3_13_Impl_deleterEED2Ev@Base 1.22.0
 (optional=templinst|subst)_ZNSt11_Deque_baseIN3qbs8Internal11QualifiedIdESaIS2_EE17_M_initialize_mapE{size_t}@Base 1.22.0
 (optional=templinst)_ZNSt11_Deque_baseIN3qbs8Internal11QualifiedIdESaIS2_EED1Ev@Base 1.22.0
 (optional=templinst)_ZNSt11_Deque_baseIN3qbs8Internal11QualifiedIdESaIS2_EED2Ev@Base 1.22.0
 (optional=templinst)_ZNSt11_Deque_baseINSt8__detail9_StateSeqINSt7__cxx1112regex_traitsIcEEEESaIS5_EED1Ev@Base 1.10.0
 (optional=templinst)_ZNSt11_Deque_baseINSt8__detail9_StateSeqINSt7__cxx1112regex_traitsIcEEEESaIS5_EED2Ev@Base 1.10.0
 (optional=templinst|subst)_ZNSt11_Deque_baseIlSaIlEE17_M_initialize_mapE{size_t}@Base 1.16.0
 (optional=templinst)_ZNSt11_Deque_baseIlSaIlEED1Ev@Base 1.10.0
 (optional=templinst)_ZNSt11_Deque_baseIlSaIlEED2Ev@Base 1.10.0
 (optional=templinst|subst)_ZNSt11_Tuple_implIL{size_t}0EJ12QScriptValue7QStringS0_EED1Ev@Base 1.22.0
 (optional=templinst|subst)_ZNSt11_Tuple_implIL{size_t}0EJ12QScriptValue7QStringS0_EED2Ev@Base 1.22.0
 (optional=templinst)_ZNSt12_Destroy_auxILb0EE9__destroyIPN3qbs8Internal12ModuleLoader17DependsChainEntryEEEvT_S7_@Base 1.22.0
 (optional=templinst)_ZNSt12_Destroy_auxILb0EE9__destroyIPN3qbs8Internal20RawScannedDependencyEEEvT_S6_@Base 1.22.0
 (optional=templinst)_ZNSt12_Destroy_auxILb0EE9__destroyIPN3qbs8Internal24ExportedModuleDependencyEEEvT_S6_@Base 1.22.0
 (optional=templinst)_ZNSt12_Destroy_auxILb0EE9__destroyIPN3qbs8Internal4Item6ModuleEEEvT_S7_@Base 1.22.0
 (optional=templinst)_ZNSt12_Destroy_auxILb0EE9__destroyIPN3qbs9PcPackage15RequiredVersionEEEvT_S6_@Base 1.22.0
 (optional=templinst)_ZNSt12_Destroy_auxILb0EE9__destroyIPNSt8__detail6_StateIcEEEEvT_S6_@Base 1.22.0
 (optional=templinst)_ZNSt12_Destroy_auxILb0EE9__destroyIPSt4pairI7QString12QScriptValueEEEvT_S7_@Base 1.22.0
 (optional=templinst)_ZNSt12_Destroy_auxILb0EE9__destroyIPSt4pairIPKN3qbs8Internal12RuleArtifactENS4_15RulesApplicator18OutputArtifactInfoEEEEvT_SC_@Base 1.22.0
 (optional=templinst)_ZNSt12_Vector_baseIN3qbs12CodeLocationESaIS1_EED1Ev@Base 1.22.0
 (optional=templinst)_ZNSt12_Vector_baseIN3qbs12CodeLocationESaIS1_EED2Ev@Base 1.22.0
 (optional=templinst)_ZNSt12_Vector_baseIN3qbs8Internal11QualifiedIdESaIS2_EED1Ev@Base 1.22.0
 (optional=templinst)_ZNSt12_Vector_baseIN3qbs8Internal11QualifiedIdESaIS2_EED2Ev@Base 1.22.0
 (optional=templinst)_ZNSt12_Vector_baseIN3qbs8Internal14DubiousContextESaIS2_EED1Ev@Base 1.22.0
 (optional=templinst)_ZNSt12_Vector_baseIN3qbs8Internal14DubiousContextESaIS2_EED2Ev@Base 1.22.0
 (optional=templinst)_ZNSt12_Vector_baseIN3qbs8Internal14RawScanResults8ScanDataESaIS3_EED1Ev@Base 1.22.0
 (optional=templinst)_ZNSt12_Vector_baseIN3qbs8Internal14RawScanResults8ScanDataESaIS3_EED2Ev@Base 1.22.0
 (optional=templinst)_ZNSt12_Vector_baseIN3qbs8Internal18ModuleLoaderResult11ProductInfo10DependencyESaIS4_EED1Ev@Base 1.22.0
 (optional=templinst)_ZNSt12_Vector_baseIN3qbs8Internal18ModuleLoaderResult11ProductInfo10DependencyESaIS4_EED2Ev@Base 1.22.0
 (optional=templinst)_ZNSt12_Vector_baseIN3qbs8Internal7FileTagESaIS2_EED1Ev@Base 1.22.0
 (optional=templinst)_ZNSt12_Vector_baseIN3qbs8Internal7FileTagESaIS2_EED2Ev@Base 1.22.0
 (optional=templinst)_ZNSt12_Vector_baseIN3qbs8Internal8ItemTypeESaIS2_EED1Ev@Base 1.22.0
 (optional=templinst)_ZNSt12_Vector_baseIN3qbs8Internal8ItemTypeESaIS2_EED2Ev@Base 1.22.0
 (optional=templinst)_ZNSt12_Vector_baseIN3qbs8Internal8PropertyESaIS2_EED1Ev@Base 1.22.0
 (optional=templinst)_ZNSt12_Vector_baseIN3qbs8Internal8PropertyESaIS2_EED2Ev@Base 1.22.0
 (optional=templinst|arch=!armel !armhf)_ZNSt12_Vector_baseIN3qbs9PcPackage15RequiredVersionESaIS2_EED1Ev@Base 1.22.0
 (optional=templinst|arch=!armel !armhf)_ZNSt12_Vector_baseIN3qbs9PcPackage15RequiredVersionESaIS2_EED2Ev@Base 1.22.0
 (optional=templinst)_ZNSt12_Vector_baseINSt7__cxx119sub_matchIN9__gnu_cxx17__normal_iteratorIPKcNS0_12basic_stringIcSt11char_traitsIcESaIcEEEEEEESaISC_EED1Ev@Base 1.22.0
 (optional=templinst)_ZNSt12_Vector_baseINSt7__cxx119sub_matchIN9__gnu_cxx17__normal_iteratorIPKcNS0_12basic_stringIcSt11char_traitsIcESaIcEEEEEEESaISC_EED2Ev@Base 1.22.0
 (optional=templinst)_ZNSt12_Vector_baseIPKN3qbs8Internal12ModuleLoader14ProductContextESaIS5_EED1Ev@Base 1.22.0
 (optional=templinst)_ZNSt12_Vector_baseIPKN3qbs8Internal12ModuleLoader14ProductContextESaIS5_EED2Ev@Base 1.22.0
 (optional=templinst)_ZNSt12_Vector_baseIPKN3qbs8Internal15ResolvedProductESaIS4_EED1Ev@Base 1.22.0
 (optional=templinst)_ZNSt12_Vector_baseIPKN3qbs8Internal15ResolvedProductESaIS4_EED2Ev@Base 1.22.0
 (optional=templinst)_ZNSt12_Vector_baseIPKN3qbs8Internal4ItemESaIS4_EED1Ev@Base 1.22.0
 (optional=templinst)_ZNSt12_Vector_baseIPKN3qbs8Internal4ItemESaIS4_EED2Ev@Base 1.22.0
 (optional=templinst)_ZNSt12_Vector_baseIPN3qbs8Internal12ModuleLoader14ProductContextESaIS4_EED1Ev@Base 1.22.0
 (optional=templinst)_ZNSt12_Vector_baseIPN3qbs8Internal12ModuleLoader14ProductContextESaIS4_EED2Ev@Base 1.22.0
 (optional=templinst)_ZNSt12_Vector_baseIPN3qbs8Internal14BuildGraphNodeESaIS3_EED1Ev@Base 1.22.0
 (optional=templinst)_ZNSt12_Vector_baseIPN3qbs8Internal14BuildGraphNodeESaIS3_EED2Ev@Base 1.22.0
 (optional=templinst)_ZNSt12_Vector_baseIPN3qbs8Internal15ResolvedProductESaIS3_EED1Ev@Base 1.22.0
 (optional=templinst)_ZNSt12_Vector_baseIPN3qbs8Internal15ResolvedProductESaIS3_EED2Ev@Base 1.22.0
 (optional=templinst)_ZNSt12_Vector_baseIPN3qbs8Internal17DependencyScannerESaIS3_EED1Ev@Base 1.22.0
 (optional=templinst)_ZNSt12_Vector_baseIPN3qbs8Internal17DependencyScannerESaIS3_EED2Ev@Base 1.22.0
 (optional=templinst)_ZNSt12_Vector_baseIPN3qbs8Internal4ItemESaIS3_EED1Ev@Base 1.22.0
 (optional=templinst)_ZNSt12_Vector_baseIPN3qbs8Internal4ItemESaIS3_EED2Ev@Base 1.22.0
 (optional=templinst)_ZNSt12_Vector_baseIPN3qbs8Internal4MSVCESaIS3_EED1Ev@Base 1.22.0
 (optional=templinst)_ZNSt12_Vector_baseIPN3qbs8Internal4MSVCESaIS3_EED2Ev@Base 1.22.0
 (optional=templinst)_ZNSt12_Vector_baseIPN3qbs8Internal5ValueESaIS3_EED1Ev@Base 1.22.0
 (optional=templinst)_ZNSt12_Vector_baseIPN3qbs8Internal5ValueESaIS3_EED2Ev@Base 1.22.0
 (optional=templinst)_ZNSt12_Vector_baseIPN3qbs8Internal8ArtifactESaIS3_EED1Ev@Base 1.22.0
 (optional=templinst)_ZNSt12_Vector_baseIPN3qbs8Internal8ArtifactESaIS3_EED2Ev@Base 1.22.0
 (optional=templinst)_ZNSt12_Vector_baseISt4pairIN9__gnu_cxx17__normal_iteratorIPKcNSt7__cxx1112basic_stringIcSt11char_traitsIcESaIcEEEEEiESaISC_EED1Ev@Base 1.22.0
 (optional=templinst)_ZNSt12_Vector_baseISt4pairIN9__gnu_cxx17__normal_iteratorIPKcNSt7__cxx1112basic_stringIcSt11char_traitsIcESaIcEEEEEiESaISC_EED2Ev@Base 1.22.0
 (optional=templinst)_ZNSt12_Vector_baseISt4pairIccESaIS1_EED1Ev@Base 1.22.0
 (optional=templinst)_ZNSt12_Vector_baseISt4pairIccESaIS1_EED2Ev@Base 1.22.0
 (optional=templinst)_ZNSt12_Vector_baseIcSaIcEED1Ev@Base 1.22.0
 (optional=templinst)_ZNSt12_Vector_baseIcSaIcEED2Ev@Base 1.22.0
 (optional=templinst|arch=amd64 arm64)_ZNSt13unordered_setINSt7__cxx1112basic_stringIcSt11char_traitsIcESaIcEEESt4hashIS5_ESt8equal_toIS5_ESaIS5_EEC1IN9__gnu_cxx17__normal_iteratorIPKS5_St6vectorIS5_SA_EEEEET_SK_mRKS7_RKS9_RKSA_@Base 1.22.0
 (optional=templinst|arch=amd64 arm64)_ZNSt13unordered_setINSt7__cxx1112basic_stringIcSt11char_traitsIcESaIcEEESt4hashIS5_ESt8equal_toIS5_ESaIS5_EEC2IN9__gnu_cxx17__normal_iteratorIPKS5_St6vectorIS5_SA_EEEEET_SK_mRKS7_RKS9_RKSA_@Base 1.22.0
 (optional=inline)_ZNSt14_Function_baseD1Ev@Base 1.22.0
 (optional=inline)_ZNSt14_Function_baseD2Ev@Base 1.22.0
 (optional=templinst|arch=armel riscv64)_ZNSt14__shared_countILN9__gnu_cxx12_Lock_policyE1EEaSERKS2_@Base 1.22.0
 (optional=templinst|arch=!armel !riscv64)_ZNSt14__shared_countILN9__gnu_cxx12_Lock_policyE2EEaSERKS2_@Base 1.22.0
 (optional=templinst|arch=armel riscv64)_ZNSt15_Sp_counted_ptrIDnLN9__gnu_cxx12_Lock_policyE1EE10_M_disposeEv@Base 1.22.0
 (optional=templinst|arch=!armel !riscv64)_ZNSt15_Sp_counted_ptrIDnLN9__gnu_cxx12_Lock_policyE2EE10_M_disposeEv@Base 1.22.0
 (optional=templinst|arch=armel riscv64)_ZNSt15_Sp_counted_ptrIPN3qbs8Internal10FileTaggerELN9__gnu_cxx12_Lock_policyE1EE10_M_destroyEv@Base 1.22.0
 (optional=templinst|arch=armel riscv64)_ZNSt15_Sp_counted_ptrIPN3qbs8Internal10FileTaggerELN9__gnu_cxx12_Lock_policyE1EE10_M_disposeEv@Base 1.22.0
 (optional=templinst|arch=armel riscv64)_ZNSt15_Sp_counted_ptrIPN3qbs8Internal10FileTaggerELN9__gnu_cxx12_Lock_policyE1EE14_M_get_deleterERKSt9type_info@Base 1.22.0
 (optional=templinst|arch=armel riscv64)_ZNSt15_Sp_counted_ptrIPN3qbs8Internal10FileTaggerELN9__gnu_cxx12_Lock_policyE1EED0Ev@Base 1.22.0
 (optional=templinst|arch=armel riscv64)_ZNSt15_Sp_counted_ptrIPN3qbs8Internal10FileTaggerELN9__gnu_cxx12_Lock_policyE1EED1Ev@Base 1.22.0
 (optional=templinst|arch=armel riscv64)_ZNSt15_Sp_counted_ptrIPN3qbs8Internal10FileTaggerELN9__gnu_cxx12_Lock_policyE1EED2Ev@Base 1.22.0
 (optional=templinst|arch=!armel !riscv64)_ZNSt15_Sp_counted_ptrIPN3qbs8Internal10FileTaggerELN9__gnu_cxx12_Lock_policyE2EE10_M_destroyEv@Base 1.22.0
 (optional=templinst|arch=!armel !riscv64)_ZNSt15_Sp_counted_ptrIPN3qbs8Internal10FileTaggerELN9__gnu_cxx12_Lock_policyE2EE10_M_disposeEv@Base 1.22.0
 (optional=templinst|arch=!armel !riscv64)_ZNSt15_Sp_counted_ptrIPN3qbs8Internal10FileTaggerELN9__gnu_cxx12_Lock_policyE2EE14_M_get_deleterERKSt9type_info@Base 1.22.0
 (optional=templinst|arch=!armel !riscv64)_ZNSt15_Sp_counted_ptrIPN3qbs8Internal10FileTaggerELN9__gnu_cxx12_Lock_policyE2EED0Ev@Base 1.22.0
 (optional=templinst|arch=!armel !riscv64)_ZNSt15_Sp_counted_ptrIPN3qbs8Internal10FileTaggerELN9__gnu_cxx12_Lock_policyE2EED1Ev@Base 1.22.0
 (optional=templinst|arch=!armel !riscv64)_ZNSt15_Sp_counted_ptrIPN3qbs8Internal10FileTaggerELN9__gnu_cxx12_Lock_policyE2EED2Ev@Base 1.22.0
 (optional=templinst|arch=armel riscv64)_ZNSt15_Sp_counted_ptrIPN3qbs8Internal11FileContextELN9__gnu_cxx12_Lock_policyE1EE10_M_destroyEv@Base 1.22.0
 (optional=templinst|arch=armel riscv64)_ZNSt15_Sp_counted_ptrIPN3qbs8Internal11FileContextELN9__gnu_cxx12_Lock_policyE1EE10_M_disposeEv@Base 1.22.0
 (optional=templinst|arch=armel riscv64)_ZNSt15_Sp_counted_ptrIPN3qbs8Internal11FileContextELN9__gnu_cxx12_Lock_policyE1EE14_M_get_deleterERKSt9type_info@Base 1.22.0
 (optional=templinst|arch=armel riscv64)_ZNSt15_Sp_counted_ptrIPN3qbs8Internal11FileContextELN9__gnu_cxx12_Lock_policyE1EED0Ev@Base 1.22.0
 (optional=templinst|arch=armel riscv64)_ZNSt15_Sp_counted_ptrIPN3qbs8Internal11FileContextELN9__gnu_cxx12_Lock_policyE1EED1Ev@Base 1.22.0
 (optional=templinst|arch=armel riscv64)_ZNSt15_Sp_counted_ptrIPN3qbs8Internal11FileContextELN9__gnu_cxx12_Lock_policyE1EED2Ev@Base 1.22.0
 (optional=templinst|arch=!armel !riscv64)_ZNSt15_Sp_counted_ptrIPN3qbs8Internal11FileContextELN9__gnu_cxx12_Lock_policyE2EE10_M_destroyEv@Base 1.22.0
 (optional=templinst|arch=!armel !riscv64)_ZNSt15_Sp_counted_ptrIPN3qbs8Internal11FileContextELN9__gnu_cxx12_Lock_policyE2EE10_M_disposeEv@Base 1.22.0
 (optional=templinst|arch=!armel !riscv64)_ZNSt15_Sp_counted_ptrIPN3qbs8Internal11FileContextELN9__gnu_cxx12_Lock_policyE2EE14_M_get_deleterERKSt9type_info@Base 1.22.0
 (optional=templinst|arch=!armel !riscv64)_ZNSt15_Sp_counted_ptrIPN3qbs8Internal11FileContextELN9__gnu_cxx12_Lock_policyE2EED0Ev@Base 1.22.0
 (optional=templinst|arch=!armel !riscv64)_ZNSt15_Sp_counted_ptrIPN3qbs8Internal11FileContextELN9__gnu_cxx12_Lock_policyE2EED1Ev@Base 1.22.0
 (optional=templinst|arch=!armel !riscv64)_ZNSt15_Sp_counted_ptrIPN3qbs8Internal11FileContextELN9__gnu_cxx12_Lock_policyE2EED2Ev@Base 1.22.0
 (optional=templinst|arch=armel riscv64)_ZNSt15_Sp_counted_ptrIPN3qbs8Internal11TransformerELN9__gnu_cxx12_Lock_policyE1EE10_M_destroyEv@Base 1.22.0
 (optional=templinst|arch=armel riscv64)_ZNSt15_Sp_counted_ptrIPN3qbs8Internal11TransformerELN9__gnu_cxx12_Lock_policyE1EE10_M_disposeEv@Base 1.22.0
 (optional=templinst|arch=armel riscv64)_ZNSt15_Sp_counted_ptrIPN3qbs8Internal11TransformerELN9__gnu_cxx12_Lock_policyE1EE14_M_get_deleterERKSt9type_info@Base 1.22.0
 (optional=templinst|arch=armel riscv64)_ZNSt15_Sp_counted_ptrIPN3qbs8Internal11TransformerELN9__gnu_cxx12_Lock_policyE1EED0Ev@Base 1.22.0
 (optional=templinst|arch=armel riscv64)_ZNSt15_Sp_counted_ptrIPN3qbs8Internal11TransformerELN9__gnu_cxx12_Lock_policyE1EED1Ev@Base 1.22.0
 (optional=templinst|arch=armel riscv64)_ZNSt15_Sp_counted_ptrIPN3qbs8Internal11TransformerELN9__gnu_cxx12_Lock_policyE1EED2Ev@Base 1.22.0
 (optional=templinst|arch=!armel !riscv64)_ZNSt15_Sp_counted_ptrIPN3qbs8Internal11TransformerELN9__gnu_cxx12_Lock_policyE2EE10_M_destroyEv@Base 1.22.0
 (optional=templinst|arch=!armel !riscv64)_ZNSt15_Sp_counted_ptrIPN3qbs8Internal11TransformerELN9__gnu_cxx12_Lock_policyE2EE10_M_disposeEv@Base 1.22.0
 (optional=templinst|arch=!armel !riscv64)_ZNSt15_Sp_counted_ptrIPN3qbs8Internal11TransformerELN9__gnu_cxx12_Lock_policyE2EE14_M_get_deleterERKSt9type_info@Base 1.22.0
 (optional=templinst|arch=!armel !riscv64)_ZNSt15_Sp_counted_ptrIPN3qbs8Internal11TransformerELN9__gnu_cxx12_Lock_policyE2EED0Ev@Base 1.22.0
 (optional=templinst|arch=!armel !riscv64)_ZNSt15_Sp_counted_ptrIPN3qbs8Internal11TransformerELN9__gnu_cxx12_Lock_policyE2EED1Ev@Base 1.22.0
 (optional=templinst|arch=!armel !riscv64)_ZNSt15_Sp_counted_ptrIPN3qbs8Internal11TransformerELN9__gnu_cxx12_Lock_policyE2EED2Ev@Base 1.22.0
 (optional=templinst|arch=armel riscv64)_ZNSt15_Sp_counted_ptrIPN3qbs8Internal12RuleArtifactELN9__gnu_cxx12_Lock_policyE1EE10_M_destroyEv@Base 1.22.0
 (optional=templinst|arch=armel riscv64)_ZNSt15_Sp_counted_ptrIPN3qbs8Internal12RuleArtifactELN9__gnu_cxx12_Lock_policyE1EE10_M_disposeEv@Base 1.22.0
 (optional=templinst|arch=armel riscv64)_ZNSt15_Sp_counted_ptrIPN3qbs8Internal12RuleArtifactELN9__gnu_cxx12_Lock_policyE1EE14_M_get_deleterERKSt9type_info@Base 1.22.0
 (optional=templinst|arch=armel riscv64)_ZNSt15_Sp_counted_ptrIPN3qbs8Internal12RuleArtifactELN9__gnu_cxx12_Lock_policyE1EED0Ev@Base 1.22.0
 (optional=templinst|arch=armel riscv64)_ZNSt15_Sp_counted_ptrIPN3qbs8Internal12RuleArtifactELN9__gnu_cxx12_Lock_policyE1EED1Ev@Base 1.22.0
 (optional=templinst|arch=armel riscv64)_ZNSt15_Sp_counted_ptrIPN3qbs8Internal12RuleArtifactELN9__gnu_cxx12_Lock_policyE1EED2Ev@Base 1.22.0
 (optional=templinst|arch=!armel !riscv64)_ZNSt15_Sp_counted_ptrIPN3qbs8Internal12RuleArtifactELN9__gnu_cxx12_Lock_policyE2EE10_M_destroyEv@Base 1.22.0
 (optional=templinst|arch=!armel !riscv64)_ZNSt15_Sp_counted_ptrIPN3qbs8Internal12RuleArtifactELN9__gnu_cxx12_Lock_policyE2EE10_M_disposeEv@Base 1.22.0
 (optional=templinst|arch=!armel !riscv64)_ZNSt15_Sp_counted_ptrIPN3qbs8Internal12RuleArtifactELN9__gnu_cxx12_Lock_policyE2EE14_M_get_deleterERKSt9type_info@Base 1.22.0
 (optional=templinst|arch=!armel !riscv64)_ZNSt15_Sp_counted_ptrIPN3qbs8Internal12RuleArtifactELN9__gnu_cxx12_Lock_policyE2EED0Ev@Base 1.22.0
 (optional=templinst|arch=!armel !riscv64)_ZNSt15_Sp_counted_ptrIPN3qbs8Internal12RuleArtifactELN9__gnu_cxx12_Lock_policyE2EED1Ev@Base 1.22.0
 (optional=templinst|arch=!armel !riscv64)_ZNSt15_Sp_counted_ptrIPN3qbs8Internal12RuleArtifactELN9__gnu_cxx12_Lock_policyE2EED2Ev@Base 1.22.0
 (optional=templinst|arch=armel riscv64)_ZNSt15_Sp_counted_ptrIPN3qbs8Internal13ResolvedGroupELN9__gnu_cxx12_Lock_policyE1EE10_M_destroyEv@Base 1.22.0
 (optional=templinst|arch=armel riscv64)_ZNSt15_Sp_counted_ptrIPN3qbs8Internal13ResolvedGroupELN9__gnu_cxx12_Lock_policyE1EE10_M_disposeEv@Base 1.22.0
 (optional=templinst|arch=armel riscv64)_ZNSt15_Sp_counted_ptrIPN3qbs8Internal13ResolvedGroupELN9__gnu_cxx12_Lock_policyE1EE14_M_get_deleterERKSt9type_info@Base 1.22.0
 (optional=templinst|arch=armel riscv64)_ZNSt15_Sp_counted_ptrIPN3qbs8Internal13ResolvedGroupELN9__gnu_cxx12_Lock_policyE1EED0Ev@Base 1.22.0
 (optional=templinst|arch=armel riscv64)_ZNSt15_Sp_counted_ptrIPN3qbs8Internal13ResolvedGroupELN9__gnu_cxx12_Lock_policyE1EED1Ev@Base 1.22.0
 (optional=templinst|arch=armel riscv64)_ZNSt15_Sp_counted_ptrIPN3qbs8Internal13ResolvedGroupELN9__gnu_cxx12_Lock_policyE1EED2Ev@Base 1.22.0
 (optional=templinst|arch=!armel !riscv64)_ZNSt15_Sp_counted_ptrIPN3qbs8Internal13ResolvedGroupELN9__gnu_cxx12_Lock_policyE2EE10_M_destroyEv@Base 1.22.0
 (optional=templinst|arch=!armel !riscv64)_ZNSt15_Sp_counted_ptrIPN3qbs8Internal13ResolvedGroupELN9__gnu_cxx12_Lock_policyE2EE10_M_disposeEv@Base 1.22.0
 (optional=templinst|arch=!armel !riscv64)_ZNSt15_Sp_counted_ptrIPN3qbs8Internal13ResolvedGroupELN9__gnu_cxx12_Lock_policyE2EE14_M_get_deleterERKSt9type_info@Base 1.22.0
 (optional=templinst|arch=!armel !riscv64)_ZNSt15_Sp_counted_ptrIPN3qbs8Internal13ResolvedGroupELN9__gnu_cxx12_Lock_policyE2EED0Ev@Base 1.22.0
 (optional=templinst|arch=!armel !riscv64)_ZNSt15_Sp_counted_ptrIPN3qbs8Internal13ResolvedGroupELN9__gnu_cxx12_Lock_policyE2EED1Ev@Base 1.22.0
 (optional=templinst|arch=!armel !riscv64)_ZNSt15_Sp_counted_ptrIPN3qbs8Internal13ResolvedGroupELN9__gnu_cxx12_Lock_policyE2EED2Ev@Base 1.22.0
 (optional=templinst|arch=armel riscv64)_ZNSt15_Sp_counted_ptrIPN3qbs8Internal14ProcessCommandELN9__gnu_cxx12_Lock_policyE1EE10_M_destroyEv@Base 1.22.0
 (optional=templinst|arch=armel riscv64)_ZNSt15_Sp_counted_ptrIPN3qbs8Internal14ProcessCommandELN9__gnu_cxx12_Lock_policyE1EE10_M_disposeEv@Base 1.22.0
 (optional=templinst|arch=armel riscv64)_ZNSt15_Sp_counted_ptrIPN3qbs8Internal14ProcessCommandELN9__gnu_cxx12_Lock_policyE1EE14_M_get_deleterERKSt9type_info@Base 1.22.0
 (optional=templinst|arch=armel riscv64)_ZNSt15_Sp_counted_ptrIPN3qbs8Internal14ProcessCommandELN9__gnu_cxx12_Lock_policyE1EED0Ev@Base 1.22.0
 (optional=templinst|arch=armel riscv64)_ZNSt15_Sp_counted_ptrIPN3qbs8Internal14ProcessCommandELN9__gnu_cxx12_Lock_policyE1EED1Ev@Base 1.22.0
 (optional=templinst|arch=armel riscv64)_ZNSt15_Sp_counted_ptrIPN3qbs8Internal14ProcessCommandELN9__gnu_cxx12_Lock_policyE1EED2Ev@Base 1.22.0
 (optional=templinst|arch=!armel !riscv64)_ZNSt15_Sp_counted_ptrIPN3qbs8Internal14ProcessCommandELN9__gnu_cxx12_Lock_policyE2EE10_M_destroyEv@Base 1.22.0
 (optional=templinst|arch=!armel !riscv64)_ZNSt15_Sp_counted_ptrIPN3qbs8Internal14ProcessCommandELN9__gnu_cxx12_Lock_policyE2EE10_M_disposeEv@Base 1.22.0
 (optional=templinst|arch=!armel !riscv64)_ZNSt15_Sp_counted_ptrIPN3qbs8Internal14ProcessCommandELN9__gnu_cxx12_Lock_policyE2EE14_M_get_deleterERKSt9type_info@Base 1.22.0
 (optional=templinst|arch=!armel !riscv64)_ZNSt15_Sp_counted_ptrIPN3qbs8Internal14ProcessCommandELN9__gnu_cxx12_Lock_policyE2EED0Ev@Base 1.22.0
 (optional=templinst|arch=!armel !riscv64)_ZNSt15_Sp_counted_ptrIPN3qbs8Internal14ProcessCommandELN9__gnu_cxx12_Lock_policyE2EED1Ev@Base 1.22.0
 (optional=templinst|arch=!armel !riscv64)_ZNSt15_Sp_counted_ptrIPN3qbs8Internal14ProcessCommandELN9__gnu_cxx12_Lock_policyE2EED2Ev@Base 1.22.0
 (optional=templinst|arch=armel riscv64)_ZNSt15_Sp_counted_ptrIPN3qbs8Internal14ResolvedModuleELN9__gnu_cxx12_Lock_policyE1EE10_M_destroyEv@Base 1.22.0
 (optional=templinst|arch=armel riscv64)_ZNSt15_Sp_counted_ptrIPN3qbs8Internal14ResolvedModuleELN9__gnu_cxx12_Lock_policyE1EE10_M_disposeEv@Base 1.22.0
 (optional=templinst|arch=armel riscv64)_ZNSt15_Sp_counted_ptrIPN3qbs8Internal14ResolvedModuleELN9__gnu_cxx12_Lock_policyE1EE14_M_get_deleterERKSt9type_info@Base 1.22.0
 (optional=templinst|arch=armel riscv64)_ZNSt15_Sp_counted_ptrIPN3qbs8Internal14ResolvedModuleELN9__gnu_cxx12_Lock_policyE1EED0Ev@Base 1.22.0
 (optional=templinst|arch=armel riscv64)_ZNSt15_Sp_counted_ptrIPN3qbs8Internal14ResolvedModuleELN9__gnu_cxx12_Lock_policyE1EED1Ev@Base 1.22.0
 (optional=templinst|arch=armel riscv64)_ZNSt15_Sp_counted_ptrIPN3qbs8Internal14ResolvedModuleELN9__gnu_cxx12_Lock_policyE1EED2Ev@Base 1.22.0
 (optional=templinst|arch=!armel !riscv64)_ZNSt15_Sp_counted_ptrIPN3qbs8Internal14ResolvedModuleELN9__gnu_cxx12_Lock_policyE2EE10_M_destroyEv@Base 1.22.0
 (optional=templinst|arch=!armel !riscv64)_ZNSt15_Sp_counted_ptrIPN3qbs8Internal14ResolvedModuleELN9__gnu_cxx12_Lock_policyE2EE10_M_disposeEv@Base 1.22.0
 (optional=templinst|arch=!armel !riscv64)_ZNSt15_Sp_counted_ptrIPN3qbs8Internal14ResolvedModuleELN9__gnu_cxx12_Lock_policyE2EE14_M_get_deleterERKSt9type_info@Base 1.22.0
 (optional=templinst|arch=!armel !riscv64)_ZNSt15_Sp_counted_ptrIPN3qbs8Internal14ResolvedModuleELN9__gnu_cxx12_Lock_policyE2EED0Ev@Base 1.22.0
 (optional=templinst|arch=!armel !riscv64)_ZNSt15_Sp_counted_ptrIPN3qbs8Internal14ResolvedModuleELN9__gnu_cxx12_Lock_policyE2EED1Ev@Base 1.22.0
 (optional=templinst|arch=!armel !riscv64)_ZNSt15_Sp_counted_ptrIPN3qbs8Internal14ResolvedModuleELN9__gnu_cxx12_Lock_policyE2EED2Ev@Base 1.22.0
 (optional=templinst|arch=armel riscv64)_ZNSt15_Sp_counted_ptrIPN3qbs8Internal14ScriptFunctionELN9__gnu_cxx12_Lock_policyE1EE10_M_destroyEv@Base 1.22.0
 (optional=templinst|arch=armel riscv64)_ZNSt15_Sp_counted_ptrIPN3qbs8Internal14ScriptFunctionELN9__gnu_cxx12_Lock_policyE1EE10_M_disposeEv@Base 1.22.0
 (optional=templinst|arch=armel riscv64)_ZNSt15_Sp_counted_ptrIPN3qbs8Internal14ScriptFunctionELN9__gnu_cxx12_Lock_policyE1EE14_M_get_deleterERKSt9type_info@Base 1.22.0
 (optional=templinst|arch=armel riscv64)_ZNSt15_Sp_counted_ptrIPN3qbs8Internal14ScriptFunctionELN9__gnu_cxx12_Lock_policyE1EED0Ev@Base 1.22.0
 (optional=templinst|arch=armel riscv64)_ZNSt15_Sp_counted_ptrIPN3qbs8Internal14ScriptFunctionELN9__gnu_cxx12_Lock_policyE1EED1Ev@Base 1.22.0
 (optional=templinst|arch=armel riscv64)_ZNSt15_Sp_counted_ptrIPN3qbs8Internal14ScriptFunctionELN9__gnu_cxx12_Lock_policyE1EED2Ev@Base 1.22.0
 (optional=templinst|arch=!armel !riscv64)_ZNSt15_Sp_counted_ptrIPN3qbs8Internal14ScriptFunctionELN9__gnu_cxx12_Lock_policyE2EE10_M_destroyEv@Base 1.22.0
 (optional=templinst|arch=!armel !riscv64)_ZNSt15_Sp_counted_ptrIPN3qbs8Internal14ScriptFunctionELN9__gnu_cxx12_Lock_policyE2EE10_M_disposeEv@Base 1.22.0
 (optional=templinst|arch=!armel !riscv64)_ZNSt15_Sp_counted_ptrIPN3qbs8Internal14ScriptFunctionELN9__gnu_cxx12_Lock_policyE2EE14_M_get_deleterERKSt9type_info@Base 1.22.0
 (optional=templinst|arch=!armel !riscv64)_ZNSt15_Sp_counted_ptrIPN3qbs8Internal14ScriptFunctionELN9__gnu_cxx12_Lock_policyE2EED0Ev@Base 1.22.0
 (optional=templinst|arch=!armel !riscv64)_ZNSt15_Sp_counted_ptrIPN3qbs8Internal14ScriptFunctionELN9__gnu_cxx12_Lock_policyE2EED1Ev@Base 1.22.0
 (optional=templinst|arch=!armel !riscv64)_ZNSt15_Sp_counted_ptrIPN3qbs8Internal14ScriptFunctionELN9__gnu_cxx12_Lock_policyE2EED2Ev@Base 1.22.0
 (optional=templinst|arch=armel riscv64)_ZNSt15_Sp_counted_ptrIPN3qbs8Internal15ResolvedProductELN9__gnu_cxx12_Lock_policyE1EE10_M_destroyEv@Base 1.22.0
 (optional=templinst|arch=armel riscv64)_ZNSt15_Sp_counted_ptrIPN3qbs8Internal15ResolvedProductELN9__gnu_cxx12_Lock_policyE1EE10_M_disposeEv@Base 1.22.0
 (optional=templinst|arch=armel riscv64)_ZNSt15_Sp_counted_ptrIPN3qbs8Internal15ResolvedProductELN9__gnu_cxx12_Lock_policyE1EE14_M_get_deleterERKSt9type_info@Base 1.22.0
 (optional=templinst|arch=armel riscv64)_ZNSt15_Sp_counted_ptrIPN3qbs8Internal15ResolvedProductELN9__gnu_cxx12_Lock_policyE1EED0Ev@Base 1.22.0
 (optional=templinst|arch=armel riscv64)_ZNSt15_Sp_counted_ptrIPN3qbs8Internal15ResolvedProductELN9__gnu_cxx12_Lock_policyE1EED1Ev@Base 1.22.0
 (optional=templinst|arch=armel riscv64)_ZNSt15_Sp_counted_ptrIPN3qbs8Internal15ResolvedProductELN9__gnu_cxx12_Lock_policyE1EED2Ev@Base 1.22.0
 (optional=templinst|arch=!armel !riscv64)_ZNSt15_Sp_counted_ptrIPN3qbs8Internal15ResolvedProductELN9__gnu_cxx12_Lock_policyE2EE10_M_destroyEv@Base 1.22.0
 (optional=templinst|arch=!armel !riscv64)_ZNSt15_Sp_counted_ptrIPN3qbs8Internal15ResolvedProductELN9__gnu_cxx12_Lock_policyE2EE10_M_disposeEv@Base 1.22.0
 (optional=templinst|arch=!armel !riscv64)_ZNSt15_Sp_counted_ptrIPN3qbs8Internal15ResolvedProductELN9__gnu_cxx12_Lock_policyE2EE14_M_get_deleterERKSt9type_info@Base 1.22.0
 (optional=templinst|arch=!armel !riscv64)_ZNSt15_Sp_counted_ptrIPN3qbs8Internal15ResolvedProductELN9__gnu_cxx12_Lock_policyE2EED0Ev@Base 1.22.0
 (optional=templinst|arch=!armel !riscv64)_ZNSt15_Sp_counted_ptrIPN3qbs8Internal15ResolvedProductELN9__gnu_cxx12_Lock_policyE2EED1Ev@Base 1.22.0
 (optional=templinst|arch=!armel !riscv64)_ZNSt15_Sp_counted_ptrIPN3qbs8Internal15ResolvedProductELN9__gnu_cxx12_Lock_policyE2EED2Ev@Base 1.22.0
 (optional=templinst|arch=armel riscv64)_ZNSt15_Sp_counted_ptrIPN3qbs8Internal15ResolvedProjectELN9__gnu_cxx12_Lock_policyE1EE10_M_destroyEv@Base 1.22.0
 (optional=templinst|arch=armel riscv64)_ZNSt15_Sp_counted_ptrIPN3qbs8Internal15ResolvedProjectELN9__gnu_cxx12_Lock_policyE1EE10_M_disposeEv@Base 1.22.0
 (optional=templinst|arch=armel riscv64)_ZNSt15_Sp_counted_ptrIPN3qbs8Internal15ResolvedProjectELN9__gnu_cxx12_Lock_policyE1EE14_M_get_deleterERKSt9type_info@Base 1.22.0
 (optional=templinst|arch=armel riscv64)_ZNSt15_Sp_counted_ptrIPN3qbs8Internal15ResolvedProjectELN9__gnu_cxx12_Lock_policyE1EED0Ev@Base 1.22.0
 (optional=templinst|arch=armel riscv64)_ZNSt15_Sp_counted_ptrIPN3qbs8Internal15ResolvedProjectELN9__gnu_cxx12_Lock_policyE1EED1Ev@Base 1.22.0
 (optional=templinst|arch=armel riscv64)_ZNSt15_Sp_counted_ptrIPN3qbs8Internal15ResolvedProjectELN9__gnu_cxx12_Lock_policyE1EED2Ev@Base 1.22.0
 (optional=templinst|arch=!armel !riscv64)_ZNSt15_Sp_counted_ptrIPN3qbs8Internal15ResolvedProjectELN9__gnu_cxx12_Lock_policyE2EE10_M_destroyEv@Base 1.22.0
 (optional=templinst|arch=!armel !riscv64)_ZNSt15_Sp_counted_ptrIPN3qbs8Internal15ResolvedProjectELN9__gnu_cxx12_Lock_policyE2EE10_M_disposeEv@Base 1.22.0
 (optional=templinst|arch=!armel !riscv64)_ZNSt15_Sp_counted_ptrIPN3qbs8Internal15ResolvedProjectELN9__gnu_cxx12_Lock_policyE2EE14_M_get_deleterERKSt9type_info@Base 1.22.0
 (optional=templinst|arch=!armel !riscv64)_ZNSt15_Sp_counted_ptrIPN3qbs8Internal15ResolvedProjectELN9__gnu_cxx12_Lock_policyE2EED0Ev@Base 1.22.0
 (optional=templinst|arch=!armel !riscv64)_ZNSt15_Sp_counted_ptrIPN3qbs8Internal15ResolvedProjectELN9__gnu_cxx12_Lock_policyE2EED1Ev@Base 1.22.0
 (optional=templinst|arch=!armel !riscv64)_ZNSt15_Sp_counted_ptrIPN3qbs8Internal15ResolvedProjectELN9__gnu_cxx12_Lock_policyE2EED2Ev@Base 1.22.0
 (optional=templinst|arch=armel riscv64)_ZNSt15_Sp_counted_ptrIPN3qbs8Internal15ResolvedScannerELN9__gnu_cxx12_Lock_policyE1EE10_M_destroyEv@Base 1.22.0
 (optional=templinst|arch=armel riscv64)_ZNSt15_Sp_counted_ptrIPN3qbs8Internal15ResolvedScannerELN9__gnu_cxx12_Lock_policyE1EE10_M_disposeEv@Base 1.22.0
 (optional=templinst|arch=armel riscv64)_ZNSt15_Sp_counted_ptrIPN3qbs8Internal15ResolvedScannerELN9__gnu_cxx12_Lock_policyE1EE14_M_get_deleterERKSt9type_info@Base 1.22.0
 (optional=templinst|arch=armel riscv64)_ZNSt15_Sp_counted_ptrIPN3qbs8Internal15ResolvedScannerELN9__gnu_cxx12_Lock_policyE1EED0Ev@Base 1.22.0
 (optional=templinst|arch=armel riscv64)_ZNSt15_Sp_counted_ptrIPN3qbs8Internal15ResolvedScannerELN9__gnu_cxx12_Lock_policyE1EED1Ev@Base 1.22.0
 (optional=templinst|arch=armel riscv64)_ZNSt15_Sp_counted_ptrIPN3qbs8Internal15ResolvedScannerELN9__gnu_cxx12_Lock_policyE1EED2Ev@Base 1.22.0
 (optional=templinst|arch=!armel !riscv64)_ZNSt15_Sp_counted_ptrIPN3qbs8Internal15ResolvedScannerELN9__gnu_cxx12_Lock_policyE2EE10_M_destroyEv@Base 1.22.0
 (optional=templinst|arch=!armel !riscv64)_ZNSt15_Sp_counted_ptrIPN3qbs8Internal15ResolvedScannerELN9__gnu_cxx12_Lock_policyE2EE10_M_disposeEv@Base 1.22.0
 (optional=templinst|arch=!armel !riscv64)_ZNSt15_Sp_counted_ptrIPN3qbs8Internal15ResolvedScannerELN9__gnu_cxx12_Lock_policyE2EE14_M_get_deleterERKSt9type_info@Base 1.22.0
 (optional=templinst|arch=!armel !riscv64)_ZNSt15_Sp_counted_ptrIPN3qbs8Internal15ResolvedScannerELN9__gnu_cxx12_Lock_policyE2EED0Ev@Base 1.22.0
 (optional=templinst|arch=!armel !riscv64)_ZNSt15_Sp_counted_ptrIPN3qbs8Internal15ResolvedScannerELN9__gnu_cxx12_Lock_policyE2EED1Ev@Base 1.22.0
 (optional=templinst|arch=!armel !riscv64)_ZNSt15_Sp_counted_ptrIPN3qbs8Internal15ResolvedScannerELN9__gnu_cxx12_Lock_policyE2EED2Ev@Base 1.22.0
 (optional=templinst|arch=armel riscv64)_ZNSt15_Sp_counted_ptrIPN3qbs8Internal15TopLevelProjectELN9__gnu_cxx12_Lock_policyE1EE10_M_destroyEv@Base 1.22.0
 (optional=templinst|arch=armel riscv64)_ZNSt15_Sp_counted_ptrIPN3qbs8Internal15TopLevelProjectELN9__gnu_cxx12_Lock_policyE1EE10_M_disposeEv@Base 1.22.0
 (optional=templinst|arch=armel riscv64)_ZNSt15_Sp_counted_ptrIPN3qbs8Internal15TopLevelProjectELN9__gnu_cxx12_Lock_policyE1EE14_M_get_deleterERKSt9type_info@Base 1.22.0
 (optional=templinst|arch=armel riscv64)_ZNSt15_Sp_counted_ptrIPN3qbs8Internal15TopLevelProjectELN9__gnu_cxx12_Lock_policyE1EED0Ev@Base 1.22.0
 (optional=templinst|arch=armel riscv64)_ZNSt15_Sp_counted_ptrIPN3qbs8Internal15TopLevelProjectELN9__gnu_cxx12_Lock_policyE1EED1Ev@Base 1.22.0
 (optional=templinst|arch=armel riscv64)_ZNSt15_Sp_counted_ptrIPN3qbs8Internal15TopLevelProjectELN9__gnu_cxx12_Lock_policyE1EED2Ev@Base 1.22.0
 (optional=templinst|arch=!armel !riscv64)_ZNSt15_Sp_counted_ptrIPN3qbs8Internal15TopLevelProjectELN9__gnu_cxx12_Lock_policyE2EE10_M_destroyEv@Base 1.22.0
 (optional=templinst|arch=!armel !riscv64)_ZNSt15_Sp_counted_ptrIPN3qbs8Internal15TopLevelProjectELN9__gnu_cxx12_Lock_policyE2EE10_M_disposeEv@Base 1.22.0
 (optional=templinst|arch=!armel !riscv64)_ZNSt15_Sp_counted_ptrIPN3qbs8Internal15TopLevelProjectELN9__gnu_cxx12_Lock_policyE2EE14_M_get_deleterERKSt9type_info@Base 1.22.0
 (optional=templinst|arch=!armel !riscv64)_ZNSt15_Sp_counted_ptrIPN3qbs8Internal15TopLevelProjectELN9__gnu_cxx12_Lock_policyE2EED0Ev@Base 1.22.0
 (optional=templinst|arch=!armel !riscv64)_ZNSt15_Sp_counted_ptrIPN3qbs8Internal15TopLevelProjectELN9__gnu_cxx12_Lock_policyE2EED1Ev@Base 1.22.0
 (optional=templinst|arch=!armel !riscv64)_ZNSt15_Sp_counted_ptrIPN3qbs8Internal15TopLevelProjectELN9__gnu_cxx12_Lock_policyE2EED2Ev@Base 1.22.0
 (optional=templinst|arch=armel riscv64)_ZNSt15_Sp_counted_ptrIPN3qbs8Internal17JavaScriptCommandELN9__gnu_cxx12_Lock_policyE1EE10_M_destroyEv@Base 1.22.0
 (optional=templinst|arch=armel riscv64)_ZNSt15_Sp_counted_ptrIPN3qbs8Internal17JavaScriptCommandELN9__gnu_cxx12_Lock_policyE1EE10_M_disposeEv@Base 1.22.0
 (optional=templinst|arch=armel riscv64)_ZNSt15_Sp_counted_ptrIPN3qbs8Internal17JavaScriptCommandELN9__gnu_cxx12_Lock_policyE1EE14_M_get_deleterERKSt9type_info@Base 1.22.0
 (optional=templinst|arch=armel riscv64)_ZNSt15_Sp_counted_ptrIPN3qbs8Internal17JavaScriptCommandELN9__gnu_cxx12_Lock_policyE1EED0Ev@Base 1.22.0
 (optional=templinst|arch=armel riscv64)_ZNSt15_Sp_counted_ptrIPN3qbs8Internal17JavaScriptCommandELN9__gnu_cxx12_Lock_policyE1EED1Ev@Base 1.22.0
 (optional=templinst|arch=armel riscv64)_ZNSt15_Sp_counted_ptrIPN3qbs8Internal17JavaScriptCommandELN9__gnu_cxx12_Lock_policyE1EED2Ev@Base 1.22.0
 (optional=templinst|arch=!armel !riscv64)_ZNSt15_Sp_counted_ptrIPN3qbs8Internal17JavaScriptCommandELN9__gnu_cxx12_Lock_policyE2EE10_M_destroyEv@Base 1.22.0
 (optional=templinst|arch=!armel !riscv64)_ZNSt15_Sp_counted_ptrIPN3qbs8Internal17JavaScriptCommandELN9__gnu_cxx12_Lock_policyE2EE10_M_disposeEv@Base 1.22.0
 (optional=templinst|arch=!armel !riscv64)_ZNSt15_Sp_counted_ptrIPN3qbs8Internal17JavaScriptCommandELN9__gnu_cxx12_Lock_policyE2EE14_M_get_deleterERKSt9type_info@Base 1.22.0
 (optional=templinst|arch=!armel !riscv64)_ZNSt15_Sp_counted_ptrIPN3qbs8Internal17JavaScriptCommandELN9__gnu_cxx12_Lock_policyE2EED0Ev@Base 1.22.0
 (optional=templinst|arch=!armel !riscv64)_ZNSt15_Sp_counted_ptrIPN3qbs8Internal17JavaScriptCommandELN9__gnu_cxx12_Lock_policyE2EED1Ev@Base 1.22.0
 (optional=templinst|arch=!armel !riscv64)_ZNSt15_Sp_counted_ptrIPN3qbs8Internal17JavaScriptCommandELN9__gnu_cxx12_Lock_policyE2EED2Ev@Base 1.22.0
 (optional=templinst|arch=armel riscv64)_ZNSt15_Sp_counted_ptrIPN3qbs8Internal18ArtifactPropertiesELN9__gnu_cxx12_Lock_policyE1EE10_M_destroyEv@Base 1.22.0
 (optional=templinst|arch=armel riscv64)_ZNSt15_Sp_counted_ptrIPN3qbs8Internal18ArtifactPropertiesELN9__gnu_cxx12_Lock_policyE1EE10_M_disposeEv@Base 1.22.0
 (optional=templinst|arch=armel riscv64)_ZNSt15_Sp_counted_ptrIPN3qbs8Internal18ArtifactPropertiesELN9__gnu_cxx12_Lock_policyE1EE14_M_get_deleterERKSt9type_info@Base 1.22.0
 (optional=templinst|arch=armel riscv64)_ZNSt15_Sp_counted_ptrIPN3qbs8Internal18ArtifactPropertiesELN9__gnu_cxx12_Lock_policyE1EED0Ev@Base 1.22.0
 (optional=templinst|arch=armel riscv64)_ZNSt15_Sp_counted_ptrIPN3qbs8Internal18ArtifactPropertiesELN9__gnu_cxx12_Lock_policyE1EED1Ev@Base 1.22.0
 (optional=templinst|arch=armel riscv64)_ZNSt15_Sp_counted_ptrIPN3qbs8Internal18ArtifactPropertiesELN9__gnu_cxx12_Lock_policyE1EED2Ev@Base 1.22.0
 (optional=templinst|arch=!armel !riscv64)_ZNSt15_Sp_counted_ptrIPN3qbs8Internal18ArtifactPropertiesELN9__gnu_cxx12_Lock_policyE2EE10_M_destroyEv@Base 1.22.0
 (optional=templinst|arch=!armel !riscv64)_ZNSt15_Sp_counted_ptrIPN3qbs8Internal18ArtifactPropertiesELN9__gnu_cxx12_Lock_policyE2EE10_M_disposeEv@Base 1.22.0
 (optional=templinst|arch=!armel !riscv64)_ZNSt15_Sp_counted_ptrIPN3qbs8Internal18ArtifactPropertiesELN9__gnu_cxx12_Lock_policyE2EE14_M_get_deleterERKSt9type_info@Base 1.22.0
 (optional=templinst|arch=!armel !riscv64)_ZNSt15_Sp_counted_ptrIPN3qbs8Internal18ArtifactPropertiesELN9__gnu_cxx12_Lock_policyE2EED0Ev@Base 1.22.0
 (optional=templinst|arch=!armel !riscv64)_ZNSt15_Sp_counted_ptrIPN3qbs8Internal18ArtifactPropertiesELN9__gnu_cxx12_Lock_policyE2EED1Ev@Base 1.22.0
 (optional=templinst|arch=!armel !riscv64)_ZNSt15_Sp_counted_ptrIPN3qbs8Internal18ArtifactPropertiesELN9__gnu_cxx12_Lock_policyE2EED2Ev@Base 1.22.0
 (optional=templinst|arch=armel riscv64)_ZNSt15_Sp_counted_ptrIPN3qbs8Internal19PropertyMapInternalELN9__gnu_cxx12_Lock_policyE1EE10_M_destroyEv@Base 1.22.0
 (optional=templinst|arch=armel riscv64)_ZNSt15_Sp_counted_ptrIPN3qbs8Internal19PropertyMapInternalELN9__gnu_cxx12_Lock_policyE1EE10_M_disposeEv@Base 1.22.0
 (optional=templinst|arch=armel riscv64)_ZNSt15_Sp_counted_ptrIPN3qbs8Internal19PropertyMapInternalELN9__gnu_cxx12_Lock_policyE1EE14_M_get_deleterERKSt9type_info@Base 1.22.0
 (optional=templinst|arch=armel riscv64)_ZNSt15_Sp_counted_ptrIPN3qbs8Internal19PropertyMapInternalELN9__gnu_cxx12_Lock_policyE1EED0Ev@Base 1.22.0
 (optional=templinst|arch=armel riscv64)_ZNSt15_Sp_counted_ptrIPN3qbs8Internal19PropertyMapInternalELN9__gnu_cxx12_Lock_policyE1EED1Ev@Base 1.22.0
 (optional=templinst|arch=armel riscv64)_ZNSt15_Sp_counted_ptrIPN3qbs8Internal19PropertyMapInternalELN9__gnu_cxx12_Lock_policyE1EED2Ev@Base 1.22.0
 (optional=templinst|arch=!armel !riscv64)_ZNSt15_Sp_counted_ptrIPN3qbs8Internal19PropertyMapInternalELN9__gnu_cxx12_Lock_policyE2EE10_M_destroyEv@Base 1.22.0
 (optional=templinst|arch=!armel !riscv64)_ZNSt15_Sp_counted_ptrIPN3qbs8Internal19PropertyMapInternalELN9__gnu_cxx12_Lock_policyE2EE10_M_disposeEv@Base 1.22.0
 (optional=templinst|arch=!armel !riscv64)_ZNSt15_Sp_counted_ptrIPN3qbs8Internal19PropertyMapInternalELN9__gnu_cxx12_Lock_policyE2EE14_M_get_deleterERKSt9type_info@Base 1.22.0
 (optional=templinst|arch=!armel !riscv64)_ZNSt15_Sp_counted_ptrIPN3qbs8Internal19PropertyMapInternalELN9__gnu_cxx12_Lock_policyE2EED0Ev@Base 1.22.0
 (optional=templinst|arch=!armel !riscv64)_ZNSt15_Sp_counted_ptrIPN3qbs8Internal19PropertyMapInternalELN9__gnu_cxx12_Lock_policyE2EED1Ev@Base 1.22.0
 (optional=templinst|arch=!armel !riscv64)_ZNSt15_Sp_counted_ptrIPN3qbs8Internal19PropertyMapInternalELN9__gnu_cxx12_Lock_policyE2EED2Ev@Base 1.22.0
 (optional=templinst|arch=armel riscv64)_ZNSt15_Sp_counted_ptrIPN3qbs8Internal19ResolvedFileContextELN9__gnu_cxx12_Lock_policyE1EE10_M_destroyEv@Base 1.22.0
 (optional=templinst|arch=armel riscv64)_ZNSt15_Sp_counted_ptrIPN3qbs8Internal19ResolvedFileContextELN9__gnu_cxx12_Lock_policyE1EE10_M_disposeEv@Base 1.22.0
 (optional=templinst|arch=armel riscv64)_ZNSt15_Sp_counted_ptrIPN3qbs8Internal19ResolvedFileContextELN9__gnu_cxx12_Lock_policyE1EE14_M_get_deleterERKSt9type_info@Base 1.22.0
 (optional=templinst|arch=armel riscv64)_ZNSt15_Sp_counted_ptrIPN3qbs8Internal19ResolvedFileContextELN9__gnu_cxx12_Lock_policyE1EED0Ev@Base 1.22.0
 (optional=templinst|arch=armel riscv64)_ZNSt15_Sp_counted_ptrIPN3qbs8Internal19ResolvedFileContextELN9__gnu_cxx12_Lock_policyE1EED1Ev@Base 1.22.0
 (optional=templinst|arch=armel riscv64)_ZNSt15_Sp_counted_ptrIPN3qbs8Internal19ResolvedFileContextELN9__gnu_cxx12_Lock_policyE1EED2Ev@Base 1.22.0
 (optional=templinst|arch=!armel !riscv64)_ZNSt15_Sp_counted_ptrIPN3qbs8Internal19ResolvedFileContextELN9__gnu_cxx12_Lock_policyE2EE10_M_destroyEv@Base 1.22.0
 (optional=templinst|arch=!armel !riscv64)_ZNSt15_Sp_counted_ptrIPN3qbs8Internal19ResolvedFileContextELN9__gnu_cxx12_Lock_policyE2EE10_M_disposeEv@Base 1.22.0
 (optional=templinst|arch=!armel !riscv64)_ZNSt15_Sp_counted_ptrIPN3qbs8Internal19ResolvedFileContextELN9__gnu_cxx12_Lock_policyE2EE14_M_get_deleterERKSt9type_info@Base 1.22.0
 (optional=templinst|arch=!armel !riscv64)_ZNSt15_Sp_counted_ptrIPN3qbs8Internal19ResolvedFileContextELN9__gnu_cxx12_Lock_policyE2EED0Ev@Base 1.22.0
 (optional=templinst|arch=!armel !riscv64)_ZNSt15_Sp_counted_ptrIPN3qbs8Internal19ResolvedFileContextELN9__gnu_cxx12_Lock_policyE2EED1Ev@Base 1.22.0
 (optional=templinst|arch=!armel !riscv64)_ZNSt15_Sp_counted_ptrIPN3qbs8Internal19ResolvedFileContextELN9__gnu_cxx12_Lock_policyE2EED2Ev@Base 1.22.0
 (optional=templinst|arch=armel riscv64)_ZNSt15_Sp_counted_ptrIPN3qbs8Internal22RulesEvaluationContextELN9__gnu_cxx12_Lock_policyE1EE10_M_destroyEv@Base 1.22.0
 (optional=templinst|arch=armel riscv64)_ZNSt15_Sp_counted_ptrIPN3qbs8Internal22RulesEvaluationContextELN9__gnu_cxx12_Lock_policyE1EE10_M_disposeEv@Base 1.22.0
 (optional=templinst|arch=armel riscv64)_ZNSt15_Sp_counted_ptrIPN3qbs8Internal22RulesEvaluationContextELN9__gnu_cxx12_Lock_policyE1EE14_M_get_deleterERKSt9type_info@Base 1.22.0
 (optional=templinst|arch=armel riscv64)_ZNSt15_Sp_counted_ptrIPN3qbs8Internal22RulesEvaluationContextELN9__gnu_cxx12_Lock_policyE1EED0Ev@Base 1.22.0
 (optional=templinst|arch=armel riscv64)_ZNSt15_Sp_counted_ptrIPN3qbs8Internal22RulesEvaluationContextELN9__gnu_cxx12_Lock_policyE1EED1Ev@Base 1.22.0
 (optional=templinst|arch=armel riscv64)_ZNSt15_Sp_counted_ptrIPN3qbs8Internal22RulesEvaluationContextELN9__gnu_cxx12_Lock_policyE1EED2Ev@Base 1.22.0
 (optional=templinst|arch=!armel !riscv64)_ZNSt15_Sp_counted_ptrIPN3qbs8Internal22RulesEvaluationContextELN9__gnu_cxx12_Lock_policyE2EE10_M_destroyEv@Base 1.22.0
 (optional=templinst|arch=!armel !riscv64)_ZNSt15_Sp_counted_ptrIPN3qbs8Internal22RulesEvaluationContextELN9__gnu_cxx12_Lock_policyE2EE10_M_disposeEv@Base 1.22.0
 (optional=templinst|arch=!armel !riscv64)_ZNSt15_Sp_counted_ptrIPN3qbs8Internal22RulesEvaluationContextELN9__gnu_cxx12_Lock_policyE2EE14_M_get_deleterERKSt9type_info@Base 1.22.0
 (optional=templinst|arch=!armel !riscv64)_ZNSt15_Sp_counted_ptrIPN3qbs8Internal22RulesEvaluationContextELN9__gnu_cxx12_Lock_policyE2EED0Ev@Base 1.22.0
 (optional=templinst|arch=!armel !riscv64)_ZNSt15_Sp_counted_ptrIPN3qbs8Internal22RulesEvaluationContextELN9__gnu_cxx12_Lock_policyE2EED1Ev@Base 1.22.0
 (optional=templinst|arch=!armel !riscv64)_ZNSt15_Sp_counted_ptrIPN3qbs8Internal22RulesEvaluationContextELN9__gnu_cxx12_Lock_policyE2EED2Ev@Base 1.22.0
 (optional=templinst|arch=armel riscv64)_ZNSt15_Sp_counted_ptrIPN3qbs8Internal22SourceArtifactInternalELN9__gnu_cxx12_Lock_policyE1EE10_M_destroyEv@Base 1.22.0
 (optional=templinst|arch=armel riscv64)_ZNSt15_Sp_counted_ptrIPN3qbs8Internal22SourceArtifactInternalELN9__gnu_cxx12_Lock_policyE1EE10_M_disposeEv@Base 1.22.0
 (optional=templinst|arch=armel riscv64)_ZNSt15_Sp_counted_ptrIPN3qbs8Internal22SourceArtifactInternalELN9__gnu_cxx12_Lock_policyE1EE14_M_get_deleterERKSt9type_info@Base 1.22.0
 (optional=templinst|arch=armel riscv64)_ZNSt15_Sp_counted_ptrIPN3qbs8Internal22SourceArtifactInternalELN9__gnu_cxx12_Lock_policyE1EED0Ev@Base 1.22.0
 (optional=templinst|arch=armel riscv64)_ZNSt15_Sp_counted_ptrIPN3qbs8Internal22SourceArtifactInternalELN9__gnu_cxx12_Lock_policyE1EED1Ev@Base 1.22.0
 (optional=templinst|arch=armel riscv64)_ZNSt15_Sp_counted_ptrIPN3qbs8Internal22SourceArtifactInternalELN9__gnu_cxx12_Lock_policyE1EED2Ev@Base 1.22.0
 (optional=templinst|arch=!armel !riscv64)_ZNSt15_Sp_counted_ptrIPN3qbs8Internal22SourceArtifactInternalELN9__gnu_cxx12_Lock_policyE2EE10_M_destroyEv@Base 1.22.0
 (optional=templinst|arch=!armel !riscv64)_ZNSt15_Sp_counted_ptrIPN3qbs8Internal22SourceArtifactInternalELN9__gnu_cxx12_Lock_policyE2EE10_M_disposeEv@Base 1.22.0
 (optional=templinst|arch=!armel !riscv64)_ZNSt15_Sp_counted_ptrIPN3qbs8Internal22SourceArtifactInternalELN9__gnu_cxx12_Lock_policyE2EE14_M_get_deleterERKSt9type_info@Base 1.22.0
 (optional=templinst|arch=!armel !riscv64)_ZNSt15_Sp_counted_ptrIPN3qbs8Internal22SourceArtifactInternalELN9__gnu_cxx12_Lock_policyE2EED0Ev@Base 1.22.0
 (optional=templinst|arch=!armel !riscv64)_ZNSt15_Sp_counted_ptrIPN3qbs8Internal22SourceArtifactInternalELN9__gnu_cxx12_Lock_policyE2EED1Ev@Base 1.22.0
 (optional=templinst|arch=!armel !riscv64)_ZNSt15_Sp_counted_ptrIPN3qbs8Internal22SourceArtifactInternalELN9__gnu_cxx12_Lock_policyE2EED2Ev@Base 1.22.0
 (optional=templinst|arch=armel riscv64)_ZNSt15_Sp_counted_ptrIPN3qbs8Internal4RuleELN9__gnu_cxx12_Lock_policyE1EE10_M_destroyEv@Base 1.22.0
 (optional=templinst|arch=armel riscv64)_ZNSt15_Sp_counted_ptrIPN3qbs8Internal4RuleELN9__gnu_cxx12_Lock_policyE1EE10_M_disposeEv@Base 1.22.0
 (optional=templinst|arch=armel riscv64)_ZNSt15_Sp_counted_ptrIPN3qbs8Internal4RuleELN9__gnu_cxx12_Lock_policyE1EE14_M_get_deleterERKSt9type_info@Base 1.22.0
 (optional=templinst|arch=armel riscv64)_ZNSt15_Sp_counted_ptrIPN3qbs8Internal4RuleELN9__gnu_cxx12_Lock_policyE1EED0Ev@Base 1.22.0
 (optional=templinst|arch=armel riscv64)_ZNSt15_Sp_counted_ptrIPN3qbs8Internal4RuleELN9__gnu_cxx12_Lock_policyE1EED1Ev@Base 1.22.0
 (optional=templinst|arch=armel riscv64)_ZNSt15_Sp_counted_ptrIPN3qbs8Internal4RuleELN9__gnu_cxx12_Lock_policyE1EED2Ev@Base 1.22.0
 (optional=templinst|arch=!armel !riscv64)_ZNSt15_Sp_counted_ptrIPN3qbs8Internal4RuleELN9__gnu_cxx12_Lock_policyE2EE10_M_destroyEv@Base 1.22.0
 (optional=templinst|arch=!armel !riscv64)_ZNSt15_Sp_counted_ptrIPN3qbs8Internal4RuleELN9__gnu_cxx12_Lock_policyE2EE10_M_disposeEv@Base 1.22.0
 (optional=templinst|arch=!armel !riscv64)_ZNSt15_Sp_counted_ptrIPN3qbs8Internal4RuleELN9__gnu_cxx12_Lock_policyE2EE14_M_get_deleterERKSt9type_info@Base 1.22.0
 (optional=templinst|arch=!armel !riscv64)_ZNSt15_Sp_counted_ptrIPN3qbs8Internal4RuleELN9__gnu_cxx12_Lock_policyE2EED0Ev@Base 1.22.0
 (optional=templinst|arch=!armel !riscv64)_ZNSt15_Sp_counted_ptrIPN3qbs8Internal4RuleELN9__gnu_cxx12_Lock_policyE2EED1Ev@Base 1.22.0
 (optional=templinst|arch=!armel !riscv64)_ZNSt15_Sp_counted_ptrIPN3qbs8Internal4RuleELN9__gnu_cxx12_Lock_policyE2EED2Ev@Base 1.22.0
 (optional=templinst|arch=armel riscv64)_ZNSt15_Sp_counted_ptrIPN3qbs8Internal5ProbeELN9__gnu_cxx12_Lock_policyE1EE10_M_destroyEv@Base 1.22.0
 (optional=templinst|arch=armel riscv64)_ZNSt15_Sp_counted_ptrIPN3qbs8Internal5ProbeELN9__gnu_cxx12_Lock_policyE1EE10_M_disposeEv@Base 1.22.0
 (optional=templinst|arch=armel riscv64)_ZNSt15_Sp_counted_ptrIPN3qbs8Internal5ProbeELN9__gnu_cxx12_Lock_policyE1EE14_M_get_deleterERKSt9type_info@Base 1.22.0
 (optional=templinst|arch=armel riscv64)_ZNSt15_Sp_counted_ptrIPN3qbs8Internal5ProbeELN9__gnu_cxx12_Lock_policyE1EED0Ev@Base 1.22.0
 (optional=templinst|arch=armel riscv64)_ZNSt15_Sp_counted_ptrIPN3qbs8Internal5ProbeELN9__gnu_cxx12_Lock_policyE1EED1Ev@Base 1.22.0
 (optional=templinst|arch=armel riscv64)_ZNSt15_Sp_counted_ptrIPN3qbs8Internal5ProbeELN9__gnu_cxx12_Lock_policyE1EED2Ev@Base 1.22.0
 (optional=templinst|arch=!armel !riscv64)_ZNSt15_Sp_counted_ptrIPN3qbs8Internal5ProbeELN9__gnu_cxx12_Lock_policyE2EE10_M_destroyEv@Base 1.22.0
 (optional=templinst|arch=!armel !riscv64)_ZNSt15_Sp_counted_ptrIPN3qbs8Internal5ProbeELN9__gnu_cxx12_Lock_policyE2EE10_M_disposeEv@Base 1.22.0
 (optional=templinst|arch=!armel !riscv64)_ZNSt15_Sp_counted_ptrIPN3qbs8Internal5ProbeELN9__gnu_cxx12_Lock_policyE2EE14_M_get_deleterERKSt9type_info@Base 1.22.0
 (optional=templinst|arch=!armel !riscv64)_ZNSt15_Sp_counted_ptrIPN3qbs8Internal5ProbeELN9__gnu_cxx12_Lock_policyE2EED0Ev@Base 1.22.0
 (optional=templinst|arch=!armel !riscv64)_ZNSt15_Sp_counted_ptrIPN3qbs8Internal5ProbeELN9__gnu_cxx12_Lock_policyE2EED1Ev@Base 1.22.0
 (optional=templinst|arch=!armel !riscv64)_ZNSt15_Sp_counted_ptrIPN3qbs8Internal5ProbeELN9__gnu_cxx12_Lock_policyE2EED2Ev@Base 1.22.0
 (optional=templinst|arch=armel riscv64)_ZNSt15_Sp_counted_ptrIPN3qbs8Internal8ItemPoolELN9__gnu_cxx12_Lock_policyE1EE10_M_destroyEv@Base 1.22.0
 (optional=templinst|arch=armel riscv64)_ZNSt15_Sp_counted_ptrIPN3qbs8Internal8ItemPoolELN9__gnu_cxx12_Lock_policyE1EE10_M_disposeEv@Base 1.22.0
 (optional=templinst|arch=armel riscv64)_ZNSt15_Sp_counted_ptrIPN3qbs8Internal8ItemPoolELN9__gnu_cxx12_Lock_policyE1EE14_M_get_deleterERKSt9type_info@Base 1.22.0
 (optional=templinst|arch=armel riscv64)_ZNSt15_Sp_counted_ptrIPN3qbs8Internal8ItemPoolELN9__gnu_cxx12_Lock_policyE1EED0Ev@Base 1.22.0
 (optional=templinst|arch=armel riscv64)_ZNSt15_Sp_counted_ptrIPN3qbs8Internal8ItemPoolELN9__gnu_cxx12_Lock_policyE1EED1Ev@Base 1.22.0
 (optional=templinst|arch=armel riscv64)_ZNSt15_Sp_counted_ptrIPN3qbs8Internal8ItemPoolELN9__gnu_cxx12_Lock_policyE1EED2Ev@Base 1.22.0
 (optional=templinst|arch=!armel !riscv64)_ZNSt15_Sp_counted_ptrIPN3qbs8Internal8ItemPoolELN9__gnu_cxx12_Lock_policyE2EE10_M_destroyEv@Base 1.22.0
 (optional=templinst|arch=!armel !riscv64)_ZNSt15_Sp_counted_ptrIPN3qbs8Internal8ItemPoolELN9__gnu_cxx12_Lock_policyE2EE10_M_disposeEv@Base 1.22.0
 (optional=templinst|arch=!armel !riscv64)_ZNSt15_Sp_counted_ptrIPN3qbs8Internal8ItemPoolELN9__gnu_cxx12_Lock_policyE2EE14_M_get_deleterERKSt9type_info@Base 1.22.0
 (optional=templinst|arch=!armel !riscv64)_ZNSt15_Sp_counted_ptrIPN3qbs8Internal8ItemPoolELN9__gnu_cxx12_Lock_policyE2EED0Ev@Base 1.22.0
 (optional=templinst|arch=!armel !riscv64)_ZNSt15_Sp_counted_ptrIPN3qbs8Internal8ItemPoolELN9__gnu_cxx12_Lock_policyE2EED1Ev@Base 1.22.0
 (optional=templinst|arch=!armel !riscv64)_ZNSt15_Sp_counted_ptrIPN3qbs8Internal8ItemPoolELN9__gnu_cxx12_Lock_policyE2EED2Ev@Base 1.22.0
 (optional=templinst|arch=armel riscv64)_ZNSt15__allocated_ptrISaISt23_Sp_counted_ptr_inplaceIN3qbs8Internal12VariantValueESaIS3_ELN9__gnu_cxx12_Lock_policyE1EEEED1Ev@Base 1.22.0
 (optional=templinst|arch=armel riscv64)_ZNSt15__allocated_ptrISaISt23_Sp_counted_ptr_inplaceIN3qbs8Internal12VariantValueESaIS3_ELN9__gnu_cxx12_Lock_policyE1EEEED2Ev@Base 1.22.0
 (optional=templinst|arch=!armel !riscv64)_ZNSt15__allocated_ptrISaISt23_Sp_counted_ptr_inplaceIN3qbs8Internal12VariantValueESaIS3_ELN9__gnu_cxx12_Lock_policyE2EEEED1Ev@Base 1.22.0
 (optional=templinst|arch=!armel !riscv64)_ZNSt15__allocated_ptrISaISt23_Sp_counted_ptr_inplaceIN3qbs8Internal12VariantValueESaIS3_ELN9__gnu_cxx12_Lock_policyE2EEEED2Ev@Base 1.22.0
 (optional=templinst|arch=armel riscv64)_ZNSt15__allocated_ptrISaISt23_Sp_counted_ptr_inplaceIN3qbs8Internal13JSSourceValueESaIS3_ELN9__gnu_cxx12_Lock_policyE1EEEED1Ev@Base 1.22.0
 (optional=templinst|arch=armel riscv64)_ZNSt15__allocated_ptrISaISt23_Sp_counted_ptr_inplaceIN3qbs8Internal13JSSourceValueESaIS3_ELN9__gnu_cxx12_Lock_policyE1EEEED2Ev@Base 1.22.0
 (optional=templinst|arch=!armel !riscv64)_ZNSt15__allocated_ptrISaISt23_Sp_counted_ptr_inplaceIN3qbs8Internal13JSSourceValueESaIS3_ELN9__gnu_cxx12_Lock_policyE2EEEED1Ev@Base 1.22.0
 (optional=templinst|arch=!armel !riscv64)_ZNSt15__allocated_ptrISaISt23_Sp_counted_ptr_inplaceIN3qbs8Internal13JSSourceValueESaIS3_ELN9__gnu_cxx12_Lock_policyE2EEEED2Ev@Base 1.22.0
 (optional=templinst|arch=armel riscv64)_ZNSt16_Sp_counted_baseILN9__gnu_cxx12_Lock_policyE1EE10_M_destroyEv@Base 1.22.0
 (optional=templinst|arch=armel riscv64)_ZNSt16_Sp_counted_baseILN9__gnu_cxx12_Lock_policyE1EE10_M_releaseEv@Base 1.22.0
 (optional=templinst|arch=armel riscv64)_ZNSt16_Sp_counted_baseILN9__gnu_cxx12_Lock_policyE1EE15_M_add_ref_copyEv@Base 1.22.0
 (optional=templinst|arch=!armel !riscv64)_ZNSt16_Sp_counted_baseILN9__gnu_cxx12_Lock_policyE2EE10_M_destroyEv@Base 1.22.0
 (optional=templinst|arch=!armel !riscv64)_ZNSt16_Sp_counted_baseILN9__gnu_cxx12_Lock_policyE2EE10_M_releaseEv@Base 1.22.0
 (optional=templinst|arch=!armel !riscv64)_ZNSt16_Sp_counted_baseILN9__gnu_cxx12_Lock_policyE2EE15_M_add_ref_copyEv@Base 1.22.0
 (optional=templinst)_ZNSt17_Function_handlerIF11QStringListRKN3qbs11ProductDataEEMS2_KFRKS0_vEE10_M_managerERSt9_Any_dataRKSB_St18_Manager_operation@Base 1.22.0
 (optional=templinst)_ZNSt17_Function_handlerIF11QStringListRKN3qbs11ProductDataEEMS2_KFRKS0_vEE9_M_invokeERKSt9_Any_dataS4_@Base 1.22.0
 (optional=templinst)_ZNSt17_Function_handlerIF7QStringRKN3qbs11ProductDataEEMS2_KFRKS0_vEE10_M_managerERSt9_Any_dataRKSB_St18_Manager_operation@Base 1.22.0
 (optional=templinst)_ZNSt17_Function_handlerIF7QStringRKN3qbs11ProductDataEEMS2_KFRKS0_vEE9_M_invokeERKSt9_Any_dataS4_@Base 1.22.0
 (optional=templinst)_ZNSt17_Function_handlerIF7QStringRKN3qbs11ProjectDataEEMS2_KFRKS0_vEE10_M_managerERSt9_Any_dataRKSB_St18_Manager_operation@Base 1.22.0
 (optional=templinst)_ZNSt17_Function_handlerIF7QStringRKN3qbs11ProjectDataEEMS2_KFRKS0_vEE9_M_invokeERKSt9_Any_dataS4_@Base 1.22.0
 (optional=templinst)_ZNSt17_Function_handlerIFN3qbs12CodeLocationERKNS0_11ProductDataEEMS2_KFRKS1_vEE10_M_managerERSt9_Any_dataRKSB_St18_Manager_operation@Base 1.22.0
 (optional=templinst)_ZNSt17_Function_handlerIFN3qbs12CodeLocationERKNS0_11ProductDataEEMS2_KFRKS1_vEE9_M_invokeERKSt9_Any_dataS4_@Base 1.22.0
 (optional=templinst)_ZNSt17_Function_handlerIFbcENSt8__detail11_AnyMatcherINSt7__cxx1112regex_traitsIcEELb0ELb0ELb0EEEE10_M_managerERSt9_Any_dataRKS8_St18_Manager_operation@Base 1.22.0
 (optional=templinst)_ZNSt17_Function_handlerIFbcENSt8__detail11_AnyMatcherINSt7__cxx1112regex_traitsIcEELb0ELb0ELb0EEEE9_M_invokeERKSt9_Any_dataOc@Base 1.22.0
 (optional=templinst)_ZNSt17_Function_handlerIFbcENSt8__detail11_AnyMatcherINSt7__cxx1112regex_traitsIcEELb0ELb0ELb1EEEE10_M_managerERSt9_Any_dataRKS8_St18_Manager_operation@Base 1.22.0
 (optional=templinst)_ZNSt17_Function_handlerIFbcENSt8__detail11_AnyMatcherINSt7__cxx1112regex_traitsIcEELb0ELb0ELb1EEEE9_M_invokeERKSt9_Any_dataOc@Base 1.22.0
 (optional=templinst)_ZNSt17_Function_handlerIFbcENSt8__detail11_AnyMatcherINSt7__cxx1112regex_traitsIcEELb0ELb1ELb0EEEE10_M_managerERSt9_Any_dataRKS8_St18_Manager_operation@Base 1.22.0
 (optional=templinst)_ZNSt17_Function_handlerIFbcENSt8__detail11_AnyMatcherINSt7__cxx1112regex_traitsIcEELb0ELb1ELb0EEEE9_M_invokeERKSt9_Any_dataOc@Base 1.22.0
 (optional=templinst)_ZNSt17_Function_handlerIFbcENSt8__detail11_AnyMatcherINSt7__cxx1112regex_traitsIcEELb0ELb1ELb1EEEE10_M_managerERSt9_Any_dataRKS8_St18_Manager_operation@Base 1.22.0
 (optional=templinst)_ZNSt17_Function_handlerIFbcENSt8__detail11_AnyMatcherINSt7__cxx1112regex_traitsIcEELb0ELb1ELb1EEEE9_M_invokeERKSt9_Any_dataOc@Base 1.22.0
 (optional=templinst)_ZNSt17_Function_handlerIFbcENSt8__detail11_AnyMatcherINSt7__cxx1112regex_traitsIcEELb1ELb0ELb0EEEE10_M_managerERSt9_Any_dataRKS8_St18_Manager_operation@Base 1.22.0
 (optional=templinst)_ZNSt17_Function_handlerIFbcENSt8__detail11_AnyMatcherINSt7__cxx1112regex_traitsIcEELb1ELb0ELb0EEEE9_M_invokeERKSt9_Any_dataOc@Base 1.22.0
 (optional=templinst)_ZNSt17_Function_handlerIFbcENSt8__detail11_AnyMatcherINSt7__cxx1112regex_traitsIcEELb1ELb0ELb1EEEE10_M_managerERSt9_Any_dataRKS8_St18_Manager_operation@Base 1.22.0
 (optional=templinst)_ZNSt17_Function_handlerIFbcENSt8__detail11_AnyMatcherINSt7__cxx1112regex_traitsIcEELb1ELb0ELb1EEEE9_M_invokeERKSt9_Any_dataOc@Base 1.22.0
 (optional=templinst)_ZNSt17_Function_handlerIFbcENSt8__detail11_AnyMatcherINSt7__cxx1112regex_traitsIcEELb1ELb1ELb0EEEE10_M_managerERSt9_Any_dataRKS8_St18_Manager_operation@Base 1.22.0
 (optional=templinst)_ZNSt17_Function_handlerIFbcENSt8__detail11_AnyMatcherINSt7__cxx1112regex_traitsIcEELb1ELb1ELb0EEEE9_M_invokeERKSt9_Any_dataOc@Base 1.22.0
 (optional=templinst)_ZNSt17_Function_handlerIFbcENSt8__detail11_AnyMatcherINSt7__cxx1112regex_traitsIcEELb1ELb1ELb1EEEE10_M_managerERSt9_Any_dataRKS8_St18_Manager_operation@Base 1.22.0
 (optional=templinst)_ZNSt17_Function_handlerIFbcENSt8__detail11_AnyMatcherINSt7__cxx1112regex_traitsIcEELb1ELb1ELb1EEEE9_M_invokeERKSt9_Any_dataOc@Base 1.22.0
 (optional=templinst)_ZNSt17_Function_handlerIFbcENSt8__detail12_CharMatcherINSt7__cxx1112regex_traitsIcEELb0ELb0EEEE10_M_managerERSt9_Any_dataRKS8_St18_Manager_operation@Base 1.22.0
 (optional=templinst)_ZNSt17_Function_handlerIFbcENSt8__detail12_CharMatcherINSt7__cxx1112regex_traitsIcEELb0ELb0EEEE9_M_invokeERKSt9_Any_dataOc@Base 1.22.0
 (optional=templinst)_ZNSt17_Function_handlerIFbcENSt8__detail12_CharMatcherINSt7__cxx1112regex_traitsIcEELb0ELb1EEEE10_M_managerERSt9_Any_dataRKS8_St18_Manager_operation@Base 1.22.0
 (optional=templinst)_ZNSt17_Function_handlerIFbcENSt8__detail12_CharMatcherINSt7__cxx1112regex_traitsIcEELb0ELb1EEEE9_M_invokeERKSt9_Any_dataOc@Base 1.22.0
 (optional=templinst)_ZNSt17_Function_handlerIFbcENSt8__detail12_CharMatcherINSt7__cxx1112regex_traitsIcEELb1ELb0EEEE10_M_managerERSt9_Any_dataRKS8_St18_Manager_operation@Base 1.22.0
 (optional=templinst)_ZNSt17_Function_handlerIFbcENSt8__detail12_CharMatcherINSt7__cxx1112regex_traitsIcEELb1ELb0EEEE9_M_invokeERKSt9_Any_dataOc@Base 1.22.0
 (optional=templinst)_ZNSt17_Function_handlerIFbcENSt8__detail12_CharMatcherINSt7__cxx1112regex_traitsIcEELb1ELb1EEEE10_M_managerERSt9_Any_dataRKS8_St18_Manager_operation@Base 1.22.0
 (optional=templinst)_ZNSt17_Function_handlerIFbcENSt8__detail12_CharMatcherINSt7__cxx1112regex_traitsIcEELb1ELb1EEEE9_M_invokeERKSt9_Any_dataOc@Base 1.22.0
 (optional=templinst)_ZNSt17_Function_handlerIFbcENSt8__detail15_BracketMatcherINSt7__cxx1112regex_traitsIcEELb0ELb0EEEE10_M_managerERSt9_Any_dataRKS8_St18_Manager_operation@Base 1.22.0
 (optional=templinst)_ZNSt17_Function_handlerIFbcENSt8__detail15_BracketMatcherINSt7__cxx1112regex_traitsIcEELb0ELb0EEEE9_M_invokeERKSt9_Any_dataOc@Base 1.22.0
 (optional=templinst)_ZNSt17_Function_handlerIFbcENSt8__detail15_BracketMatcherINSt7__cxx1112regex_traitsIcEELb0ELb1EEEE10_M_managerERSt9_Any_dataRKS8_St18_Manager_operation@Base 1.22.0
 (optional=templinst)_ZNSt17_Function_handlerIFbcENSt8__detail15_BracketMatcherINSt7__cxx1112regex_traitsIcEELb0ELb1EEEE9_M_invokeERKSt9_Any_dataOc@Base 1.22.0
 (optional=templinst)_ZNSt17_Function_handlerIFbcENSt8__detail15_BracketMatcherINSt7__cxx1112regex_traitsIcEELb1ELb0EEEE10_M_managerERSt9_Any_dataRKS8_St18_Manager_operation@Base 1.22.0
 (optional=templinst)_ZNSt17_Function_handlerIFbcENSt8__detail15_BracketMatcherINSt7__cxx1112regex_traitsIcEELb1ELb0EEEE9_M_invokeERKSt9_Any_dataOc@Base 1.22.0
 (optional=templinst)_ZNSt17_Function_handlerIFbcENSt8__detail15_BracketMatcherINSt7__cxx1112regex_traitsIcEELb1ELb1EEEE10_M_managerERSt9_Any_dataRKS8_St18_Manager_operation@Base 1.22.0
 (optional=templinst)_ZNSt17_Function_handlerIFbcENSt8__detail15_BracketMatcherINSt7__cxx1112regex_traitsIcEELb1ELb1EEEE9_M_invokeERKSt9_Any_dataOc@Base 1.22.0
 _ZNSt18bad_variant_accessD0Ev@Base 1.22.0
 _ZNSt18bad_variant_accessD1Ev@Base 1.22.0
 _ZNSt18bad_variant_accessD2Ev@Base 1.22.0
 (optional=templinst|arch=armel riscv64)_ZNSt19_Sp_counted_deleterIPN3qbs8Internal12ExportedItemESt14default_deleteIS2_ESaIvELN9__gnu_cxx12_Lock_policyE1EE10_M_destroyEv@Base 1.22.0
 (optional=templinst|arch=armel riscv64)_ZNSt19_Sp_counted_deleterIPN3qbs8Internal12ExportedItemESt14default_deleteIS2_ESaIvELN9__gnu_cxx12_Lock_policyE1EE10_M_disposeEv@Base 1.22.0
 (optional=templinst|arch=armel riscv64)_ZNSt19_Sp_counted_deleterIPN3qbs8Internal12ExportedItemESt14default_deleteIS2_ESaIvELN9__gnu_cxx12_Lock_policyE1EE14_M_get_deleterERKSt9type_info@Base 1.22.0
 (optional=templinst|arch=armel riscv64)_ZNSt19_Sp_counted_deleterIPN3qbs8Internal12ExportedItemESt14default_deleteIS2_ESaIvELN9__gnu_cxx12_Lock_policyE1EED0Ev@Base 1.22.0
 (optional=templinst|arch=armel riscv64)_ZNSt19_Sp_counted_deleterIPN3qbs8Internal12ExportedItemESt14default_deleteIS2_ESaIvELN9__gnu_cxx12_Lock_policyE1EED1Ev@Base 1.22.0
 (optional=templinst|arch=armel riscv64)_ZNSt19_Sp_counted_deleterIPN3qbs8Internal12ExportedItemESt14default_deleteIS2_ESaIvELN9__gnu_cxx12_Lock_policyE1EED2Ev@Base 1.22.0
 (optional=templinst|arch=!armel !riscv64)_ZNSt19_Sp_counted_deleterIPN3qbs8Internal12ExportedItemESt14default_deleteIS2_ESaIvELN9__gnu_cxx12_Lock_policyE2EE10_M_destroyEv@Base 1.22.0
 (optional=templinst|arch=!armel !riscv64)_ZNSt19_Sp_counted_deleterIPN3qbs8Internal12ExportedItemESt14default_deleteIS2_ESaIvELN9__gnu_cxx12_Lock_policyE2EE10_M_disposeEv@Base 1.22.0
 (optional=templinst|arch=!armel !riscv64)_ZNSt19_Sp_counted_deleterIPN3qbs8Internal12ExportedItemESt14default_deleteIS2_ESaIvELN9__gnu_cxx12_Lock_policyE2EE14_M_get_deleterERKSt9type_info@Base 1.22.0
 (optional=templinst|arch=!armel !riscv64)_ZNSt19_Sp_counted_deleterIPN3qbs8Internal12ExportedItemESt14default_deleteIS2_ESaIvELN9__gnu_cxx12_Lock_policyE2EED0Ev@Base 1.22.0
 (optional=templinst|arch=!armel !riscv64)_ZNSt19_Sp_counted_deleterIPN3qbs8Internal12ExportedItemESt14default_deleteIS2_ESaIvELN9__gnu_cxx12_Lock_policyE2EED1Ev@Base 1.22.0
 (optional=templinst|arch=!armel !riscv64)_ZNSt19_Sp_counted_deleterIPN3qbs8Internal12ExportedItemESt14default_deleteIS2_ESaIvELN9__gnu_cxx12_Lock_policyE2EED2Ev@Base 1.22.0
 (optional=templinst)_ZNSt20__uninitialized_copyILb0EE13__uninit_copyIN5QListIN3qbs8Internal18ModuleLoaderResult11ProductInfo10DependencyEE14const_iteratorEPS7_EET0_T_SC_SB_@Base 1.22.0
 (optional=templinst)_ZNSt20__uninitialized_copyILb0EE13__uninit_copyIN9__gnu_cxx17__normal_iteratorIPKN3qbs8Internal14RawScanResults8ScanDataESt6vectorIS7_SaIS7_EEEEPS7_EET0_T_SG_SF_@Base 1.22.0
 (optional=templinst)_ZNSt20__uninitialized_copyILb0EE13__uninit_copyIN9__gnu_cxx17__normal_iteratorIPKN3qbs8Internal18ModuleLoaderResult11ProductInfo10DependencyESt6vectorIS8_SaIS8_EEEEPS8_EET0_T_SH_SG_@Base 1.22.0
 (optional=templinst|arch=armel armhf i386 mips64el mipsel powerpc ppc64 ppc64el riscv64 s390x)_ZNSt20__uninitialized_copyILb0EE13__uninit_copyIN9__gnu_cxx17__normal_iteratorIPKN3qbs8Internal4Item6ModuleESt6vectorIS7_SaIS7_EEEEPS7_EET0_T_SG_SF_@Base 1.22.0
 (optional=templinst)_ZNSt20__uninitialized_copyILb0EE13__uninit_copyIN9__gnu_cxx17__normal_iteratorIPKN3qbs8Internal8PropertyESt6vectorIS6_SaIS6_EEEEPS6_EET0_T_SF_SE_@Base 1.22.0
 (optional=templinst|arch=armel armhf)_ZNSt20__uninitialized_copyILb0EE13__uninit_copyIN9__gnu_cxx17__normal_iteratorIPKN3qbs9PcPackage15RequiredVersionESt6vectorIS6_SaIS6_EEEEPS6_EET0_T_SF_SE_@Base 1.22.0
 (optional=templinst)_ZNSt20__uninitialized_copyILb0EE13__uninit_copyIPKN3qbs8Internal12RuleArtifact7BindingEPS5_EET0_T_SA_S9_@Base 1.22.0
 (optional=templinst)_ZNSt20__uninitialized_copyILb0EE13__uninit_copyIPKN3qbs8Internal13JSSourceValue11AlternativeEPS5_EET0_T_SA_S9_@Base 1.22.0
 (optional=templinst)_ZNSt20__uninitialized_copyILb0EE13__uninit_copyIPKN3qbs8Internal4MSVCEPS4_EET0_T_S9_S8_@Base 1.22.0
 (optional=templinst|arch=armel riscv64)_ZNSt23_Sp_counted_ptr_inplaceIN3qbs8Internal12ExportedItemESaIS2_ELN9__gnu_cxx12_Lock_policyE1EE10_M_destroyEv@Base 1.22.0
 (optional=templinst|arch=armel riscv64)_ZNSt23_Sp_counted_ptr_inplaceIN3qbs8Internal12ExportedItemESaIS2_ELN9__gnu_cxx12_Lock_policyE1EE10_M_disposeEv@Base 1.22.0
 (optional=templinst|arch=armel riscv64)_ZNSt23_Sp_counted_ptr_inplaceIN3qbs8Internal12ExportedItemESaIS2_ELN9__gnu_cxx12_Lock_policyE1EE14_M_get_deleterERKSt9type_info@Base 1.22.0
 (optional=templinst|arch=armel riscv64)_ZNSt23_Sp_counted_ptr_inplaceIN3qbs8Internal12ExportedItemESaIS2_ELN9__gnu_cxx12_Lock_policyE1EED0Ev@Base 1.22.0
 (optional=templinst|arch=armel riscv64)_ZNSt23_Sp_counted_ptr_inplaceIN3qbs8Internal12ExportedItemESaIS2_ELN9__gnu_cxx12_Lock_policyE1EED1Ev@Base 1.22.0
 (optional=templinst|arch=armel riscv64)_ZNSt23_Sp_counted_ptr_inplaceIN3qbs8Internal12ExportedItemESaIS2_ELN9__gnu_cxx12_Lock_policyE1EED2Ev@Base 1.22.0
 (optional=templinst|arch=!armel !riscv64)_ZNSt23_Sp_counted_ptr_inplaceIN3qbs8Internal12ExportedItemESaIS2_ELN9__gnu_cxx12_Lock_policyE2EE10_M_destroyEv@Base 1.22.0
 (optional=templinst|arch=!armel !riscv64)_ZNSt23_Sp_counted_ptr_inplaceIN3qbs8Internal12ExportedItemESaIS2_ELN9__gnu_cxx12_Lock_policyE2EE10_M_disposeEv@Base 1.22.0
 (optional=templinst|arch=!armel !riscv64)_ZNSt23_Sp_counted_ptr_inplaceIN3qbs8Internal12ExportedItemESaIS2_ELN9__gnu_cxx12_Lock_policyE2EE14_M_get_deleterERKSt9type_info@Base 1.22.0
 (optional=templinst|arch=!armel !riscv64)_ZNSt23_Sp_counted_ptr_inplaceIN3qbs8Internal12ExportedItemESaIS2_ELN9__gnu_cxx12_Lock_policyE2EED0Ev@Base 1.22.0
 (optional=templinst|arch=!armel !riscv64)_ZNSt23_Sp_counted_ptr_inplaceIN3qbs8Internal12ExportedItemESaIS2_ELN9__gnu_cxx12_Lock_policyE2EED1Ev@Base 1.22.0
 (optional=templinst|arch=!armel !riscv64)_ZNSt23_Sp_counted_ptr_inplaceIN3qbs8Internal12ExportedItemESaIS2_ELN9__gnu_cxx12_Lock_policyE2EED2Ev@Base 1.22.0
 (optional=templinst|arch=armel riscv64)_ZNSt23_Sp_counted_ptr_inplaceIN3qbs8Internal12VariantValueESaIS2_ELN9__gnu_cxx12_Lock_policyE1EE10_M_destroyEv@Base 1.22.0
 (optional=templinst|arch=armel riscv64)_ZNSt23_Sp_counted_ptr_inplaceIN3qbs8Internal12VariantValueESaIS2_ELN9__gnu_cxx12_Lock_policyE1EE10_M_disposeEv@Base 1.22.0
 (optional=templinst|arch=armel riscv64)_ZNSt23_Sp_counted_ptr_inplaceIN3qbs8Internal12VariantValueESaIS2_ELN9__gnu_cxx12_Lock_policyE1EE14_M_get_deleterERKSt9type_info@Base 1.22.0
 (optional=templinst|arch=armel riscv64)_ZNSt23_Sp_counted_ptr_inplaceIN3qbs8Internal12VariantValueESaIS2_ELN9__gnu_cxx12_Lock_policyE1EED0Ev@Base 1.22.0
 (optional=templinst|arch=armel riscv64)_ZNSt23_Sp_counted_ptr_inplaceIN3qbs8Internal12VariantValueESaIS2_ELN9__gnu_cxx12_Lock_policyE1EED1Ev@Base 1.22.0
 (optional=templinst|arch=armel riscv64)_ZNSt23_Sp_counted_ptr_inplaceIN3qbs8Internal12VariantValueESaIS2_ELN9__gnu_cxx12_Lock_policyE1EED2Ev@Base 1.22.0
 (optional=templinst|arch=!armel !riscv64)_ZNSt23_Sp_counted_ptr_inplaceIN3qbs8Internal12VariantValueESaIS2_ELN9__gnu_cxx12_Lock_policyE2EE10_M_destroyEv@Base 1.22.0
 (optional=templinst|arch=!armel !riscv64)_ZNSt23_Sp_counted_ptr_inplaceIN3qbs8Internal12VariantValueESaIS2_ELN9__gnu_cxx12_Lock_policyE2EE10_M_disposeEv@Base 1.22.0
 (optional=templinst|arch=!armel !riscv64)_ZNSt23_Sp_counted_ptr_inplaceIN3qbs8Internal12VariantValueESaIS2_ELN9__gnu_cxx12_Lock_policyE2EE14_M_get_deleterERKSt9type_info@Base 1.22.0
 (optional=templinst|arch=!armel !riscv64)_ZNSt23_Sp_counted_ptr_inplaceIN3qbs8Internal12VariantValueESaIS2_ELN9__gnu_cxx12_Lock_policyE2EED0Ev@Base 1.22.0
 (optional=templinst|arch=!armel !riscv64)_ZNSt23_Sp_counted_ptr_inplaceIN3qbs8Internal12VariantValueESaIS2_ELN9__gnu_cxx12_Lock_policyE2EED1Ev@Base 1.22.0
 (optional=templinst|arch=!armel !riscv64)_ZNSt23_Sp_counted_ptr_inplaceIN3qbs8Internal12VariantValueESaIS2_ELN9__gnu_cxx12_Lock_policyE2EED2Ev@Base 1.22.0
 (optional=templinst|arch=armel riscv64)_ZNSt23_Sp_counted_ptr_inplaceIN3qbs8Internal13JSSourceValueESaIS2_ELN9__gnu_cxx12_Lock_policyE1EE10_M_destroyEv@Base 1.22.0
 (optional=templinst|arch=armel riscv64)_ZNSt23_Sp_counted_ptr_inplaceIN3qbs8Internal13JSSourceValueESaIS2_ELN9__gnu_cxx12_Lock_policyE1EE10_M_disposeEv@Base 1.22.0
 (optional=templinst|arch=armel riscv64)_ZNSt23_Sp_counted_ptr_inplaceIN3qbs8Internal13JSSourceValueESaIS2_ELN9__gnu_cxx12_Lock_policyE1EE14_M_get_deleterERKSt9type_info@Base 1.22.0
 (optional=templinst|arch=armel riscv64)_ZNSt23_Sp_counted_ptr_inplaceIN3qbs8Internal13JSSourceValueESaIS2_ELN9__gnu_cxx12_Lock_policyE1EED0Ev@Base 1.22.0
 (optional=templinst|arch=armel riscv64)_ZNSt23_Sp_counted_ptr_inplaceIN3qbs8Internal13JSSourceValueESaIS2_ELN9__gnu_cxx12_Lock_policyE1EED1Ev@Base 1.22.0
 (optional=templinst|arch=armel riscv64)_ZNSt23_Sp_counted_ptr_inplaceIN3qbs8Internal13JSSourceValueESaIS2_ELN9__gnu_cxx12_Lock_policyE1EED2Ev@Base 1.22.0
 (optional=templinst|arch=!armel !riscv64)_ZNSt23_Sp_counted_ptr_inplaceIN3qbs8Internal13JSSourceValueESaIS2_ELN9__gnu_cxx12_Lock_policyE2EE10_M_destroyEv@Base 1.22.0
 (optional=templinst|arch=!armel !riscv64)_ZNSt23_Sp_counted_ptr_inplaceIN3qbs8Internal13JSSourceValueESaIS2_ELN9__gnu_cxx12_Lock_policyE2EE10_M_disposeEv@Base 1.22.0
 (optional=templinst|arch=!armel !riscv64)_ZNSt23_Sp_counted_ptr_inplaceIN3qbs8Internal13JSSourceValueESaIS2_ELN9__gnu_cxx12_Lock_policyE2EE14_M_get_deleterERKSt9type_info@Base 1.22.0
 (optional=templinst|arch=!armel !riscv64)_ZNSt23_Sp_counted_ptr_inplaceIN3qbs8Internal13JSSourceValueESaIS2_ELN9__gnu_cxx12_Lock_policyE2EED0Ev@Base 1.22.0
 (optional=templinst|arch=!armel !riscv64)_ZNSt23_Sp_counted_ptr_inplaceIN3qbs8Internal13JSSourceValueESaIS2_ELN9__gnu_cxx12_Lock_policyE2EED1Ev@Base 1.22.0
 (optional=templinst|arch=!armel !riscv64)_ZNSt23_Sp_counted_ptr_inplaceIN3qbs8Internal13JSSourceValueESaIS2_ELN9__gnu_cxx12_Lock_policyE2EED2Ev@Base 1.22.0
 (optional=templinst|arch=armel riscv64)_ZNSt23_Sp_counted_ptr_inplaceIN3qbs8Internal16ProjectBuildDataESaIS2_ELN9__gnu_cxx12_Lock_policyE1EE10_M_destroyEv@Base 1.22.0
 (optional=templinst|arch=armel riscv64)_ZNSt23_Sp_counted_ptr_inplaceIN3qbs8Internal16ProjectBuildDataESaIS2_ELN9__gnu_cxx12_Lock_policyE1EE10_M_disposeEv@Base 1.22.0
 (optional=templinst|arch=armel riscv64)_ZNSt23_Sp_counted_ptr_inplaceIN3qbs8Internal16ProjectBuildDataESaIS2_ELN9__gnu_cxx12_Lock_policyE1EE14_M_get_deleterERKSt9type_info@Base 1.22.0
 (optional=templinst|arch=armel riscv64)_ZNSt23_Sp_counted_ptr_inplaceIN3qbs8Internal16ProjectBuildDataESaIS2_ELN9__gnu_cxx12_Lock_policyE1EED0Ev@Base 1.22.0
 (optional=templinst|arch=armel riscv64)_ZNSt23_Sp_counted_ptr_inplaceIN3qbs8Internal16ProjectBuildDataESaIS2_ELN9__gnu_cxx12_Lock_policyE1EED1Ev@Base 1.22.0
 (optional=templinst|arch=armel riscv64)_ZNSt23_Sp_counted_ptr_inplaceIN3qbs8Internal16ProjectBuildDataESaIS2_ELN9__gnu_cxx12_Lock_policyE1EED2Ev@Base 1.22.0
 (optional=templinst|arch=!armel !riscv64)_ZNSt23_Sp_counted_ptr_inplaceIN3qbs8Internal16ProjectBuildDataESaIS2_ELN9__gnu_cxx12_Lock_policyE2EE10_M_destroyEv@Base 1.22.0
 (optional=templinst|arch=!armel !riscv64)_ZNSt23_Sp_counted_ptr_inplaceIN3qbs8Internal16ProjectBuildDataESaIS2_ELN9__gnu_cxx12_Lock_policyE2EE10_M_disposeEv@Base 1.22.0
 (optional=templinst|arch=!armel !riscv64)_ZNSt23_Sp_counted_ptr_inplaceIN3qbs8Internal16ProjectBuildDataESaIS2_ELN9__gnu_cxx12_Lock_policyE2EE14_M_get_deleterERKSt9type_info@Base 1.22.0
 (optional=templinst|arch=!armel !riscv64)_ZNSt23_Sp_counted_ptr_inplaceIN3qbs8Internal16ProjectBuildDataESaIS2_ELN9__gnu_cxx12_Lock_policyE2EED0Ev@Base 1.22.0
 (optional=templinst|arch=!armel !riscv64)_ZNSt23_Sp_counted_ptr_inplaceIN3qbs8Internal16ProjectBuildDataESaIS2_ELN9__gnu_cxx12_Lock_policyE2EED1Ev@Base 1.22.0
 (optional=templinst|arch=!armel !riscv64)_ZNSt23_Sp_counted_ptr_inplaceIN3qbs8Internal16ProjectBuildDataESaIS2_ELN9__gnu_cxx12_Lock_policyE2EED2Ev@Base 1.22.0
 (optional=templinst|arch=armel riscv64)_ZNSt23_Sp_counted_ptr_inplaceIN3qbs8Internal21UserDependencyScannerESaIS2_ELN9__gnu_cxx12_Lock_policyE1EE10_M_destroyEv@Base 1.22.0
 (optional=templinst|arch=armel riscv64)_ZNSt23_Sp_counted_ptr_inplaceIN3qbs8Internal21UserDependencyScannerESaIS2_ELN9__gnu_cxx12_Lock_policyE1EE10_M_disposeEv@Base 1.22.0
 (optional=templinst|arch=armel riscv64)_ZNSt23_Sp_counted_ptr_inplaceIN3qbs8Internal21UserDependencyScannerESaIS2_ELN9__gnu_cxx12_Lock_policyE1EE14_M_get_deleterERKSt9type_info@Base 1.22.0
 (optional=templinst|arch=armel riscv64)_ZNSt23_Sp_counted_ptr_inplaceIN3qbs8Internal21UserDependencyScannerESaIS2_ELN9__gnu_cxx12_Lock_policyE1EED0Ev@Base 1.22.0
 (optional=templinst|arch=armel riscv64)_ZNSt23_Sp_counted_ptr_inplaceIN3qbs8Internal21UserDependencyScannerESaIS2_ELN9__gnu_cxx12_Lock_policyE1EED1Ev@Base 1.22.0
 (optional=templinst|arch=armel riscv64)_ZNSt23_Sp_counted_ptr_inplaceIN3qbs8Internal21UserDependencyScannerESaIS2_ELN9__gnu_cxx12_Lock_policyE1EED2Ev@Base 1.22.0
 (optional=templinst|arch=!armel !riscv64)_ZNSt23_Sp_counted_ptr_inplaceIN3qbs8Internal21UserDependencyScannerESaIS2_ELN9__gnu_cxx12_Lock_policyE2EE10_M_destroyEv@Base 1.22.0
 (optional=templinst|arch=!armel !riscv64)_ZNSt23_Sp_counted_ptr_inplaceIN3qbs8Internal21UserDependencyScannerESaIS2_ELN9__gnu_cxx12_Lock_policyE2EE10_M_disposeEv@Base 1.22.0
 (optional=templinst|arch=!armel !riscv64)_ZNSt23_Sp_counted_ptr_inplaceIN3qbs8Internal21UserDependencyScannerESaIS2_ELN9__gnu_cxx12_Lock_policyE2EE14_M_get_deleterERKSt9type_info@Base 1.22.0
 (optional=templinst|arch=!armel !riscv64)_ZNSt23_Sp_counted_ptr_inplaceIN3qbs8Internal21UserDependencyScannerESaIS2_ELN9__gnu_cxx12_Lock_policyE2EED0Ev@Base 1.22.0
 (optional=templinst|arch=!armel !riscv64)_ZNSt23_Sp_counted_ptr_inplaceIN3qbs8Internal21UserDependencyScannerESaIS2_ELN9__gnu_cxx12_Lock_policyE2EED1Ev@Base 1.22.0
 (optional=templinst|arch=!armel !riscv64)_ZNSt23_Sp_counted_ptr_inplaceIN3qbs8Internal21UserDependencyScannerESaIS2_ELN9__gnu_cxx12_Lock_policyE2EED2Ev@Base 1.22.0
 (optional=templinst|arch=armel riscv64)_ZNSt23_Sp_counted_ptr_inplaceIN3qbs8Internal22RulesEvaluationContextESaIS2_ELN9__gnu_cxx12_Lock_policyE1EE10_M_destroyEv@Base 1.22.0
 (optional=templinst|arch=armel riscv64)_ZNSt23_Sp_counted_ptr_inplaceIN3qbs8Internal22RulesEvaluationContextESaIS2_ELN9__gnu_cxx12_Lock_policyE1EE10_M_disposeEv@Base 1.22.0
 (optional=templinst|arch=armel riscv64)_ZNSt23_Sp_counted_ptr_inplaceIN3qbs8Internal22RulesEvaluationContextESaIS2_ELN9__gnu_cxx12_Lock_policyE1EE14_M_get_deleterERKSt9type_info@Base 1.22.0
 (optional=templinst|arch=armel riscv64)_ZNSt23_Sp_counted_ptr_inplaceIN3qbs8Internal22RulesEvaluationContextESaIS2_ELN9__gnu_cxx12_Lock_policyE1EED0Ev@Base 1.22.0
 (optional=templinst|arch=armel riscv64)_ZNSt23_Sp_counted_ptr_inplaceIN3qbs8Internal22RulesEvaluationContextESaIS2_ELN9__gnu_cxx12_Lock_policyE1EED1Ev@Base 1.22.0
 (optional=templinst|arch=armel riscv64)_ZNSt23_Sp_counted_ptr_inplaceIN3qbs8Internal22RulesEvaluationContextESaIS2_ELN9__gnu_cxx12_Lock_policyE1EED2Ev@Base 1.22.0
 (optional=templinst|arch=!armel !riscv64)_ZNSt23_Sp_counted_ptr_inplaceIN3qbs8Internal22RulesEvaluationContextESaIS2_ELN9__gnu_cxx12_Lock_policyE2EE10_M_destroyEv@Base 1.22.0
 (optional=templinst|arch=!armel !riscv64)_ZNSt23_Sp_counted_ptr_inplaceIN3qbs8Internal22RulesEvaluationContextESaIS2_ELN9__gnu_cxx12_Lock_policyE2EE10_M_disposeEv@Base 1.22.0
 (optional=templinst|arch=!armel !riscv64)_ZNSt23_Sp_counted_ptr_inplaceIN3qbs8Internal22RulesEvaluationContextESaIS2_ELN9__gnu_cxx12_Lock_policyE2EE14_M_get_deleterERKSt9type_info@Base 1.22.0
 (optional=templinst|arch=!armel !riscv64)_ZNSt23_Sp_counted_ptr_inplaceIN3qbs8Internal22RulesEvaluationContextESaIS2_ELN9__gnu_cxx12_Lock_policyE2EED0Ev@Base 1.22.0
 (optional=templinst|arch=!armel !riscv64)_ZNSt23_Sp_counted_ptr_inplaceIN3qbs8Internal22RulesEvaluationContextESaIS2_ELN9__gnu_cxx12_Lock_policyE2EED1Ev@Base 1.22.0
 (optional=templinst|arch=!armel !riscv64)_ZNSt23_Sp_counted_ptr_inplaceIN3qbs8Internal22RulesEvaluationContextESaIS2_ELN9__gnu_cxx12_Lock_policyE2EED2Ev@Base 1.22.0
 (optional=templinst|arch=armel riscv64)_ZNSt23_Sp_counted_ptr_inplaceIN3qbs8Internal23PluginDependencyScannerESaIS2_ELN9__gnu_cxx12_Lock_policyE1EE10_M_destroyEv@Base 1.22.0
 (optional=templinst|arch=armel riscv64)_ZNSt23_Sp_counted_ptr_inplaceIN3qbs8Internal23PluginDependencyScannerESaIS2_ELN9__gnu_cxx12_Lock_policyE1EE10_M_disposeEv@Base 1.22.0
 (optional=templinst|arch=armel riscv64)_ZNSt23_Sp_counted_ptr_inplaceIN3qbs8Internal23PluginDependencyScannerESaIS2_ELN9__gnu_cxx12_Lock_policyE1EE14_M_get_deleterERKSt9type_info@Base 1.22.0
 (optional=templinst|arch=armel riscv64)_ZNSt23_Sp_counted_ptr_inplaceIN3qbs8Internal23PluginDependencyScannerESaIS2_ELN9__gnu_cxx12_Lock_policyE1EED0Ev@Base 1.22.0
 (optional=templinst|arch=armel riscv64)_ZNSt23_Sp_counted_ptr_inplaceIN3qbs8Internal23PluginDependencyScannerESaIS2_ELN9__gnu_cxx12_Lock_policyE1EED1Ev@Base 1.22.0
 (optional=templinst|arch=armel riscv64)_ZNSt23_Sp_counted_ptr_inplaceIN3qbs8Internal23PluginDependencyScannerESaIS2_ELN9__gnu_cxx12_Lock_policyE1EED2Ev@Base 1.22.0
 (optional=templinst|arch=!armel !riscv64)_ZNSt23_Sp_counted_ptr_inplaceIN3qbs8Internal23PluginDependencyScannerESaIS2_ELN9__gnu_cxx12_Lock_policyE2EE10_M_destroyEv@Base 1.22.0
 (optional=templinst|arch=!armel !riscv64)_ZNSt23_Sp_counted_ptr_inplaceIN3qbs8Internal23PluginDependencyScannerESaIS2_ELN9__gnu_cxx12_Lock_policyE2EE10_M_disposeEv@Base 1.22.0
 (optional=templinst|arch=!armel !riscv64)_ZNSt23_Sp_counted_ptr_inplaceIN3qbs8Internal23PluginDependencyScannerESaIS2_ELN9__gnu_cxx12_Lock_policyE2EE14_M_get_deleterERKSt9type_info@Base 1.22.0
 (optional=templinst|arch=!armel !riscv64)_ZNSt23_Sp_counted_ptr_inplaceIN3qbs8Internal23PluginDependencyScannerESaIS2_ELN9__gnu_cxx12_Lock_policyE2EED0Ev@Base 1.22.0
 (optional=templinst|arch=!armel !riscv64)_ZNSt23_Sp_counted_ptr_inplaceIN3qbs8Internal23PluginDependencyScannerESaIS2_ELN9__gnu_cxx12_Lock_policyE2EED1Ev@Base 1.22.0
 (optional=templinst|arch=!armel !riscv64)_ZNSt23_Sp_counted_ptr_inplaceIN3qbs8Internal23PluginDependencyScannerESaIS2_ELN9__gnu_cxx12_Lock_policyE2EED2Ev@Base 1.22.0
 (optional=templinst|arch=armel riscv64)_ZNSt23_Sp_counted_ptr_inplaceIN3qbs8Internal4RuleESaIS2_ELN9__gnu_cxx12_Lock_policyE1EE10_M_destroyEv@Base 1.22.0
 (optional=templinst|arch=armel riscv64)_ZNSt23_Sp_counted_ptr_inplaceIN3qbs8Internal4RuleESaIS2_ELN9__gnu_cxx12_Lock_policyE1EE10_M_disposeEv@Base 1.22.0
 (optional=templinst|arch=armel riscv64)_ZNSt23_Sp_counted_ptr_inplaceIN3qbs8Internal4RuleESaIS2_ELN9__gnu_cxx12_Lock_policyE1EE14_M_get_deleterERKSt9type_info@Base 1.22.0
 (optional=templinst|arch=armel riscv64)_ZNSt23_Sp_counted_ptr_inplaceIN3qbs8Internal4RuleESaIS2_ELN9__gnu_cxx12_Lock_policyE1EED0Ev@Base 1.22.0
 (optional=templinst|arch=armel riscv64)_ZNSt23_Sp_counted_ptr_inplaceIN3qbs8Internal4RuleESaIS2_ELN9__gnu_cxx12_Lock_policyE1EED1Ev@Base 1.22.0
 (optional=templinst|arch=armel riscv64)_ZNSt23_Sp_counted_ptr_inplaceIN3qbs8Internal4RuleESaIS2_ELN9__gnu_cxx12_Lock_policyE1EED2Ev@Base 1.22.0
 (optional=templinst|arch=!armel !riscv64)_ZNSt23_Sp_counted_ptr_inplaceIN3qbs8Internal4RuleESaIS2_ELN9__gnu_cxx12_Lock_policyE2EE10_M_destroyEv@Base 1.22.0
 (optional=templinst|arch=!armel !riscv64)_ZNSt23_Sp_counted_ptr_inplaceIN3qbs8Internal4RuleESaIS2_ELN9__gnu_cxx12_Lock_policyE2EE10_M_disposeEv@Base 1.22.0
 (optional=templinst|arch=!armel !riscv64)_ZNSt23_Sp_counted_ptr_inplaceIN3qbs8Internal4RuleESaIS2_ELN9__gnu_cxx12_Lock_policyE2EE14_M_get_deleterERKSt9type_info@Base 1.22.0
 (optional=templinst|arch=!armel !riscv64)_ZNSt23_Sp_counted_ptr_inplaceIN3qbs8Internal4RuleESaIS2_ELN9__gnu_cxx12_Lock_policyE2EED0Ev@Base 1.22.0
 (optional=templinst|arch=!armel !riscv64)_ZNSt23_Sp_counted_ptr_inplaceIN3qbs8Internal4RuleESaIS2_ELN9__gnu_cxx12_Lock_policyE2EED1Ev@Base 1.22.0
 (optional=templinst|arch=!armel !riscv64)_ZNSt23_Sp_counted_ptr_inplaceIN3qbs8Internal4RuleESaIS2_ELN9__gnu_cxx12_Lock_policyE2EED2Ev@Base 1.22.0
 (optional=templinst|arch=armel riscv64)_ZNSt23_Sp_counted_ptr_inplaceIN3qbs8Internal9ItemValueESaIS2_ELN9__gnu_cxx12_Lock_policyE1EE10_M_destroyEv@Base 1.22.0
 (optional=templinst|arch=armel riscv64)_ZNSt23_Sp_counted_ptr_inplaceIN3qbs8Internal9ItemValueESaIS2_ELN9__gnu_cxx12_Lock_policyE1EE10_M_disposeEv@Base 1.22.0
 (optional=templinst|arch=armel riscv64)_ZNSt23_Sp_counted_ptr_inplaceIN3qbs8Internal9ItemValueESaIS2_ELN9__gnu_cxx12_Lock_policyE1EE14_M_get_deleterERKSt9type_info@Base 1.22.0
 (optional=templinst|arch=armel riscv64)_ZNSt23_Sp_counted_ptr_inplaceIN3qbs8Internal9ItemValueESaIS2_ELN9__gnu_cxx12_Lock_policyE1EED0Ev@Base 1.22.0
 (optional=templinst|arch=armel riscv64)_ZNSt23_Sp_counted_ptr_inplaceIN3qbs8Internal9ItemValueESaIS2_ELN9__gnu_cxx12_Lock_policyE1EED1Ev@Base 1.22.0
 (optional=templinst|arch=armel riscv64)_ZNSt23_Sp_counted_ptr_inplaceIN3qbs8Internal9ItemValueESaIS2_ELN9__gnu_cxx12_Lock_policyE1EED2Ev@Base 1.22.0
 (optional=templinst|arch=!armel !riscv64)_ZNSt23_Sp_counted_ptr_inplaceIN3qbs8Internal9ItemValueESaIS2_ELN9__gnu_cxx12_Lock_policyE2EE10_M_destroyEv@Base 1.22.0
 (optional=templinst|arch=!armel !riscv64)_ZNSt23_Sp_counted_ptr_inplaceIN3qbs8Internal9ItemValueESaIS2_ELN9__gnu_cxx12_Lock_policyE2EE10_M_disposeEv@Base 1.22.0
 (optional=templinst|arch=!armel !riscv64)_ZNSt23_Sp_counted_ptr_inplaceIN3qbs8Internal9ItemValueESaIS2_ELN9__gnu_cxx12_Lock_policyE2EE14_M_get_deleterERKSt9type_info@Base 1.22.0
 (optional=templinst|arch=!armel !riscv64)_ZNSt23_Sp_counted_ptr_inplaceIN3qbs8Internal9ItemValueESaIS2_ELN9__gnu_cxx12_Lock_policyE2EED0Ev@Base 1.22.0
 (optional=templinst|arch=!armel !riscv64)_ZNSt23_Sp_counted_ptr_inplaceIN3qbs8Internal9ItemValueESaIS2_ELN9__gnu_cxx12_Lock_policyE2EED1Ev@Base 1.22.0
 (optional=templinst|arch=!armel !riscv64)_ZNSt23_Sp_counted_ptr_inplaceIN3qbs8Internal9ItemValueESaIS2_ELN9__gnu_cxx12_Lock_policyE2EED2Ev@Base 1.22.0
 (optional=templinst|arch=armel riscv64)_ZNSt23_Sp_counted_ptr_inplaceINSt7__cxx1118basic_stringstreamIcSt11char_traitsIcESaIcEEESaIS5_ELN9__gnu_cxx12_Lock_policyE1EE10_M_destroyEv@Base 1.22.0
 (optional=templinst|arch=armel riscv64)_ZNSt23_Sp_counted_ptr_inplaceINSt7__cxx1118basic_stringstreamIcSt11char_traitsIcESaIcEEESaIS5_ELN9__gnu_cxx12_Lock_policyE1EE10_M_disposeEv@Base 1.22.0
 (optional=templinst|arch=armel riscv64)_ZNSt23_Sp_counted_ptr_inplaceINSt7__cxx1118basic_stringstreamIcSt11char_traitsIcESaIcEEESaIS5_ELN9__gnu_cxx12_Lock_policyE1EE14_M_get_deleterERKSt9type_info@Base 1.22.0
 (optional=templinst|arch=armel riscv64)_ZNSt23_Sp_counted_ptr_inplaceINSt7__cxx1118basic_stringstreamIcSt11char_traitsIcESaIcEEESaIS5_ELN9__gnu_cxx12_Lock_policyE1EED0Ev@Base 1.22.0
 (optional=templinst|arch=armel riscv64)_ZNSt23_Sp_counted_ptr_inplaceINSt7__cxx1118basic_stringstreamIcSt11char_traitsIcESaIcEEESaIS5_ELN9__gnu_cxx12_Lock_policyE1EED1Ev@Base 1.22.0
 (optional=templinst|arch=armel riscv64)_ZNSt23_Sp_counted_ptr_inplaceINSt7__cxx1118basic_stringstreamIcSt11char_traitsIcESaIcEEESaIS5_ELN9__gnu_cxx12_Lock_policyE1EED2Ev@Base 1.22.0
 (optional=templinst|arch=!armel !riscv64)_ZNSt23_Sp_counted_ptr_inplaceINSt7__cxx1118basic_stringstreamIcSt11char_traitsIcESaIcEEESaIS5_ELN9__gnu_cxx12_Lock_policyE2EE10_M_destroyEv@Base 1.22.0
 (optional=templinst|arch=!armel !riscv64)_ZNSt23_Sp_counted_ptr_inplaceINSt7__cxx1118basic_stringstreamIcSt11char_traitsIcESaIcEEESaIS5_ELN9__gnu_cxx12_Lock_policyE2EE10_M_disposeEv@Base 1.22.0
 (optional=templinst|arch=!armel !riscv64)_ZNSt23_Sp_counted_ptr_inplaceINSt7__cxx1118basic_stringstreamIcSt11char_traitsIcESaIcEEESaIS5_ELN9__gnu_cxx12_Lock_policyE2EE14_M_get_deleterERKSt9type_info@Base 1.22.0
 (optional=templinst|arch=!armel !riscv64)_ZNSt23_Sp_counted_ptr_inplaceINSt7__cxx1118basic_stringstreamIcSt11char_traitsIcESaIcEEESaIS5_ELN9__gnu_cxx12_Lock_policyE2EED0Ev@Base 1.22.0
 (optional=templinst|arch=!armel !riscv64)_ZNSt23_Sp_counted_ptr_inplaceINSt7__cxx1118basic_stringstreamIcSt11char_traitsIcESaIcEEESaIS5_ELN9__gnu_cxx12_Lock_policyE2EED1Ev@Base 1.22.0
 (optional=templinst|arch=!armel !riscv64)_ZNSt23_Sp_counted_ptr_inplaceINSt7__cxx1118basic_stringstreamIcSt11char_traitsIcESaIcEEESaIS5_ELN9__gnu_cxx12_Lock_policyE2EED2Ev@Base 1.22.0
 (optional=templinst|arch=armel riscv64)_ZNSt23_Sp_counted_ptr_inplaceINSt8__detail4_NFAINSt7__cxx1112regex_traitsIcEEEESaIS5_ELN9__gnu_cxx12_Lock_policyE1EE10_M_destroyEv@Base 1.22.0
 (optional=templinst|arch=armel riscv64)_ZNSt23_Sp_counted_ptr_inplaceINSt8__detail4_NFAINSt7__cxx1112regex_traitsIcEEEESaIS5_ELN9__gnu_cxx12_Lock_policyE1EE10_M_disposeEv@Base 1.22.0
 (optional=templinst|arch=armel riscv64)_ZNSt23_Sp_counted_ptr_inplaceINSt8__detail4_NFAINSt7__cxx1112regex_traitsIcEEEESaIS5_ELN9__gnu_cxx12_Lock_policyE1EE14_M_get_deleterERKSt9type_info@Base 1.22.0
 (optional=templinst|arch=armel riscv64)_ZNSt23_Sp_counted_ptr_inplaceINSt8__detail4_NFAINSt7__cxx1112regex_traitsIcEEEESaIS5_ELN9__gnu_cxx12_Lock_policyE1EED0Ev@Base 1.22.0
 (optional=templinst|arch=armel riscv64)_ZNSt23_Sp_counted_ptr_inplaceINSt8__detail4_NFAINSt7__cxx1112regex_traitsIcEEEESaIS5_ELN9__gnu_cxx12_Lock_policyE1EED1Ev@Base 1.22.0
